In archive Build/libwolfssl.a:

bio.o:     file format elf32-littlearm


crl.o:     file format elf32-littlearm


internal.o:     file format elf32-littlearm


keys.o:     file format elf32-littlearm


ocsp.o:     file format elf32-littlearm


sniffer.o:     file format elf32-littlearm


ssl.o:     file format elf32-littlearm


tls.o:     file format elf32-littlearm


tls13.o:     file format elf32-littlearm


wolfio.o:     file format elf32-littlearm


aes.o:     file format elf32-littlearm


Disassembly of section .text.ByteReverseWord32:

00000000 <ByteReverseWord32>:
   0:	ba00      	rev	r0, r0
   2:	4770      	bx	lr

Disassembly of section .text.ByteReverseWords:

00000000 <ByteReverseWords>:
   0:	b510      	push	{r4, lr}
   2:	0892      	lsrs	r2, r2, #2
   4:	4604      	mov	r4, r0
   6:	2300      	movs	r3, #0
   8:	4293      	cmp	r3, r2
   a:	d100      	bne.n	e <ByteReverseWords+0xe>
   c:	bd10      	pop	{r4, pc}
   e:	f851 0023 	ldr.w	r0, [r1, r3, lsl #2]
  12:	f7ff fffe 	bl	0 <ByteReverseWords>
  16:	f844 0023 	str.w	r0, [r4, r3, lsl #2]
  1a:	3301      	adds	r3, #1
  1c:	e7f4      	b.n	8 <ByteReverseWords+0x8>

Disassembly of section .text.xorbufout:

00000000 <xorbufout>:
   0:	b5f0      	push	{r4, r5, r6, r7, lr}
   2:	ea80 0401 	eor.w	r4, r0, r1
   6:	ea82 0501 	eor.w	r5, r2, r1
   a:	432c      	orrs	r4, r5
   c:	f014 0403 	ands.w	r4, r4, #3
  10:	d10d      	bne.n	2e <xorbufout+0x2e>
  12:	078d      	lsls	r5, r1, #30
  14:	d000      	beq.n	18 <xorbufout+0x18>
  16:	b973      	cbnz	r3, 36 <xorbufout+0x36>
  18:	089d      	lsrs	r5, r3, #2
  1a:	42a5      	cmp	r5, r4
  1c:	d114      	bne.n	48 <xorbufout+0x48>
  1e:	eb00 0085 	add.w	r0, r0, r5, lsl #2
  22:	eb02 0285 	add.w	r2, r2, r5, lsl #2
  26:	eb01 0185 	add.w	r1, r1, r5, lsl #2
  2a:	f003 0303 	and.w	r3, r3, #3
  2e:	2400      	movs	r4, #0
  30:	42a3      	cmp	r3, r4
  32:	d112      	bne.n	5a <xorbufout+0x5a>
  34:	bdf0      	pop	{r4, r5, r6, r7, pc}
  36:	f811 5b01 	ldrb.w	r5, [r1], #1
  3a:	f812 6b01 	ldrb.w	r6, [r2], #1
  3e:	4075      	eors	r5, r6
  40:	f800 5b01 	strb.w	r5, [r0], #1
  44:	3b01      	subs	r3, #1
  46:	e7e4      	b.n	12 <xorbufout+0x12>
  48:	f851 6024 	ldr.w	r6, [r1, r4, lsl #2]
  4c:	f852 7024 	ldr.w	r7, [r2, r4, lsl #2]
  50:	407e      	eors	r6, r7
  52:	f840 6024 	str.w	r6, [r0, r4, lsl #2]
  56:	3401      	adds	r4, #1
  58:	e7df      	b.n	1a <xorbufout+0x1a>
  5a:	5d0d      	ldrb	r5, [r1, r4]
  5c:	5d16      	ldrb	r6, [r2, r4]
  5e:	4075      	eors	r5, r6
  60:	5505      	strb	r5, [r0, r4]
  62:	3401      	adds	r4, #1
  64:	e7e4      	b.n	30 <xorbufout+0x30>

Disassembly of section .text.xorbuf:

00000000 <xorbuf>:
   0:	ea81 0300 	eor.w	r3, r1, r0
   4:	079b      	lsls	r3, r3, #30
   6:	b5f0      	push	{r4, r5, r6, r7, lr}
   8:	d10c      	bne.n	24 <xorbuf+0x24>
   a:	f000 0403 	and.w	r4, r0, #3
   e:	b104      	cbz	r4, 12 <xorbuf+0x12>
  10:	b96a      	cbnz	r2, 2e <xorbuf+0x2e>
  12:	f022 0503 	bic.w	r5, r2, #3
  16:	194e      	adds	r6, r1, r5
  18:	4603      	mov	r3, r0
  1a:	42b1      	cmp	r1, r6
  1c:	d110      	bne.n	40 <xorbuf+0x40>
  1e:	4428      	add	r0, r5
  20:	f002 0203 	and.w	r2, r2, #3
  24:	3901      	subs	r1, #1
  26:	4402      	add	r2, r0
  28:	4290      	cmp	r0, r2
  2a:	d111      	bne.n	50 <xorbuf+0x50>
  2c:	bdf0      	pop	{r4, r5, r6, r7, pc}
  2e:	f810 3b01 	ldrb.w	r3, [r0], #1
  32:	f811 5b01 	ldrb.w	r5, [r1], #1
  36:	406b      	eors	r3, r5
  38:	f800 3c01 	strb.w	r3, [r0, #-1]
  3c:	3a01      	subs	r2, #1
  3e:	e7e6      	b.n	e <xorbuf+0xe>
  40:	f853 4b04 	ldr.w	r4, [r3], #4
  44:	f851 7b04 	ldr.w	r7, [r1], #4
  48:	407c      	eors	r4, r7
  4a:	f843 4c04 	str.w	r4, [r3, #-4]
  4e:	e7e4      	b.n	1a <xorbuf+0x1a>
  50:	7803      	ldrb	r3, [r0, #0]
  52:	f811 4f01 	ldrb.w	r4, [r1, #1]!
  56:	4063      	eors	r3, r4
  58:	f800 3b01 	strb.w	r3, [r0], #1
  5c:	e7e4      	b.n	28 <xorbuf+0x28>

Disassembly of section .text.IncrementGcmCounter:

00000000 <IncrementGcmCounter>:
   0:	f100 0210 	add.w	r2, r0, #16
   4:	300c      	adds	r0, #12
   6:	f812 3d01 	ldrb.w	r3, [r2, #-1]!
   a:	3301      	adds	r3, #1
   c:	b2db      	uxtb	r3, r3
   e:	7013      	strb	r3, [r2, #0]
  10:	b90b      	cbnz	r3, 16 <IncrementGcmCounter+0x16>
  12:	4282      	cmp	r2, r0
  14:	d1f7      	bne.n	6 <IncrementGcmCounter+0x6>
  16:	4770      	bx	lr

Disassembly of section .text.wc_AesEncrypt:

00000000 <wc_AesEncrypt>:
   0:	e92d 47ff 	stmdb	sp!, {r0, r1, r2, r3, r4, r5, r6, r7, r8, r9, sl, lr}
   4:	460d      	mov	r5, r1
   6:	4690      	mov	r8, r2
   8:	4604      	mov	r4, r0
   a:	2800      	cmp	r0, #0
   c:	f000 8727 	beq.w	e5e <wc_AesEncrypt+0xe5e>
  10:	f8d0 70f0 	ldr.w	r7, [r0, #240]	@ 0xf0
  14:	087f      	lsrs	r7, r7, #1
  16:	1e7b      	subs	r3, r7, #1
  18:	2b06      	cmp	r3, #6
  1a:	f200 8723 	bhi.w	e64 <wc_AesEncrypt+0xe64>
  1e:	2204      	movs	r2, #4
  20:	4668      	mov	r0, sp
  22:	f7ff fffe 	bl	0 <memcpy>
  26:	2204      	movs	r2, #4
  28:	18a9      	adds	r1, r5, r2
  2a:	eb0d 0002 	add.w	r0, sp, r2
  2e:	f7ff fffe 	bl	0 <memcpy>
  32:	f105 0108 	add.w	r1, r5, #8
  36:	2204      	movs	r2, #4
  38:	a802      	add	r0, sp, #8
  3a:	f7ff fffe 	bl	0 <memcpy>
  3e:	f105 010c 	add.w	r1, r5, #12
  42:	2204      	movs	r2, #4
  44:	a803      	add	r0, sp, #12
  46:	f7ff fffe 	bl	0 <memcpy>
  4a:	9800      	ldr	r0, [sp, #0]
  4c:	f7ff fffe 	bl	0 <wc_AesEncrypt>
  50:	4602      	mov	r2, r0
  52:	9801      	ldr	r0, [sp, #4]
  54:	f7ff fffe 	bl	0 <wc_AesEncrypt>
  58:	4603      	mov	r3, r0
  5a:	9802      	ldr	r0, [sp, #8]
  5c:	f7ff fffe 	bl	0 <wc_AesEncrypt>
  60:	4681      	mov	r9, r0
  62:	9803      	ldr	r0, [sp, #12]
  64:	f7ff fffe 	bl	0 <wc_AesEncrypt>
  68:	6821      	ldr	r1, [r4, #0]
  6a:	ea82 0e01 	eor.w	lr, r2, r1
  6e:	6862      	ldr	r2, [r4, #4]
  70:	ea83 0c02 	eor.w	ip, r3, r2
  74:	68a3      	ldr	r3, [r4, #8]
  76:	ea89 0903 	eor.w	r9, r9, r3
  7a:	68e3      	ldr	r3, [r4, #12]
  7c:	4058      	eors	r0, r3
  7e:	b2c2      	uxtb	r2, r0
  80:	4bf2      	ldr	r3, [pc, #968]	@ (44c <wc_AesEncrypt+0x44c>)
  82:	ea4f 611e 	mov.w	r1, lr, lsr #24
  86:	f502 7240 	add.w	r2, r2, #768	@ 0x300
  8a:	f853 5021 	ldr.w	r5, [r3, r1, lsl #2]
  8e:	f853 2022 	ldr.w	r2, [r3, r2, lsl #2]
  92:	4055      	eors	r5, r2
  94:	6922      	ldr	r2, [r4, #16]
  96:	4055      	eors	r5, r2
  98:	f3cc 4207 	ubfx	r2, ip, #16, #8
  9c:	f502 7280 	add.w	r2, r2, #256	@ 0x100
  a0:	ea4f 611c 	mov.w	r1, ip, lsr #24
  a4:	f853 2022 	ldr.w	r2, [r3, r2, lsl #2]
  a8:	f853 1021 	ldr.w	r1, [r3, r1, lsl #2]
  ac:	4055      	eors	r5, r2
  ae:	f3c9 2207 	ubfx	r2, r9, #8, #8
  b2:	f502 7200 	add.w	r2, r2, #512	@ 0x200
  b6:	ea4f 6619 	mov.w	r6, r9, lsr #24
  ba:	f853 2022 	ldr.w	r2, [r3, r2, lsl #2]
  be:	f853 6026 	ldr.w	r6, [r3, r6, lsl #2]
  c2:	4055      	eors	r5, r2
  c4:	fa5f f28e 	uxtb.w	r2, lr
  c8:	f502 7240 	add.w	r2, r2, #768	@ 0x300
  cc:	2f05      	cmp	r7, #5
  ce:	f853 2022 	ldr.w	r2, [r3, r2, lsl #2]
  d2:	ea81 0102 	eor.w	r1, r1, r2
  d6:	6962      	ldr	r2, [r4, #20]
  d8:	ea81 0102 	eor.w	r1, r1, r2
  dc:	f3c9 4207 	ubfx	r2, r9, #16, #8
  e0:	f502 7280 	add.w	r2, r2, #256	@ 0x100
  e4:	fa5f f989 	uxtb.w	r9, r9
  e8:	f853 2022 	ldr.w	r2, [r3, r2, lsl #2]
  ec:	ea81 0102 	eor.w	r1, r1, r2
  f0:	f3c0 2207 	ubfx	r2, r0, #8, #8
  f4:	f502 7200 	add.w	r2, r2, #512	@ 0x200
  f8:	f509 7940 	add.w	r9, r9, #768	@ 0x300
  fc:	f853 2022 	ldr.w	r2, [r3, r2, lsl #2]
 100:	ea81 0102 	eor.w	r1, r1, r2
 104:	fa5f f28c 	uxtb.w	r2, ip
 108:	f502 7240 	add.w	r2, r2, #768	@ 0x300
 10c:	f3cc 2c07 	ubfx	ip, ip, #8, #8
 110:	f853 2022 	ldr.w	r2, [r3, r2, lsl #2]
 114:	ea86 0602 	eor.w	r6, r6, r2
 118:	69a2      	ldr	r2, [r4, #24]
 11a:	ea86 0602 	eor.w	r6, r6, r2
 11e:	f3c0 4207 	ubfx	r2, r0, #16, #8
 122:	f502 7280 	add.w	r2, r2, #256	@ 0x100
 126:	ea4f 6010 	mov.w	r0, r0, lsr #24
 12a:	f853 2022 	ldr.w	r2, [r3, r2, lsl #2]
 12e:	ea86 0602 	eor.w	r6, r6, r2
 132:	f3ce 2207 	ubfx	r2, lr, #8, #8
 136:	f502 7200 	add.w	r2, r2, #512	@ 0x200
 13a:	f3ce 4e07 	ubfx	lr, lr, #16, #8
 13e:	f853 2022 	ldr.w	r2, [r3, r2, lsl #2]
 142:	ea86 0602 	eor.w	r6, r6, r2
 146:	f853 2020 	ldr.w	r2, [r3, r0, lsl #2]
 14a:	f853 0029 	ldr.w	r0, [r3, r9, lsl #2]
 14e:	f50e 7e80 	add.w	lr, lr, #256	@ 0x100
 152:	ea82 0900 	eor.w	r9, r2, r0
 156:	69e2      	ldr	r2, [r4, #28]
 158:	f50c 7c00 	add.w	ip, ip, #512	@ 0x200
 15c:	ea89 0902 	eor.w	r9, r9, r2
 160:	f853 202e 	ldr.w	r2, [r3, lr, lsl #2]
 164:	ea89 0902 	eor.w	r9, r9, r2
 168:	f853 202c 	ldr.w	r2, [r3, ip, lsl #2]
 16c:	ea89 0902 	eor.w	r9, r9, r2
 170:	fa5f f089 	uxtb.w	r0, r9
 174:	ea4f 6215 	mov.w	r2, r5, lsr #24
 178:	f500 7040 	add.w	r0, r0, #768	@ 0x300
 17c:	f853 2022 	ldr.w	r2, [r3, r2, lsl #2]
 180:	f853 0020 	ldr.w	r0, [r3, r0, lsl #2]
 184:	ea82 0c00 	eor.w	ip, r2, r0
 188:	6a22      	ldr	r2, [r4, #32]
 18a:	ea8c 0c02 	eor.w	ip, ip, r2
 18e:	f3c1 4207 	ubfx	r2, r1, #16, #8
 192:	f502 7280 	add.w	r2, r2, #256	@ 0x100
 196:	ea4f 6011 	mov.w	r0, r1, lsr #24
 19a:	f853 2022 	ldr.w	r2, [r3, r2, lsl #2]
 19e:	f853 0020 	ldr.w	r0, [r3, r0, lsl #2]
 1a2:	ea8c 0c02 	eor.w	ip, ip, r2
 1a6:	f3c6 2207 	ubfx	r2, r6, #8, #8
 1aa:	f502 7200 	add.w	r2, r2, #512	@ 0x200
 1ae:	fa5f fe81 	uxtb.w	lr, r1
 1b2:	f853 2022 	ldr.w	r2, [r3, r2, lsl #2]
 1b6:	ea8c 0c02 	eor.w	ip, ip, r2
 1ba:	b2ea      	uxtb	r2, r5
 1bc:	f502 7240 	add.w	r2, r2, #768	@ 0x300
 1c0:	f50e 7e40 	add.w	lr, lr, #768	@ 0x300
 1c4:	f853 2022 	ldr.w	r2, [r3, r2, lsl #2]
 1c8:	f853 e02e 	ldr.w	lr, [r3, lr, lsl #2]
 1cc:	ea80 0002 	eor.w	r0, r0, r2
 1d0:	6a62      	ldr	r2, [r4, #36]	@ 0x24
 1d2:	ea80 0002 	eor.w	r0, r0, r2
 1d6:	f3c6 4207 	ubfx	r2, r6, #16, #8
 1da:	f502 7280 	add.w	r2, r2, #256	@ 0x100
 1de:	f3c1 2107 	ubfx	r1, r1, #8, #8
 1e2:	f853 2022 	ldr.w	r2, [r3, r2, lsl #2]
 1e6:	ea80 0002 	eor.w	r0, r0, r2
 1ea:	f3c9 2207 	ubfx	r2, r9, #8, #8
 1ee:	f502 7200 	add.w	r2, r2, #512	@ 0x200
 1f2:	f501 7100 	add.w	r1, r1, #512	@ 0x200
 1f6:	f853 2022 	ldr.w	r2, [r3, r2, lsl #2]
 1fa:	ea80 0002 	eor.w	r0, r0, r2
 1fe:	ea4f 6216 	mov.w	r2, r6, lsr #24
 202:	b2f6      	uxtb	r6, r6
 204:	f853 2022 	ldr.w	r2, [r3, r2, lsl #2]
 208:	ea82 0e0e 	eor.w	lr, r2, lr
 20c:	6aa2      	ldr	r2, [r4, #40]	@ 0x28
 20e:	ea8e 0e02 	eor.w	lr, lr, r2
 212:	f3c9 4207 	ubfx	r2, r9, #16, #8
 216:	f502 7280 	add.w	r2, r2, #256	@ 0x100
 21a:	ea4f 6919 	mov.w	r9, r9, lsr #24
 21e:	f853 2022 	ldr.w	r2, [r3, r2, lsl #2]
 222:	ea8e 0e02 	eor.w	lr, lr, r2
 226:	f3c5 2207 	ubfx	r2, r5, #8, #8
 22a:	f502 7200 	add.w	r2, r2, #512	@ 0x200
 22e:	f506 7640 	add.w	r6, r6, #768	@ 0x300
 232:	f853 2022 	ldr.w	r2, [r3, r2, lsl #2]
 236:	f853 6026 	ldr.w	r6, [r3, r6, lsl #2]
 23a:	ea8e 0e02 	eor.w	lr, lr, r2
 23e:	f853 2029 	ldr.w	r2, [r3, r9, lsl #2]
 242:	f3c5 4507 	ubfx	r5, r5, #16, #8
 246:	ea82 0906 	eor.w	r9, r2, r6
 24a:	f505 7580 	add.w	r5, r5, #256	@ 0x100
 24e:	6ae2      	ldr	r2, [r4, #44]	@ 0x2c
 250:	ea89 0902 	eor.w	r9, r9, r2
 254:	f853 2025 	ldr.w	r2, [r3, r5, lsl #2]
 258:	ea89 0902 	eor.w	r9, r9, r2
 25c:	f853 2021 	ldr.w	r2, [r3, r1, lsl #2]
 260:	ea89 0902 	eor.w	r9, r9, r2
 264:	fa5f f289 	uxtb.w	r2, r9
 268:	ea4f 611c 	mov.w	r1, ip, lsr #24
 26c:	f502 7240 	add.w	r2, r2, #768	@ 0x300
 270:	f853 5021 	ldr.w	r5, [r3, r1, lsl #2]
 274:	f853 2022 	ldr.w	r2, [r3, r2, lsl #2]
 278:	ea85 0502 	eor.w	r5, r5, r2
 27c:	6b22      	ldr	r2, [r4, #48]	@ 0x30
 27e:	ea85 0502 	eor.w	r5, r5, r2
 282:	f3c0 4207 	ubfx	r2, r0, #16, #8
 286:	f502 7280 	add.w	r2, r2, #256	@ 0x100
 28a:	ea4f 6110 	mov.w	r1, r0, lsr #24
 28e:	f853 2022 	ldr.w	r2, [r3, r2, lsl #2]
 292:	f853 1021 	ldr.w	r1, [r3, r1, lsl #2]
 296:	ea85 0502 	eor.w	r5, r5, r2
 29a:	f3ce 2207 	ubfx	r2, lr, #8, #8
 29e:	f502 7200 	add.w	r2, r2, #512	@ 0x200
 2a2:	ea4f 661e 	mov.w	r6, lr, lsr #24
 2a6:	f853 2022 	ldr.w	r2, [r3, r2, lsl #2]
 2aa:	f853 6026 	ldr.w	r6, [r3, r6, lsl #2]
 2ae:	ea85 0502 	eor.w	r5, r5, r2
 2b2:	fa5f f28c 	uxtb.w	r2, ip
 2b6:	f502 7240 	add.w	r2, r2, #768	@ 0x300
 2ba:	f853 2022 	ldr.w	r2, [r3, r2, lsl #2]
 2be:	ea81 0102 	eor.w	r1, r1, r2
 2c2:	6b62      	ldr	r2, [r4, #52]	@ 0x34
 2c4:	ea81 0102 	eor.w	r1, r1, r2
 2c8:	f3ce 4207 	ubfx	r2, lr, #16, #8
 2cc:	f502 7280 	add.w	r2, r2, #256	@ 0x100
 2d0:	fa5f fe8e 	uxtb.w	lr, lr
 2d4:	f853 2022 	ldr.w	r2, [r3, r2, lsl #2]
 2d8:	ea81 0102 	eor.w	r1, r1, r2
 2dc:	f3c9 2207 	ubfx	r2, r9, #8, #8
 2e0:	f502 7200 	add.w	r2, r2, #512	@ 0x200
 2e4:	f50e 7e40 	add.w	lr, lr, #768	@ 0x300
 2e8:	f853 2022 	ldr.w	r2, [r3, r2, lsl #2]
 2ec:	ea81 0102 	eor.w	r1, r1, r2
 2f0:	b2c2      	uxtb	r2, r0
 2f2:	f502 7240 	add.w	r2, r2, #768	@ 0x300
 2f6:	f3c0 2007 	ubfx	r0, r0, #8, #8
 2fa:	f853 2022 	ldr.w	r2, [r3, r2, lsl #2]
 2fe:	ea86 0602 	eor.w	r6, r6, r2
 302:	6ba2      	ldr	r2, [r4, #56]	@ 0x38
 304:	ea86 0602 	eor.w	r6, r6, r2
 308:	f3c9 4207 	ubfx	r2, r9, #16, #8
 30c:	f502 7280 	add.w	r2, r2, #256	@ 0x100
 310:	ea4f 6919 	mov.w	r9, r9, lsr #24
 314:	f853 2022 	ldr.w	r2, [r3, r2, lsl #2]
 318:	ea86 0602 	eor.w	r6, r6, r2
 31c:	f3cc 2207 	ubfx	r2, ip, #8, #8
 320:	f502 7200 	add.w	r2, r2, #512	@ 0x200
 324:	f3cc 4c07 	ubfx	ip, ip, #16, #8
 328:	f853 2022 	ldr.w	r2, [r3, r2, lsl #2]
 32c:	ea86 0602 	eor.w	r6, r6, r2
 330:	f853 2029 	ldr.w	r2, [r3, r9, lsl #2]
 334:	f853 902e 	ldr.w	r9, [r3, lr, lsl #2]
 338:	f50c 7c80 	add.w	ip, ip, #256	@ 0x100
 33c:	ea82 0909 	eor.w	r9, r2, r9
 340:	6be2      	ldr	r2, [r4, #60]	@ 0x3c
 342:	f500 7000 	add.w	r0, r0, #512	@ 0x200
 346:	ea89 0902 	eor.w	r9, r9, r2
 34a:	f853 202c 	ldr.w	r2, [r3, ip, lsl #2]
 34e:	ea89 0902 	eor.w	r9, r9, r2
 352:	f853 2020 	ldr.w	r2, [r3, r0, lsl #2]
 356:	ea89 0902 	eor.w	r9, r9, r2
 35a:	fa5f f089 	uxtb.w	r0, r9
 35e:	ea4f 6215 	mov.w	r2, r5, lsr #24
 362:	f500 7040 	add.w	r0, r0, #768	@ 0x300
 366:	f853 2022 	ldr.w	r2, [r3, r2, lsl #2]
 36a:	f853 0020 	ldr.w	r0, [r3, r0, lsl #2]
 36e:	ea82 0c00 	eor.w	ip, r2, r0
 372:	6c22      	ldr	r2, [r4, #64]	@ 0x40
 374:	ea8c 0c02 	eor.w	ip, ip, r2
 378:	f3c1 4207 	ubfx	r2, r1, #16, #8
 37c:	f502 7280 	add.w	r2, r2, #256	@ 0x100
 380:	ea4f 6011 	mov.w	r0, r1, lsr #24
 384:	f853 2022 	ldr.w	r2, [r3, r2, lsl #2]
 388:	f853 0020 	ldr.w	r0, [r3, r0, lsl #2]
 38c:	ea8c 0c02 	eor.w	ip, ip, r2
 390:	f3c6 2207 	ubfx	r2, r6, #8, #8
 394:	f502 7200 	add.w	r2, r2, #512	@ 0x200
 398:	fa5f fe81 	uxtb.w	lr, r1
 39c:	f853 2022 	ldr.w	r2, [r3, r2, lsl #2]
 3a0:	ea8c 0c02 	eor.w	ip, ip, r2
 3a4:	b2ea      	uxtb	r2, r5
 3a6:	f502 7240 	add.w	r2, r2, #768	@ 0x300
 3aa:	f50e 7e40 	add.w	lr, lr, #768	@ 0x300
 3ae:	f853 2022 	ldr.w	r2, [r3, r2, lsl #2]
 3b2:	f853 e02e 	ldr.w	lr, [r3, lr, lsl #2]
 3b6:	ea80 0002 	eor.w	r0, r0, r2
 3ba:	6c62      	ldr	r2, [r4, #68]	@ 0x44
 3bc:	ea80 0002 	eor.w	r0, r0, r2
 3c0:	f3c6 4207 	ubfx	r2, r6, #16, #8
 3c4:	f502 7280 	add.w	r2, r2, #256	@ 0x100
 3c8:	f3c1 2107 	ubfx	r1, r1, #8, #8
 3cc:	f853 2022 	ldr.w	r2, [r3, r2, lsl #2]
 3d0:	ea80 0002 	eor.w	r0, r0, r2
 3d4:	f3c9 2207 	ubfx	r2, r9, #8, #8
 3d8:	f502 7200 	add.w	r2, r2, #512	@ 0x200
 3dc:	f501 7100 	add.w	r1, r1, #512	@ 0x200
 3e0:	f853 2022 	ldr.w	r2, [r3, r2, lsl #2]
 3e4:	ea80 0002 	eor.w	r0, r0, r2
 3e8:	ea4f 6216 	mov.w	r2, r6, lsr #24
 3ec:	b2f6      	uxtb	r6, r6
 3ee:	f853 2022 	ldr.w	r2, [r3, r2, lsl #2]
 3f2:	ea82 0e0e 	eor.w	lr, r2, lr
 3f6:	6ca2      	ldr	r2, [r4, #72]	@ 0x48
 3f8:	ea8e 0e02 	eor.w	lr, lr, r2
 3fc:	f3c9 4207 	ubfx	r2, r9, #16, #8
 400:	f502 7280 	add.w	r2, r2, #256	@ 0x100
 404:	ea4f 6919 	mov.w	r9, r9, lsr #24
 408:	f853 2022 	ldr.w	r2, [r3, r2, lsl #2]
 40c:	ea8e 0e02 	eor.w	lr, lr, r2
 410:	f3c5 2207 	ubfx	r2, r5, #8, #8
 414:	f502 7200 	add.w	r2, r2, #512	@ 0x200
 418:	f506 7640 	add.w	r6, r6, #768	@ 0x300
 41c:	f853 2022 	ldr.w	r2, [r3, r2, lsl #2]
 420:	f853 6026 	ldr.w	r6, [r3, r6, lsl #2]
 424:	ea8e 0e02 	eor.w	lr, lr, r2
 428:	f853 2029 	ldr.w	r2, [r3, r9, lsl #2]
 42c:	f3c5 4507 	ubfx	r5, r5, #16, #8
 430:	ea82 0906 	eor.w	r9, r2, r6
 434:	f505 7580 	add.w	r5, r5, #256	@ 0x100
 438:	6ce2      	ldr	r2, [r4, #76]	@ 0x4c
 43a:	ea89 0902 	eor.w	r9, r9, r2
 43e:	f853 2025 	ldr.w	r2, [r3, r5, lsl #2]
 442:	ea89 0902 	eor.w	r9, r9, r2
 446:	f853 2021 	ldr.w	r2, [r3, r1, lsl #2]
 44a:	e001      	b.n	450 <wc_AesEncrypt+0x450>
 44c:	00000000 	.word	0x00000000
 450:	ea89 0902 	eor.w	r9, r9, r2
 454:	fa5f f289 	uxtb.w	r2, r9
 458:	ea4f 611c 	mov.w	r1, ip, lsr #24
 45c:	f502 7240 	add.w	r2, r2, #768	@ 0x300
 460:	f853 5021 	ldr.w	r5, [r3, r1, lsl #2]
 464:	f853 2022 	ldr.w	r2, [r3, r2, lsl #2]
 468:	ea85 0502 	eor.w	r5, r5, r2
 46c:	6d22      	ldr	r2, [r4, #80]	@ 0x50
 46e:	ea85 0502 	eor.w	r5, r5, r2
 472:	f3c0 4207 	ubfx	r2, r0, #16, #8
 476:	f502 7280 	add.w	r2, r2, #256	@ 0x100
 47a:	ea4f 6110 	mov.w	r1, r0, lsr #24
 47e:	f853 2022 	ldr.w	r2, [r3, r2, lsl #2]
 482:	ea85 0502 	eor.w	r5, r5, r2
 486:	f3ce 2207 	ubfx	r2, lr, #8, #8
 48a:	f502 7200 	add.w	r2, r2, #512	@ 0x200
 48e:	ea4f 661e 	mov.w	r6, lr, lsr #24
 492:	f853 2022 	ldr.w	r2, [r3, r2, lsl #2]
 496:	f853 1021 	ldr.w	r1, [r3, r1, lsl #2]
 49a:	f853 6026 	ldr.w	r6, [r3, r6, lsl #2]
 49e:	ea85 0502 	eor.w	r5, r5, r2
 4a2:	fa5f f28c 	uxtb.w	r2, ip
 4a6:	f502 7240 	add.w	r2, r2, #768	@ 0x300
 4aa:	f853 2022 	ldr.w	r2, [r3, r2, lsl #2]
 4ae:	ea81 0102 	eor.w	r1, r1, r2
 4b2:	6d62      	ldr	r2, [r4, #84]	@ 0x54
 4b4:	ea81 0102 	eor.w	r1, r1, r2
 4b8:	f3ce 4207 	ubfx	r2, lr, #16, #8
 4bc:	f502 7280 	add.w	r2, r2, #256	@ 0x100
 4c0:	fa5f fe8e 	uxtb.w	lr, lr
 4c4:	f853 2022 	ldr.w	r2, [r3, r2, lsl #2]
 4c8:	ea81 0102 	eor.w	r1, r1, r2
 4cc:	f3c9 2207 	ubfx	r2, r9, #8, #8
 4d0:	f502 7200 	add.w	r2, r2, #512	@ 0x200
 4d4:	f50e 7e40 	add.w	lr, lr, #768	@ 0x300
 4d8:	f853 2022 	ldr.w	r2, [r3, r2, lsl #2]
 4dc:	ea81 0102 	eor.w	r1, r1, r2
 4e0:	b2c2      	uxtb	r2, r0
 4e2:	f502 7240 	add.w	r2, r2, #768	@ 0x300
 4e6:	f3c0 2007 	ubfx	r0, r0, #8, #8
 4ea:	f853 2022 	ldr.w	r2, [r3, r2, lsl #2]
 4ee:	ea86 0602 	eor.w	r6, r6, r2
 4f2:	6da2      	ldr	r2, [r4, #88]	@ 0x58
 4f4:	ea86 0602 	eor.w	r6, r6, r2
 4f8:	f3c9 4207 	ubfx	r2, r9, #16, #8
 4fc:	f502 7280 	add.w	r2, r2, #256	@ 0x100
 500:	ea4f 6919 	mov.w	r9, r9, lsr #24
 504:	f853 2022 	ldr.w	r2, [r3, r2, lsl #2]
 508:	ea86 0602 	eor.w	r6, r6, r2
 50c:	f3cc 2207 	ubfx	r2, ip, #8, #8
 510:	f502 7200 	add.w	r2, r2, #512	@ 0x200
 514:	f3cc 4c07 	ubfx	ip, ip, #16, #8
 518:	f853 2022 	ldr.w	r2, [r3, r2, lsl #2]
 51c:	ea86 0602 	eor.w	r6, r6, r2
 520:	f853 2029 	ldr.w	r2, [r3, r9, lsl #2]
 524:	f853 902e 	ldr.w	r9, [r3, lr, lsl #2]
 528:	f50c 7c80 	add.w	ip, ip, #256	@ 0x100
 52c:	ea82 0909 	eor.w	r9, r2, r9
 530:	6de2      	ldr	r2, [r4, #92]	@ 0x5c
 532:	f500 7000 	add.w	r0, r0, #512	@ 0x200
 536:	ea89 0902 	eor.w	r9, r9, r2
 53a:	f853 202c 	ldr.w	r2, [r3, ip, lsl #2]
 53e:	ea89 0902 	eor.w	r9, r9, r2
 542:	f853 2020 	ldr.w	r2, [r3, r0, lsl #2]
 546:	ea89 0902 	eor.w	r9, r9, r2
 54a:	fa5f f089 	uxtb.w	r0, r9
 54e:	ea4f 6215 	mov.w	r2, r5, lsr #24
 552:	f500 7040 	add.w	r0, r0, #768	@ 0x300
 556:	f853 2022 	ldr.w	r2, [r3, r2, lsl #2]
 55a:	f853 0020 	ldr.w	r0, [r3, r0, lsl #2]
 55e:	ea82 0c00 	eor.w	ip, r2, r0
 562:	6e22      	ldr	r2, [r4, #96]	@ 0x60
 564:	ea8c 0c02 	eor.w	ip, ip, r2
 568:	f3c1 4207 	ubfx	r2, r1, #16, #8
 56c:	f502 7280 	add.w	r2, r2, #256	@ 0x100
 570:	ea4f 6011 	mov.w	r0, r1, lsr #24
 574:	f853 2022 	ldr.w	r2, [r3, r2, lsl #2]
 578:	f853 0020 	ldr.w	r0, [r3, r0, lsl #2]
 57c:	ea8c 0c02 	eor.w	ip, ip, r2
 580:	f3c6 2207 	ubfx	r2, r6, #8, #8
 584:	f502 7200 	add.w	r2, r2, #512	@ 0x200
 588:	fa5f fe81 	uxtb.w	lr, r1
 58c:	f853 2022 	ldr.w	r2, [r3, r2, lsl #2]
 590:	ea8c 0c02 	eor.w	ip, ip, r2
 594:	b2ea      	uxtb	r2, r5
 596:	f502 7240 	add.w	r2, r2, #768	@ 0x300
 59a:	f50e 7e40 	add.w	lr, lr, #768	@ 0x300
 59e:	f853 2022 	ldr.w	r2, [r3, r2, lsl #2]
 5a2:	f853 e02e 	ldr.w	lr, [r3, lr, lsl #2]
 5a6:	ea80 0002 	eor.w	r0, r0, r2
 5aa:	6e62      	ldr	r2, [r4, #100]	@ 0x64
 5ac:	ea80 0002 	eor.w	r0, r0, r2
 5b0:	f3c6 4207 	ubfx	r2, r6, #16, #8
 5b4:	f502 7280 	add.w	r2, r2, #256	@ 0x100
 5b8:	f3c1 2107 	ubfx	r1, r1, #8, #8
 5bc:	f853 2022 	ldr.w	r2, [r3, r2, lsl #2]
 5c0:	ea80 0002 	eor.w	r0, r0, r2
 5c4:	f3c9 2207 	ubfx	r2, r9, #8, #8
 5c8:	f502 7200 	add.w	r2, r2, #512	@ 0x200
 5cc:	f501 7100 	add.w	r1, r1, #512	@ 0x200
 5d0:	f853 2022 	ldr.w	r2, [r3, r2, lsl #2]
 5d4:	ea80 0002 	eor.w	r0, r0, r2
 5d8:	ea4f 6216 	mov.w	r2, r6, lsr #24
 5dc:	b2f6      	uxtb	r6, r6
 5de:	f853 2022 	ldr.w	r2, [r3, r2, lsl #2]
 5e2:	ea82 0e0e 	eor.w	lr, r2, lr
 5e6:	6ea2      	ldr	r2, [r4, #104]	@ 0x68
 5e8:	ea8e 0e02 	eor.w	lr, lr, r2
 5ec:	f3c9 4207 	ubfx	r2, r9, #16, #8
 5f0:	f502 7280 	add.w	r2, r2, #256	@ 0x100
 5f4:	ea4f 6919 	mov.w	r9, r9, lsr #24
 5f8:	f853 2022 	ldr.w	r2, [r3, r2, lsl #2]
 5fc:	ea8e 0e02 	eor.w	lr, lr, r2
 600:	f3c5 2207 	ubfx	r2, r5, #8, #8
 604:	f502 7200 	add.w	r2, r2, #512	@ 0x200
 608:	f506 7640 	add.w	r6, r6, #768	@ 0x300
 60c:	f853 2022 	ldr.w	r2, [r3, r2, lsl #2]
 610:	ea8e 0e02 	eor.w	lr, lr, r2
 614:	f853 2029 	ldr.w	r2, [r3, r9, lsl #2]
 618:	f853 6026 	ldr.w	r6, [r3, r6, lsl #2]
 61c:	f3c5 4507 	ubfx	r5, r5, #16, #8
 620:	ea82 0906 	eor.w	r9, r2, r6
 624:	f505 7580 	add.w	r5, r5, #256	@ 0x100
 628:	6ee2      	ldr	r2, [r4, #108]	@ 0x6c
 62a:	ea89 0902 	eor.w	r9, r9, r2
 62e:	f853 2025 	ldr.w	r2, [r3, r5, lsl #2]
 632:	ea89 0902 	eor.w	r9, r9, r2
 636:	f853 2021 	ldr.w	r2, [r3, r1, lsl #2]
 63a:	ea89 0902 	eor.w	r9, r9, r2
 63e:	fa5f f289 	uxtb.w	r2, r9
 642:	ea4f 611c 	mov.w	r1, ip, lsr #24
 646:	f502 7240 	add.w	r2, r2, #768	@ 0x300
 64a:	f853 5021 	ldr.w	r5, [r3, r1, lsl #2]
 64e:	f853 2022 	ldr.w	r2, [r3, r2, lsl #2]
 652:	ea85 0502 	eor.w	r5, r5, r2
 656:	6f22      	ldr	r2, [r4, #112]	@ 0x70
 658:	ea85 0502 	eor.w	r5, r5, r2
 65c:	f3c0 4207 	ubfx	r2, r0, #16, #8
 660:	f502 7280 	add.w	r2, r2, #256	@ 0x100
 664:	ea4f 6110 	mov.w	r1, r0, lsr #24
 668:	f853 2022 	ldr.w	r2, [r3, r2, lsl #2]
 66c:	f853 1021 	ldr.w	r1, [r3, r1, lsl #2]
 670:	ea85 0502 	eor.w	r5, r5, r2
 674:	f3ce 2207 	ubfx	r2, lr, #8, #8
 678:	f502 7200 	add.w	r2, r2, #512	@ 0x200
 67c:	ea4f 661e 	mov.w	r6, lr, lsr #24
 680:	f853 2022 	ldr.w	r2, [r3, r2, lsl #2]
 684:	f853 6026 	ldr.w	r6, [r3, r6, lsl #2]
 688:	ea85 0502 	eor.w	r5, r5, r2
 68c:	fa5f f28c 	uxtb.w	r2, ip
 690:	f502 7240 	add.w	r2, r2, #768	@ 0x300
 694:	f853 2022 	ldr.w	r2, [r3, r2, lsl #2]
 698:	ea81 0102 	eor.w	r1, r1, r2
 69c:	6f62      	ldr	r2, [r4, #116]	@ 0x74
 69e:	ea81 0102 	eor.w	r1, r1, r2
 6a2:	f3ce 4207 	ubfx	r2, lr, #16, #8
 6a6:	f502 7280 	add.w	r2, r2, #256	@ 0x100
 6aa:	fa5f fe8e 	uxtb.w	lr, lr
 6ae:	f853 2022 	ldr.w	r2, [r3, r2, lsl #2]
 6b2:	ea81 0102 	eor.w	r1, r1, r2
 6b6:	f3c9 2207 	ubfx	r2, r9, #8, #8
 6ba:	f502 7200 	add.w	r2, r2, #512	@ 0x200
 6be:	f50e 7e40 	add.w	lr, lr, #768	@ 0x300
 6c2:	f853 2022 	ldr.w	r2, [r3, r2, lsl #2]
 6c6:	ea81 0102 	eor.w	r1, r1, r2
 6ca:	b2c2      	uxtb	r2, r0
 6cc:	f502 7240 	add.w	r2, r2, #768	@ 0x300
 6d0:	f3c0 2007 	ubfx	r0, r0, #8, #8
 6d4:	f853 2022 	ldr.w	r2, [r3, r2, lsl #2]
 6d8:	ea86 0602 	eor.w	r6, r6, r2
 6dc:	6fa2      	ldr	r2, [r4, #120]	@ 0x78
 6de:	ea86 0602 	eor.w	r6, r6, r2
 6e2:	f3c9 4207 	ubfx	r2, r9, #16, #8
 6e6:	f502 7280 	add.w	r2, r2, #256	@ 0x100
 6ea:	ea4f 6919 	mov.w	r9, r9, lsr #24
 6ee:	f853 2022 	ldr.w	r2, [r3, r2, lsl #2]
 6f2:	ea86 0602 	eor.w	r6, r6, r2
 6f6:	f3cc 2207 	ubfx	r2, ip, #8, #8
 6fa:	f502 7200 	add.w	r2, r2, #512	@ 0x200
 6fe:	f3cc 4c07 	ubfx	ip, ip, #16, #8
 702:	f853 2022 	ldr.w	r2, [r3, r2, lsl #2]
 706:	ea86 0602 	eor.w	r6, r6, r2
 70a:	f853 2029 	ldr.w	r2, [r3, r9, lsl #2]
 70e:	f853 902e 	ldr.w	r9, [r3, lr, lsl #2]
 712:	f50c 7c80 	add.w	ip, ip, #256	@ 0x100
 716:	ea82 0909 	eor.w	r9, r2, r9
 71a:	6fe2      	ldr	r2, [r4, #124]	@ 0x7c
 71c:	f500 7000 	add.w	r0, r0, #512	@ 0x200
 720:	ea89 0902 	eor.w	r9, r9, r2
 724:	f853 202c 	ldr.w	r2, [r3, ip, lsl #2]
 728:	ea89 0902 	eor.w	r9, r9, r2
 72c:	f853 2020 	ldr.w	r2, [r3, r0, lsl #2]
 730:	ea89 0902 	eor.w	r9, r9, r2
 734:	fa5f f089 	uxtb.w	r0, r9
 738:	ea4f 6215 	mov.w	r2, r5, lsr #24
 73c:	f500 7040 	add.w	r0, r0, #768	@ 0x300
 740:	f853 2022 	ldr.w	r2, [r3, r2, lsl #2]
 744:	f853 0020 	ldr.w	r0, [r3, r0, lsl #2]
 748:	ea82 0e00 	eor.w	lr, r2, r0
 74c:	f8d4 2080 	ldr.w	r2, [r4, #128]	@ 0x80
 750:	ea8e 0e02 	eor.w	lr, lr, r2
 754:	f3c1 4207 	ubfx	r2, r1, #16, #8
 758:	f502 7280 	add.w	r2, r2, #256	@ 0x100
 75c:	ea4f 6011 	mov.w	r0, r1, lsr #24
 760:	f853 2022 	ldr.w	r2, [r3, r2, lsl #2]
 764:	f853 0020 	ldr.w	r0, [r3, r0, lsl #2]
 768:	ea8e 0e02 	eor.w	lr, lr, r2
 76c:	f3c6 2207 	ubfx	r2, r6, #8, #8
 770:	f502 7200 	add.w	r2, r2, #512	@ 0x200
 774:	fa5f fc81 	uxtb.w	ip, r1
 778:	f853 2022 	ldr.w	r2, [r3, r2, lsl #2]
 77c:	ea8e 0e02 	eor.w	lr, lr, r2
 780:	b2ea      	uxtb	r2, r5
 782:	f502 7240 	add.w	r2, r2, #768	@ 0x300
 786:	f50c 7c40 	add.w	ip, ip, #768	@ 0x300
 78a:	f853 2022 	ldr.w	r2, [r3, r2, lsl #2]
 78e:	ea80 0002 	eor.w	r0, r0, r2
 792:	f8d4 2084 	ldr.w	r2, [r4, #132]	@ 0x84
 796:	ea80 0002 	eor.w	r0, r0, r2
 79a:	f3c6 4207 	ubfx	r2, r6, #16, #8
 79e:	f502 7280 	add.w	r2, r2, #256	@ 0x100
 7a2:	f3c1 2107 	ubfx	r1, r1, #8, #8
 7a6:	f853 2022 	ldr.w	r2, [r3, r2, lsl #2]
 7aa:	f853 c02c 	ldr.w	ip, [r3, ip, lsl #2]
 7ae:	ea80 0002 	eor.w	r0, r0, r2
 7b2:	f3c9 2207 	ubfx	r2, r9, #8, #8
 7b6:	f502 7200 	add.w	r2, r2, #512	@ 0x200
 7ba:	f501 7100 	add.w	r1, r1, #512	@ 0x200
 7be:	f853 2022 	ldr.w	r2, [r3, r2, lsl #2]
 7c2:	ea80 0002 	eor.w	r0, r0, r2
 7c6:	ea4f 6216 	mov.w	r2, r6, lsr #24
 7ca:	b2f6      	uxtb	r6, r6
 7cc:	f853 2022 	ldr.w	r2, [r3, r2, lsl #2]
 7d0:	ea82 0c0c 	eor.w	ip, r2, ip
 7d4:	f8d4 2088 	ldr.w	r2, [r4, #136]	@ 0x88
 7d8:	ea8c 0c02 	eor.w	ip, ip, r2
 7dc:	f3c9 4207 	ubfx	r2, r9, #16, #8
 7e0:	f502 7280 	add.w	r2, r2, #256	@ 0x100
 7e4:	ea4f 6919 	mov.w	r9, r9, lsr #24
 7e8:	f853 2022 	ldr.w	r2, [r3, r2, lsl #2]
 7ec:	ea8c 0c02 	eor.w	ip, ip, r2
 7f0:	f3c5 2207 	ubfx	r2, r5, #8, #8
 7f4:	f502 7200 	add.w	r2, r2, #512	@ 0x200
 7f8:	f506 7640 	add.w	r6, r6, #768	@ 0x300
 7fc:	f853 2022 	ldr.w	r2, [r3, r2, lsl #2]
 800:	f853 6026 	ldr.w	r6, [r3, r6, lsl #2]
 804:	ea8c 0c02 	eor.w	ip, ip, r2
 808:	f853 2029 	ldr.w	r2, [r3, r9, lsl #2]
 80c:	f3c5 4507 	ubfx	r5, r5, #16, #8
 810:	ea82 0906 	eor.w	r9, r2, r6
 814:	f505 7580 	add.w	r5, r5, #256	@ 0x100
 818:	f8d4 208c 	ldr.w	r2, [r4, #140]	@ 0x8c
 81c:	ea89 0902 	eor.w	r9, r9, r2
 820:	f853 2025 	ldr.w	r2, [r3, r5, lsl #2]
 824:	ea89 0902 	eor.w	r9, r9, r2
 828:	f853 2021 	ldr.w	r2, [r3, r1, lsl #2]
 82c:	ea89 0902 	eor.w	r9, r9, r2
 830:	fa5f f289 	uxtb.w	r2, r9
 834:	ea4f 611e 	mov.w	r1, lr, lsr #24
 838:	f502 7240 	add.w	r2, r2, #768	@ 0x300
 83c:	f853 1021 	ldr.w	r1, [r3, r1, lsl #2]
 840:	f853 2022 	ldr.w	r2, [r3, r2, lsl #2]
 844:	ea81 0102 	eor.w	r1, r1, r2
 848:	f8d4 2090 	ldr.w	r2, [r4, #144]	@ 0x90
 84c:	ea81 0102 	eor.w	r1, r1, r2
 850:	f3c0 4207 	ubfx	r2, r0, #16, #8
 854:	f502 7280 	add.w	r2, r2, #256	@ 0x100
 858:	ea4f 6510 	mov.w	r5, r0, lsr #24
 85c:	f853 2022 	ldr.w	r2, [r3, r2, lsl #2]
 860:	f853 5025 	ldr.w	r5, [r3, r5, lsl #2]
 864:	ea81 0102 	eor.w	r1, r1, r2
 868:	f3cc 2207 	ubfx	r2, ip, #8, #8
 86c:	f502 7200 	add.w	r2, r2, #512	@ 0x200
 870:	ea4f 661c 	mov.w	r6, ip, lsr #24
 874:	f853 2022 	ldr.w	r2, [r3, r2, lsl #2]
 878:	f853 6026 	ldr.w	r6, [r3, r6, lsl #2]
 87c:	ea81 0102 	eor.w	r1, r1, r2
 880:	fa5f f28e 	uxtb.w	r2, lr
 884:	f502 7240 	add.w	r2, r2, #768	@ 0x300
 888:	f853 2022 	ldr.w	r2, [r3, r2, lsl #2]
 88c:	ea85 0502 	eor.w	r5, r5, r2
 890:	f8d4 2094 	ldr.w	r2, [r4, #148]	@ 0x94
 894:	ea85 0502 	eor.w	r5, r5, r2
 898:	f3cc 4207 	ubfx	r2, ip, #16, #8
 89c:	f502 7280 	add.w	r2, r2, #256	@ 0x100
 8a0:	fa5f fc8c 	uxtb.w	ip, ip
 8a4:	f853 2022 	ldr.w	r2, [r3, r2, lsl #2]
 8a8:	ea85 0502 	eor.w	r5, r5, r2
 8ac:	f3c9 2207 	ubfx	r2, r9, #8, #8
 8b0:	f502 7200 	add.w	r2, r2, #512	@ 0x200
 8b4:	f50c 7c40 	add.w	ip, ip, #768	@ 0x300
 8b8:	f853 2022 	ldr.w	r2, [r3, r2, lsl #2]
 8bc:	f853 c02c 	ldr.w	ip, [r3, ip, lsl #2]
 8c0:	ea85 0502 	eor.w	r5, r5, r2
 8c4:	b2c2      	uxtb	r2, r0
 8c6:	f502 7240 	add.w	r2, r2, #768	@ 0x300
 8ca:	f3c0 2007 	ubfx	r0, r0, #8, #8
 8ce:	f853 2022 	ldr.w	r2, [r3, r2, lsl #2]
 8d2:	ea86 0602 	eor.w	r6, r6, r2
 8d6:	f8d4 2098 	ldr.w	r2, [r4, #152]	@ 0x98
 8da:	ea86 0602 	eor.w	r6, r6, r2
 8de:	f3c9 4207 	ubfx	r2, r9, #16, #8
 8e2:	f502 7280 	add.w	r2, r2, #256	@ 0x100
 8e6:	ea4f 6919 	mov.w	r9, r9, lsr #24
 8ea:	f853 2022 	ldr.w	r2, [r3, r2, lsl #2]
 8ee:	ea86 0602 	eor.w	r6, r6, r2
 8f2:	f3ce 2207 	ubfx	r2, lr, #8, #8
 8f6:	f502 7200 	add.w	r2, r2, #512	@ 0x200
 8fa:	f3ce 4e07 	ubfx	lr, lr, #16, #8
 8fe:	f853 2022 	ldr.w	r2, [r3, r2, lsl #2]
 902:	ea86 0602 	eor.w	r6, r6, r2
 906:	f853 2029 	ldr.w	r2, [r3, r9, lsl #2]
 90a:	f50e 7e80 	add.w	lr, lr, #256	@ 0x100
 90e:	ea82 0c0c 	eor.w	ip, r2, ip
 912:	f8d4 209c 	ldr.w	r2, [r4, #156]	@ 0x9c
 916:	f500 7000 	add.w	r0, r0, #512	@ 0x200
 91a:	ea8c 0c02 	eor.w	ip, ip, r2
 91e:	f853 202e 	ldr.w	r2, [r3, lr, lsl #2]
 922:	ea8c 0c02 	eor.w	ip, ip, r2
 926:	f853 2020 	ldr.w	r2, [r3, r0, lsl #2]
 92a:	ea8c 0c02 	eor.w	ip, ip, r2
 92e:	f240 81df 	bls.w	cf0 <wc_AesEncrypt+0xcf0>
 932:	fa5f f28c 	uxtb.w	r2, ip
 936:	0e08      	lsrs	r0, r1, #24
 938:	f502 7240 	add.w	r2, r2, #768	@ 0x300
 93c:	f853 0020 	ldr.w	r0, [r3, r0, lsl #2]
 940:	f853 2022 	ldr.w	r2, [r3, r2, lsl #2]
 944:	4050      	eors	r0, r2
 946:	f8d4 20a0 	ldr.w	r2, [r4, #160]	@ 0xa0
 94a:	4050      	eors	r0, r2
 94c:	f3c5 4207 	ubfx	r2, r5, #16, #8
 950:	f502 7280 	add.w	r2, r2, #256	@ 0x100
 954:	fa5f fe81 	uxtb.w	lr, r1
 958:	f853 2022 	ldr.w	r2, [r3, r2, lsl #2]
 95c:	4050      	eors	r0, r2
 95e:	f3c6 2207 	ubfx	r2, r6, #8, #8
 962:	f502 7200 	add.w	r2, r2, #512	@ 0x200
 966:	f50e 7e40 	add.w	lr, lr, #768	@ 0x300
 96a:	f853 2022 	ldr.w	r2, [r3, r2, lsl #2]
 96e:	f853 e02e 	ldr.w	lr, [r3, lr, lsl #2]
 972:	4050      	eors	r0, r2
 974:	0e2a      	lsrs	r2, r5, #24
 976:	fa5f f985 	uxtb.w	r9, r5
 97a:	f853 2022 	ldr.w	r2, [r3, r2, lsl #2]
 97e:	ea82 0e0e 	eor.w	lr, r2, lr
 982:	f8d4 20a4 	ldr.w	r2, [r4, #164]	@ 0xa4
 986:	ea8e 0e02 	eor.w	lr, lr, r2
 98a:	f3c6 4207 	ubfx	r2, r6, #16, #8
 98e:	f502 7280 	add.w	r2, r2, #256	@ 0x100
 992:	f509 7940 	add.w	r9, r9, #768	@ 0x300
 996:	f853 2022 	ldr.w	r2, [r3, r2, lsl #2]
 99a:	f853 9029 	ldr.w	r9, [r3, r9, lsl #2]
 99e:	ea8e 0e02 	eor.w	lr, lr, r2
 9a2:	f3cc 2207 	ubfx	r2, ip, #8, #8
 9a6:	f502 7200 	add.w	r2, r2, #512	@ 0x200
 9aa:	f3c5 2507 	ubfx	r5, r5, #8, #8
 9ae:	f853 2022 	ldr.w	r2, [r3, r2, lsl #2]
 9b2:	ea8e 0e02 	eor.w	lr, lr, r2
 9b6:	0e32      	lsrs	r2, r6, #24
 9b8:	b2f6      	uxtb	r6, r6
 9ba:	f853 2022 	ldr.w	r2, [r3, r2, lsl #2]
 9be:	ea82 0909 	eor.w	r9, r2, r9
 9c2:	f8d4 20a8 	ldr.w	r2, [r4, #168]	@ 0xa8
 9c6:	ea89 0902 	eor.w	r9, r9, r2
 9ca:	f3cc 4207 	ubfx	r2, ip, #16, #8
 9ce:	f502 7280 	add.w	r2, r2, #256	@ 0x100
 9d2:	ea4f 6c1c 	mov.w	ip, ip, lsr #24
 9d6:	f853 2022 	ldr.w	r2, [r3, r2, lsl #2]
 9da:	ea89 0902 	eor.w	r9, r9, r2
 9de:	f3c1 2207 	ubfx	r2, r1, #8, #8
 9e2:	f502 7200 	add.w	r2, r2, #512	@ 0x200
 9e6:	f506 7640 	add.w	r6, r6, #768	@ 0x300
 9ea:	f853 2022 	ldr.w	r2, [r3, r2, lsl #2]
 9ee:	f853 6026 	ldr.w	r6, [r3, r6, lsl #2]
 9f2:	ea89 0902 	eor.w	r9, r9, r2
 9f6:	f853 202c 	ldr.w	r2, [r3, ip, lsl #2]
 9fa:	f3c1 4107 	ubfx	r1, r1, #16, #8
 9fe:	ea82 0c06 	eor.w	ip, r2, r6
 a02:	f501 7180 	add.w	r1, r1, #256	@ 0x100
 a06:	f8d4 20ac 	ldr.w	r2, [r4, #172]	@ 0xac
 a0a:	f505 7500 	add.w	r5, r5, #512	@ 0x200
 a0e:	ea8c 0c02 	eor.w	ip, ip, r2
 a12:	f853 2021 	ldr.w	r2, [r3, r1, lsl #2]
 a16:	ea8c 0c02 	eor.w	ip, ip, r2
 a1a:	f853 2025 	ldr.w	r2, [r3, r5, lsl #2]
 a1e:	ea8c 0c02 	eor.w	ip, ip, r2
 a22:	fa5f f28c 	uxtb.w	r2, ip
 a26:	0e01      	lsrs	r1, r0, #24
 a28:	f502 7240 	add.w	r2, r2, #768	@ 0x300
 a2c:	f853 1021 	ldr.w	r1, [r3, r1, lsl #2]
 a30:	f853 2022 	ldr.w	r2, [r3, r2, lsl #2]
 a34:	4051      	eors	r1, r2
 a36:	f8d4 20b0 	ldr.w	r2, [r4, #176]	@ 0xb0
 a3a:	4051      	eors	r1, r2
 a3c:	f3ce 4207 	ubfx	r2, lr, #16, #8
 a40:	f502 7280 	add.w	r2, r2, #256	@ 0x100
 a44:	ea4f 651e 	mov.w	r5, lr, lsr #24
 a48:	f853 2022 	ldr.w	r2, [r3, r2, lsl #2]
 a4c:	f853 5025 	ldr.w	r5, [r3, r5, lsl #2]
 a50:	4051      	eors	r1, r2
 a52:	f3c9 2207 	ubfx	r2, r9, #8, #8
 a56:	f502 7200 	add.w	r2, r2, #512	@ 0x200
 a5a:	ea4f 6619 	mov.w	r6, r9, lsr #24
 a5e:	f853 2022 	ldr.w	r2, [r3, r2, lsl #2]
 a62:	f853 6026 	ldr.w	r6, [r3, r6, lsl #2]
 a66:	4051      	eors	r1, r2
 a68:	b2c2      	uxtb	r2, r0
 a6a:	f502 7240 	add.w	r2, r2, #768	@ 0x300
 a6e:	2f06      	cmp	r7, #6
 a70:	f853 2022 	ldr.w	r2, [r3, r2, lsl #2]
 a74:	ea85 0502 	eor.w	r5, r5, r2
 a78:	f8d4 20b4 	ldr.w	r2, [r4, #180]	@ 0xb4
 a7c:	ea85 0502 	eor.w	r5, r5, r2
 a80:	f3c9 4207 	ubfx	r2, r9, #16, #8
 a84:	f502 7280 	add.w	r2, r2, #256	@ 0x100
 a88:	fa5f f989 	uxtb.w	r9, r9
 a8c:	f853 2022 	ldr.w	r2, [r3, r2, lsl #2]
 a90:	ea85 0502 	eor.w	r5, r5, r2
 a94:	f3cc 2207 	ubfx	r2, ip, #8, #8
 a98:	f502 7200 	add.w	r2, r2, #512	@ 0x200
 a9c:	f509 7940 	add.w	r9, r9, #768	@ 0x300
 aa0:	f853 2022 	ldr.w	r2, [r3, r2, lsl #2]
 aa4:	ea85 0502 	eor.w	r5, r5, r2
 aa8:	fa5f f28e 	uxtb.w	r2, lr
 aac:	f502 7240 	add.w	r2, r2, #768	@ 0x300
 ab0:	f3ce 2e07 	ubfx	lr, lr, #8, #8
 ab4:	f853 2022 	ldr.w	r2, [r3, r2, lsl #2]
 ab8:	ea86 0602 	eor.w	r6, r6, r2
 abc:	f8d4 20b8 	ldr.w	r2, [r4, #184]	@ 0xb8
 ac0:	ea86 0602 	eor.w	r6, r6, r2
 ac4:	f3cc 4207 	ubfx	r2, ip, #16, #8
 ac8:	f502 7280 	add.w	r2, r2, #256	@ 0x100
 acc:	ea4f 6c1c 	mov.w	ip, ip, lsr #24
 ad0:	f853 2022 	ldr.w	r2, [r3, r2, lsl #2]
 ad4:	ea86 0602 	eor.w	r6, r6, r2
 ad8:	f3c0 2207 	ubfx	r2, r0, #8, #8
 adc:	f502 7200 	add.w	r2, r2, #512	@ 0x200
 ae0:	f3c0 4007 	ubfx	r0, r0, #16, #8
 ae4:	f853 2022 	ldr.w	r2, [r3, r2, lsl #2]
 ae8:	ea86 0602 	eor.w	r6, r6, r2
 aec:	f853 202c 	ldr.w	r2, [r3, ip, lsl #2]
 af0:	f853 c029 	ldr.w	ip, [r3, r9, lsl #2]
 af4:	f500 7080 	add.w	r0, r0, #256	@ 0x100
 af8:	ea82 0c0c 	eor.w	ip, r2, ip
 afc:	f8d4 20bc 	ldr.w	r2, [r4, #188]	@ 0xbc
 b00:	f50e 7e00 	add.w	lr, lr, #512	@ 0x200
 b04:	ea8c 0c02 	eor.w	ip, ip, r2
 b08:	f853 2020 	ldr.w	r2, [r3, r0, lsl #2]
 b0c:	ea8c 0c02 	eor.w	ip, ip, r2
 b10:	f853 202e 	ldr.w	r2, [r3, lr, lsl #2]
 b14:	ea8c 0c02 	eor.w	ip, ip, r2
 b18:	f000 80ea 	beq.w	cf0 <wc_AesEncrypt+0xcf0>
 b1c:	fa5f f28c 	uxtb.w	r2, ip
 b20:	0e08      	lsrs	r0, r1, #24
 b22:	f502 7240 	add.w	r2, r2, #768	@ 0x300
 b26:	f853 0020 	ldr.w	r0, [r3, r0, lsl #2]
 b2a:	f853 2022 	ldr.w	r2, [r3, r2, lsl #2]
 b2e:	4050      	eors	r0, r2
 b30:	f8d4 20c0 	ldr.w	r2, [r4, #192]	@ 0xc0
 b34:	4050      	eors	r0, r2
 b36:	f3c5 4207 	ubfx	r2, r5, #16, #8
 b3a:	f502 7280 	add.w	r2, r2, #256	@ 0x100
 b3e:	fa5f fe81 	uxtb.w	lr, r1
 b42:	f853 2022 	ldr.w	r2, [r3, r2, lsl #2]
 b46:	4050      	eors	r0, r2
 b48:	f3c6 2207 	ubfx	r2, r6, #8, #8
 b4c:	f502 7200 	add.w	r2, r2, #512	@ 0x200
 b50:	f50e 7e40 	add.w	lr, lr, #768	@ 0x300
 b54:	f853 2022 	ldr.w	r2, [r3, r2, lsl #2]
 b58:	f853 e02e 	ldr.w	lr, [r3, lr, lsl #2]
 b5c:	4050      	eors	r0, r2
 b5e:	0e2a      	lsrs	r2, r5, #24
 b60:	fa5f f985 	uxtb.w	r9, r5
 b64:	f853 2022 	ldr.w	r2, [r3, r2, lsl #2]
 b68:	ea82 0e0e 	eor.w	lr, r2, lr
 b6c:	f8d4 20c4 	ldr.w	r2, [r4, #196]	@ 0xc4
 b70:	ea8e 0e02 	eor.w	lr, lr, r2
 b74:	f3c6 4207 	ubfx	r2, r6, #16, #8
 b78:	f502 7280 	add.w	r2, r2, #256	@ 0x100
 b7c:	f509 7940 	add.w	r9, r9, #768	@ 0x300
 b80:	f853 2022 	ldr.w	r2, [r3, r2, lsl #2]
 b84:	f853 9029 	ldr.w	r9, [r3, r9, lsl #2]
 b88:	ea8e 0e02 	eor.w	lr, lr, r2
 b8c:	f3cc 2207 	ubfx	r2, ip, #8, #8
 b90:	f502 7200 	add.w	r2, r2, #512	@ 0x200
 b94:	f3c5 2507 	ubfx	r5, r5, #8, #8
 b98:	f853 2022 	ldr.w	r2, [r3, r2, lsl #2]
 b9c:	ea8e 0e02 	eor.w	lr, lr, r2
 ba0:	0e32      	lsrs	r2, r6, #24
 ba2:	b2f6      	uxtb	r6, r6
 ba4:	f853 2022 	ldr.w	r2, [r3, r2, lsl #2]
 ba8:	ea82 0909 	eor.w	r9, r2, r9
 bac:	f8d4 20c8 	ldr.w	r2, [r4, #200]	@ 0xc8
 bb0:	ea89 0902 	eor.w	r9, r9, r2
 bb4:	f3cc 4207 	ubfx	r2, ip, #16, #8
 bb8:	f502 7280 	add.w	r2, r2, #256	@ 0x100
 bbc:	ea4f 6c1c 	mov.w	ip, ip, lsr #24
 bc0:	f853 2022 	ldr.w	r2, [r3, r2, lsl #2]
 bc4:	ea89 0902 	eor.w	r9, r9, r2
 bc8:	f3c1 2207 	ubfx	r2, r1, #8, #8
 bcc:	f502 7200 	add.w	r2, r2, #512	@ 0x200
 bd0:	f506 7640 	add.w	r6, r6, #768	@ 0x300
 bd4:	f853 2022 	ldr.w	r2, [r3, r2, lsl #2]
 bd8:	f853 6026 	ldr.w	r6, [r3, r6, lsl #2]
 bdc:	ea89 0902 	eor.w	r9, r9, r2
 be0:	f853 202c 	ldr.w	r2, [r3, ip, lsl #2]
 be4:	f3c1 4107 	ubfx	r1, r1, #16, #8
 be8:	ea82 0c06 	eor.w	ip, r2, r6
 bec:	f501 7180 	add.w	r1, r1, #256	@ 0x100
 bf0:	f8d4 20cc 	ldr.w	r2, [r4, #204]	@ 0xcc
 bf4:	f505 7500 	add.w	r5, r5, #512	@ 0x200
 bf8:	ea8c 0c02 	eor.w	ip, ip, r2
 bfc:	f853 2021 	ldr.w	r2, [r3, r1, lsl #2]
 c00:	ea8c 0c02 	eor.w	ip, ip, r2
 c04:	f853 2025 	ldr.w	r2, [r3, r5, lsl #2]
 c08:	ea8c 0c02 	eor.w	ip, ip, r2
 c0c:	fa5f f28c 	uxtb.w	r2, ip
 c10:	0e01      	lsrs	r1, r0, #24
 c12:	f502 7240 	add.w	r2, r2, #768	@ 0x300
 c16:	f853 1021 	ldr.w	r1, [r3, r1, lsl #2]
 c1a:	f853 2022 	ldr.w	r2, [r3, r2, lsl #2]
 c1e:	4051      	eors	r1, r2
 c20:	f8d4 20d0 	ldr.w	r2, [r4, #208]	@ 0xd0
 c24:	4051      	eors	r1, r2
 c26:	f3ce 4207 	ubfx	r2, lr, #16, #8
 c2a:	f502 7280 	add.w	r2, r2, #256	@ 0x100
 c2e:	ea4f 651e 	mov.w	r5, lr, lsr #24
 c32:	f853 2022 	ldr.w	r2, [r3, r2, lsl #2]
 c36:	f853 5025 	ldr.w	r5, [r3, r5, lsl #2]
 c3a:	4051      	eors	r1, r2
 c3c:	f3c9 2207 	ubfx	r2, r9, #8, #8
 c40:	f502 7200 	add.w	r2, r2, #512	@ 0x200
 c44:	ea4f 6619 	mov.w	r6, r9, lsr #24
 c48:	f853 2022 	ldr.w	r2, [r3, r2, lsl #2]
 c4c:	f853 6026 	ldr.w	r6, [r3, r6, lsl #2]
 c50:	4051      	eors	r1, r2
 c52:	b2c2      	uxtb	r2, r0
 c54:	f502 7240 	add.w	r2, r2, #768	@ 0x300
 c58:	f853 2022 	ldr.w	r2, [r3, r2, lsl #2]
 c5c:	4055      	eors	r5, r2
 c5e:	f8d4 20d4 	ldr.w	r2, [r4, #212]	@ 0xd4
 c62:	4055      	eors	r5, r2
 c64:	f3c9 4207 	ubfx	r2, r9, #16, #8
 c68:	f502 7280 	add.w	r2, r2, #256	@ 0x100
 c6c:	fa5f f989 	uxtb.w	r9, r9
 c70:	f853 2022 	ldr.w	r2, [r3, r2, lsl #2]
 c74:	4055      	eors	r5, r2
 c76:	f3cc 2207 	ubfx	r2, ip, #8, #8
 c7a:	f502 7200 	add.w	r2, r2, #512	@ 0x200
 c7e:	f509 7940 	add.w	r9, r9, #768	@ 0x300
 c82:	f853 2022 	ldr.w	r2, [r3, r2, lsl #2]
 c86:	4055      	eors	r5, r2
 c88:	fa5f f28e 	uxtb.w	r2, lr
 c8c:	f502 7240 	add.w	r2, r2, #768	@ 0x300
 c90:	f3ce 2e07 	ubfx	lr, lr, #8, #8
 c94:	f853 2022 	ldr.w	r2, [r3, r2, lsl #2]
 c98:	4056      	eors	r6, r2
 c9a:	f8d4 20d8 	ldr.w	r2, [r4, #216]	@ 0xd8
 c9e:	4056      	eors	r6, r2
 ca0:	f3cc 4207 	ubfx	r2, ip, #16, #8
 ca4:	f502 7280 	add.w	r2, r2, #256	@ 0x100
 ca8:	ea4f 6c1c 	mov.w	ip, ip, lsr #24
 cac:	f853 2022 	ldr.w	r2, [r3, r2, lsl #2]
 cb0:	4056      	eors	r6, r2
 cb2:	f3c0 2207 	ubfx	r2, r0, #8, #8
 cb6:	f502 7200 	add.w	r2, r2, #512	@ 0x200
 cba:	f3c0 4007 	ubfx	r0, r0, #16, #8
 cbe:	f853 2022 	ldr.w	r2, [r3, r2, lsl #2]
 cc2:	4056      	eors	r6, r2
 cc4:	f853 202c 	ldr.w	r2, [r3, ip, lsl #2]
 cc8:	f853 c029 	ldr.w	ip, [r3, r9, lsl #2]
 ccc:	f500 7080 	add.w	r0, r0, #256	@ 0x100
 cd0:	ea82 0c0c 	eor.w	ip, r2, ip
 cd4:	f8d4 20dc 	ldr.w	r2, [r4, #220]	@ 0xdc
 cd8:	f50e 7e00 	add.w	lr, lr, #512	@ 0x200
 cdc:	ea8c 0c02 	eor.w	ip, ip, r2
 ce0:	f853 2020 	ldr.w	r2, [r3, r0, lsl #2]
 ce4:	ea8c 0c02 	eor.w	ip, ip, r2
 ce8:	f853 202e 	ldr.w	r2, [r3, lr, lsl #2]
 cec:	ea8c 0c02 	eor.w	ip, ip, r2
 cf0:	b2ca      	uxtb	r2, r1
 cf2:	0178      	lsls	r0, r7, #5
 cf4:	f502 7280 	add.w	r2, r2, #256	@ 0x100
 cf8:	eb04 1747 	add.w	r7, r4, r7, lsl #5
 cfc:	f813 9022 	ldrb.w	r9, [r3, r2, lsl #2]
 d00:	687a      	ldr	r2, [r7, #4]
 d02:	5820      	ldr	r0, [r4, r0]
 d04:	ea89 0902 	eor.w	r9, r9, r2
 d08:	f3cc 2207 	ubfx	r2, ip, #8, #8
 d0c:	ea4f 6e15 	mov.w	lr, r5, lsr #24
 d10:	f853 2022 	ldr.w	r2, [r3, r2, lsl #2]
 d14:	f402 427f 	and.w	r2, r2, #65280	@ 0xff00
 d18:	ea89 0902 	eor.w	r9, r9, r2
 d1c:	f3c6 4207 	ubfx	r2, r6, #16, #8
 d20:	f502 7240 	add.w	r2, r2, #768	@ 0x300
 d24:	f50e 7e00 	add.w	lr, lr, #512	@ 0x200
 d28:	f853 2022 	ldr.w	r2, [r3, r2, lsl #2]
 d2c:	f853 e02e 	ldr.w	lr, [r3, lr, lsl #2]
 d30:	f402 027f 	and.w	r2, r2, #16711680	@ 0xff0000
 d34:	f00e 4e7f 	and.w	lr, lr, #4278190080	@ 0xff000000
 d38:	ea42 020e 	orr.w	r2, r2, lr
 d3c:	ea89 0902 	eor.w	r9, r9, r2
 d40:	b2ea      	uxtb	r2, r5
 d42:	f502 7280 	add.w	r2, r2, #256	@ 0x100
 d46:	ea4f 6e16 	mov.w	lr, r6, lsr #24
 d4a:	f813 a022 	ldrb.w	sl, [r3, r2, lsl #2]
 d4e:	68ba      	ldr	r2, [r7, #8]
 d50:	68ff      	ldr	r7, [r7, #12]
 d52:	ea8a 0a02 	eor.w	sl, sl, r2
 d56:	f3c1 2207 	ubfx	r2, r1, #8, #8
 d5a:	f50e 7e00 	add.w	lr, lr, #512	@ 0x200
 d5e:	f853 2022 	ldr.w	r2, [r3, r2, lsl #2]
 d62:	f853 e02e 	ldr.w	lr, [r3, lr, lsl #2]
 d66:	f402 427f 	and.w	r2, r2, #65280	@ 0xff00
 d6a:	ea8a 0a02 	eor.w	sl, sl, r2
 d6e:	f3cc 4207 	ubfx	r2, ip, #16, #8
 d72:	f502 7240 	add.w	r2, r2, #768	@ 0x300
 d76:	f00e 4e7f 	and.w	lr, lr, #4278190080	@ 0xff000000
 d7a:	f853 2022 	ldr.w	r2, [r3, r2, lsl #2]
 d7e:	f402 027f 	and.w	r2, r2, #16711680	@ 0xff0000
 d82:	ea42 020e 	orr.w	r2, r2, lr
 d86:	ea8a 0a02 	eor.w	sl, sl, r2
 d8a:	b2f2      	uxtb	r2, r6
 d8c:	f502 7280 	add.w	r2, r2, #256	@ 0x100
 d90:	ea4f 6e1c 	mov.w	lr, ip, lsr #24
 d94:	f813 2022 	ldrb.w	r2, [r3, r2, lsl #2]
 d98:	407a      	eors	r2, r7
 d9a:	f3c5 2707 	ubfx	r7, r5, #8, #8
 d9e:	f50e 7e00 	add.w	lr, lr, #512	@ 0x200
 da2:	f853 7027 	ldr.w	r7, [r3, r7, lsl #2]
 da6:	f853 e02e 	ldr.w	lr, [r3, lr, lsl #2]
 daa:	f407 477f 	and.w	r7, r7, #65280	@ 0xff00
 dae:	407a      	eors	r2, r7
 db0:	f3c1 4707 	ubfx	r7, r1, #16, #8
 db4:	f507 7740 	add.w	r7, r7, #768	@ 0x300
 db8:	fa5f fc8c 	uxtb.w	ip, ip
 dbc:	f853 7027 	ldr.w	r7, [r3, r7, lsl #2]
 dc0:	f00e 4e7f 	and.w	lr, lr, #4278190080	@ 0xff000000
 dc4:	f50c 7c80 	add.w	ip, ip, #256	@ 0x100
 dc8:	f407 077f 	and.w	r7, r7, #16711680	@ 0xff0000
 dcc:	f3c6 2607 	ubfx	r6, r6, #8, #8
 dd0:	ea47 070e 	orr.w	r7, r7, lr
 dd4:	f853 4026 	ldr.w	r4, [r3, r6, lsl #2]
 dd8:	407a      	eors	r2, r7
 dda:	f3c5 4507 	ubfx	r5, r5, #16, #8
 dde:	f813 702c 	ldrb.w	r7, [r3, ip, lsl #2]
 de2:	0e09      	lsrs	r1, r1, #24
 de4:	f501 7100 	add.w	r1, r1, #512	@ 0x200
 de8:	f505 7540 	add.w	r5, r5, #768	@ 0x300
 dec:	f404 447f 	and.w	r4, r4, #65280	@ 0xff00
 df0:	4078      	eors	r0, r7
 df2:	4060      	eors	r0, r4
 df4:	f853 4025 	ldr.w	r4, [r3, r5, lsl #2]
 df8:	f853 3021 	ldr.w	r3, [r3, r1, lsl #2]
 dfc:	f404 047f 	and.w	r4, r4, #16711680	@ 0xff0000
 e00:	f003 437f 	and.w	r3, r3, #4278190080	@ 0xff000000
 e04:	4323      	orrs	r3, r4
 e06:	4058      	eors	r0, r3
 e08:	f7ff fffe 	bl	0 <wc_AesEncrypt>
 e0c:	9000      	str	r0, [sp, #0]
 e0e:	4648      	mov	r0, r9
 e10:	f7ff fffe 	bl	0 <wc_AesEncrypt>
 e14:	9001      	str	r0, [sp, #4]
 e16:	4650      	mov	r0, sl
 e18:	f7ff fffe 	bl	0 <wc_AesEncrypt>
 e1c:	9002      	str	r0, [sp, #8]
 e1e:	4610      	mov	r0, r2
 e20:	f7ff fffe 	bl	0 <wc_AesEncrypt>
 e24:	2204      	movs	r2, #4
 e26:	9003      	str	r0, [sp, #12]
 e28:	4669      	mov	r1, sp
 e2a:	4640      	mov	r0, r8
 e2c:	f7ff fffe 	bl	0 <memcpy>
 e30:	2204      	movs	r2, #4
 e32:	eb0d 0102 	add.w	r1, sp, r2
 e36:	eb08 0002 	add.w	r0, r8, r2
 e3a:	f7ff fffe 	bl	0 <memcpy>
 e3e:	2204      	movs	r2, #4
 e40:	a902      	add	r1, sp, #8
 e42:	f108 0008 	add.w	r0, r8, #8
 e46:	f7ff fffe 	bl	0 <memcpy>
 e4a:	2204      	movs	r2, #4
 e4c:	a903      	add	r1, sp, #12
 e4e:	f108 000c 	add.w	r0, r8, #12
 e52:	f7ff fffe 	bl	0 <memcpy>
 e56:	2000      	movs	r0, #0
 e58:	b004      	add	sp, #16
 e5a:	e8bd 87f0 	ldmia.w	sp!, {r4, r5, r6, r7, r8, r9, sl, pc}
 e5e:	f06f 00ac 	mvn.w	r0, #172	@ 0xac
 e62:	e7f9      	b.n	e58 <wc_AesEncrypt+0xe58>
 e64:	f06f 00e1 	mvn.w	r0, #225	@ 0xe1
 e68:	e7f6      	b.n	e58 <wc_AesEncrypt+0xe58>
 e6a:	bf00      	nop

Disassembly of section .text.GMULT:

00000000 <GMULT>:
   0:	e92d 41f0 	stmdb	sp!, {r4, r5, r6, r7, r8, lr}
   4:	b088      	sub	sp, #32
   6:	460c      	mov	r4, r1
   8:	4606      	mov	r6, r0
   a:	2210      	movs	r2, #16
   c:	2100      	movs	r1, #0
   e:	4668      	mov	r0, sp
  10:	f7ff fffe 	bl	0 <memset>
  14:	2210      	movs	r2, #16
  16:	4631      	mov	r1, r6
  18:	eb0d 0002 	add.w	r0, sp, r2
  1c:	f7ff fffe 	bl	0 <memcpy>
  20:	1e67      	subs	r7, r4, #1
  22:	340f      	adds	r4, #15
  24:	f817 5f01 	ldrb.w	r5, [r7, #1]!
  28:	f04f 0808 	mov.w	r8, #8
  2c:	062b      	lsls	r3, r5, #24
  2e:	d505      	bpl.n	3c <GMULT+0x3c>
  30:	2210      	movs	r2, #16
  32:	eb0d 0102 	add.w	r1, sp, r2
  36:	4668      	mov	r0, sp
  38:	f7ff fffe 	bl	0 <GMULT>
  3c:	f89d 301f 	ldrb.w	r3, [sp, #31]
  40:	f003 0301 	and.w	r3, r3, #1
  44:	eba3 1343 	sub.w	r3, r3, r3, lsl #5
  48:	2100      	movs	r1, #0
  4a:	b2db      	uxtb	r3, r3
  4c:	a804      	add	r0, sp, #16
  4e:	460a      	mov	r2, r1
  50:	f890 e000 	ldrb.w	lr, [r0]
  54:	468c      	mov	ip, r1
  56:	3201      	adds	r2, #1
  58:	ea4f 11ce 	mov.w	r1, lr, lsl #7
  5c:	ea4c 0c5e 	orr.w	ip, ip, lr, lsr #1
  60:	2a10      	cmp	r2, #16
  62:	f800 cb01 	strb.w	ip, [r0], #1
  66:	b2c9      	uxtb	r1, r1
  68:	d1f2      	bne.n	50 <GMULT+0x50>
  6a:	f89d 1010 	ldrb.w	r1, [sp, #16]
  6e:	006d      	lsls	r5, r5, #1
  70:	404b      	eors	r3, r1
  72:	f1b8 0801 	subs.w	r8, r8, #1
  76:	f88d 3010 	strb.w	r3, [sp, #16]
  7a:	b2ed      	uxtb	r5, r5
  7c:	d1d6      	bne.n	2c <GMULT+0x2c>
  7e:	42bc      	cmp	r4, r7
  80:	d1d0      	bne.n	24 <GMULT+0x24>
  82:	4669      	mov	r1, sp
  84:	4630      	mov	r0, r6
  86:	f7ff fffe 	bl	0 <memcpy>
  8a:	b008      	add	sp, #32
  8c:	e8bd 81f0 	ldmia.w	sp!, {r4, r5, r6, r7, r8, pc}

Disassembly of section .text.wc_AesSetIV:

00000000 <wc_AesSetIV>:
   0:	b508      	push	{r3, lr}
   2:	b148      	cbz	r0, 18 <wc_AesSetIV+0x18>
   4:	30f8      	adds	r0, #248	@ 0xf8
   6:	2210      	movs	r2, #16
   8:	b119      	cbz	r1, 12 <wc_AesSetIV+0x12>
   a:	f7ff fffe 	bl	0 <memcpy>
   e:	2000      	movs	r0, #0
  10:	bd08      	pop	{r3, pc}
  12:	f7ff fffe 	bl	0 <memset>
  16:	e7fa      	b.n	e <wc_AesSetIV+0xe>
  18:	f06f 00ac 	mvn.w	r0, #172	@ 0xac
  1c:	e7f8      	b.n	10 <wc_AesSetIV+0x10>

Disassembly of section .text.wc_AesSetKey:

00000000 <wc_AesSetKey>:
   0:	e92d 47f3 	stmdb	sp!, {r0, r1, r4, r5, r6, r7, r8, r9, sl, lr}
   4:	f8dd 8028 	ldr.w	r8, [sp, #40]	@ 0x28
   8:	460d      	mov	r5, r1
   a:	4691      	mov	r9, r2
   c:	469a      	mov	sl, r3
   e:	4606      	mov	r6, r0
  10:	2800      	cmp	r0, #0
  12:	f000 8222 	beq.w	45a <wc_AesSetKey+0x45a>
  16:	2af0      	cmp	r2, #240	@ 0xf0
  18:	f200 821f 	bhi.w	45a <wc_AesSetKey+0x45a>
  1c:	3a10      	subs	r2, #16
  1e:	2a10      	cmp	r2, #16
  20:	f200 821b 	bhi.w	45a <wc_AesSetKey+0x45a>
  24:	4bb1      	ldr	r3, [pc, #708]	@ (2ec <wc_AesSetKey+0x2ec>)
  26:	40d3      	lsrs	r3, r2
  28:	07db      	lsls	r3, r3, #31
  2a:	f140 8216 	bpl.w	45a <wc_AesSetKey+0x45a>
  2e:	ea4f 0399 	mov.w	r3, r9, lsr #2
  32:	3306      	adds	r3, #6
  34:	f8c0 90f4 	str.w	r9, [r0, #244]	@ 0xf4
  38:	f8c0 30f0 	str.w	r3, [r0, #240]	@ 0xf0
  3c:	4651      	mov	r1, sl
  3e:	f7ff fffe 	bl	0 <wc_AesSetKey>
  42:	2800      	cmp	r0, #0
  44:	f040 820b 	bne.w	45e <wc_AesSetKey+0x45e>
  48:	4629      	mov	r1, r5
  4a:	464a      	mov	r2, r9
  4c:	4630      	mov	r0, r6
  4e:	f7ff fffe 	bl	0 <memcpy>
  52:	464a      	mov	r2, r9
  54:	4631      	mov	r1, r6
  56:	4630      	mov	r0, r6
  58:	f7ff fffe 	bl	0 <wc_AesSetKey>
  5c:	4629      	mov	r1, r5
  5e:	464a      	mov	r2, r9
  60:	4630      	mov	r0, r6
  62:	f7ff fffe 	bl	0 <memcpy>
  66:	464a      	mov	r2, r9
  68:	4631      	mov	r1, r6
  6a:	4630      	mov	r0, r6
  6c:	f7ff fffe 	bl	0 <wc_AesSetKey>
  70:	f1b9 0f18 	cmp.w	r9, #24
  74:	4d9e      	ldr	r5, [pc, #632]	@ (2f0 <wc_AesSetKey+0x2f0>)
  76:	4634      	mov	r4, r6
  78:	d071      	beq.n	15e <wc_AesSetKey+0x15e>
  7a:	f1b9 0f20 	cmp.w	r9, #32
  7e:	f040 80b0 	bne.w	1e2 <wc_AesSetKey+0x1e2>
  82:	4b9c      	ldr	r3, [pc, #624]	@ (2f4 <wc_AesSetKey+0x2f4>)
  84:	f106 00c0 	add.w	r0, r6, #192	@ 0xc0
  88:	69e2      	ldr	r2, [r4, #28]
  8a:	f853 eb04 	ldr.w	lr, [r3], #4
  8e:	6867      	ldr	r7, [r4, #4]
  90:	b2d1      	uxtb	r1, r2
  92:	4284      	cmp	r4, r0
  94:	f855 1021 	ldr.w	r1, [r5, r1, lsl #2]
  98:	f401 4c7f 	and.w	ip, r1, #65280	@ 0xff00
  9c:	6821      	ldr	r1, [r4, #0]
  9e:	ea8e 0101 	eor.w	r1, lr, r1
  a2:	ea8c 0c01 	eor.w	ip, ip, r1
  a6:	ea4f 6112 	mov.w	r1, r2, lsr #24
  aa:	f501 7180 	add.w	r1, r1, #256	@ 0x100
  ae:	f815 1021 	ldrb.w	r1, [r5, r1, lsl #2]
  b2:	ea8c 0c01 	eor.w	ip, ip, r1
  b6:	f3c2 4107 	ubfx	r1, r2, #16, #8
  ba:	f501 7100 	add.w	r1, r1, #512	@ 0x200
  be:	f855 1021 	ldr.w	r1, [r5, r1, lsl #2]
  c2:	f001 417f 	and.w	r1, r1, #4278190080	@ 0xff000000
  c6:	ea8c 0c01 	eor.w	ip, ip, r1
  ca:	f3c2 2107 	ubfx	r1, r2, #8, #8
  ce:	f501 7140 	add.w	r1, r1, #768	@ 0x300
  d2:	f855 1021 	ldr.w	r1, [r5, r1, lsl #2]
  d6:	f401 017f 	and.w	r1, r1, #16711680	@ 0xff0000
  da:	ea8c 0101 	eor.w	r1, ip, r1
  de:	6221      	str	r1, [r4, #32]
  e0:	ea81 0107 	eor.w	r1, r1, r7
  e4:	68a7      	ldr	r7, [r4, #8]
  e6:	6261      	str	r1, [r4, #36]	@ 0x24
  e8:	ea81 0107 	eor.w	r1, r1, r7
  ec:	68e7      	ldr	r7, [r4, #12]
  ee:	62a1      	str	r1, [r4, #40]	@ 0x28
  f0:	ea81 0c07 	eor.w	ip, r1, r7
  f4:	f8c4 c02c 	str.w	ip, [r4, #44]	@ 0x2c
  f8:	f000 80aa 	beq.w	250 <wc_AesSetKey+0x250>
  fc:	f3cc 4107 	ubfx	r1, ip, #16, #8
 100:	f3cc 2e07 	ubfx	lr, ip, #8, #8
 104:	f501 7140 	add.w	r1, r1, #768	@ 0x300
 108:	f855 e02e 	ldr.w	lr, [r5, lr, lsl #2]
 10c:	f855 1021 	ldr.w	r1, [r5, r1, lsl #2]
 110:	6967      	ldr	r7, [r4, #20]
 112:	f401 017f 	and.w	r1, r1, #16711680	@ 0xff0000
 116:	f40e 4e7f 	and.w	lr, lr, #65280	@ 0xff00
 11a:	ea41 0e0e 	orr.w	lr, r1, lr
 11e:	6921      	ldr	r1, [r4, #16]
 120:	ea8e 0101 	eor.w	r1, lr, r1
 124:	ea4f 6e1c 	mov.w	lr, ip, lsr #24
 128:	f50e 7e00 	add.w	lr, lr, #512	@ 0x200
 12c:	3420      	adds	r4, #32
 12e:	f855 902e 	ldr.w	r9, [r5, lr, lsl #2]
 132:	fa5f fe8c 	uxtb.w	lr, ip
 136:	f50e 7e80 	add.w	lr, lr, #256	@ 0x100
 13a:	f009 497f 	and.w	r9, r9, #4278190080	@ 0xff000000
 13e:	f815 c02e 	ldrb.w	ip, [r5, lr, lsl #2]
 142:	ea49 0c0c 	orr.w	ip, r9, ip
 146:	ea81 010c 	eor.w	r1, r1, ip
 14a:	6121      	str	r1, [r4, #16]
 14c:	4079      	eors	r1, r7
 14e:	f854 7c08 	ldr.w	r7, [r4, #-8]
 152:	6161      	str	r1, [r4, #20]
 154:	4079      	eors	r1, r7
 156:	404a      	eors	r2, r1
 158:	61a1      	str	r1, [r4, #24]
 15a:	61e2      	str	r2, [r4, #28]
 15c:	e794      	b.n	88 <wc_AesSetKey+0x88>
 15e:	4965      	ldr	r1, [pc, #404]	@ (2f4 <wc_AesSetKey+0x2f4>)
 160:	f106 0ca8 	add.w	ip, r6, #168	@ 0xa8
 164:	6962      	ldr	r2, [r4, #20]
 166:	f851 eb04 	ldr.w	lr, [r1], #4
 16a:	b2d3      	uxtb	r3, r2
 16c:	4564      	cmp	r4, ip
 16e:	f855 0023 	ldr.w	r0, [r5, r3, lsl #2]
 172:	6823      	ldr	r3, [r4, #0]
 174:	f400 407f 	and.w	r0, r0, #65280	@ 0xff00
 178:	ea8e 0303 	eor.w	r3, lr, r3
 17c:	ea83 0300 	eor.w	r3, r3, r0
 180:	ea4f 6012 	mov.w	r0, r2, lsr #24
 184:	f500 7080 	add.w	r0, r0, #256	@ 0x100
 188:	f815 0020 	ldrb.w	r0, [r5, r0, lsl #2]
 18c:	ea83 0300 	eor.w	r3, r3, r0
 190:	f3c2 4007 	ubfx	r0, r2, #16, #8
 194:	f500 7000 	add.w	r0, r0, #512	@ 0x200
 198:	f855 0020 	ldr.w	r0, [r5, r0, lsl #2]
 19c:	f000 407f 	and.w	r0, r0, #4278190080	@ 0xff000000
 1a0:	ea83 0300 	eor.w	r3, r3, r0
 1a4:	f3c2 2007 	ubfx	r0, r2, #8, #8
 1a8:	f500 7040 	add.w	r0, r0, #768	@ 0x300
 1ac:	f855 0020 	ldr.w	r0, [r5, r0, lsl #2]
 1b0:	f400 007f 	and.w	r0, r0, #16711680	@ 0xff0000
 1b4:	ea83 0300 	eor.w	r3, r3, r0
 1b8:	6860      	ldr	r0, [r4, #4]
 1ba:	61a3      	str	r3, [r4, #24]
 1bc:	ea83 0300 	eor.w	r3, r3, r0
 1c0:	68a0      	ldr	r0, [r4, #8]
 1c2:	61e3      	str	r3, [r4, #28]
 1c4:	ea83 0300 	eor.w	r3, r3, r0
 1c8:	68e0      	ldr	r0, [r4, #12]
 1ca:	6223      	str	r3, [r4, #32]
 1cc:	ea83 0300 	eor.w	r3, r3, r0
 1d0:	6263      	str	r3, [r4, #36]	@ 0x24
 1d2:	d03d      	beq.n	250 <wc_AesSetKey+0x250>
 1d4:	6920      	ldr	r0, [r4, #16]
 1d6:	4043      	eors	r3, r0
 1d8:	405a      	eors	r2, r3
 1da:	62a3      	str	r3, [r4, #40]	@ 0x28
 1dc:	62e2      	str	r2, [r4, #44]	@ 0x2c
 1de:	3418      	adds	r4, #24
 1e0:	e7c0      	b.n	164 <wc_AesSetKey+0x164>
 1e2:	4844      	ldr	r0, [pc, #272]	@ (2f4 <wc_AesSetKey+0x2f4>)
 1e4:	f106 0c90 	add.w	ip, r6, #144	@ 0x90
 1e8:	68e2      	ldr	r2, [r4, #12]
 1ea:	f850 1b04 	ldr.w	r1, [r0], #4
 1ee:	6827      	ldr	r7, [r4, #0]
 1f0:	b2d3      	uxtb	r3, r2
 1f2:	4079      	eors	r1, r7
 1f4:	f855 3023 	ldr.w	r3, [r5, r3, lsl #2]
 1f8:	f403 437f 	and.w	r3, r3, #65280	@ 0xff00
 1fc:	404b      	eors	r3, r1
 1fe:	0e11      	lsrs	r1, r2, #24
 200:	f501 7180 	add.w	r1, r1, #256	@ 0x100
 204:	4564      	cmp	r4, ip
 206:	f815 1021 	ldrb.w	r1, [r5, r1, lsl #2]
 20a:	ea83 0301 	eor.w	r3, r3, r1
 20e:	f3c2 4107 	ubfx	r1, r2, #16, #8
 212:	f501 7100 	add.w	r1, r1, #512	@ 0x200
 216:	f855 1021 	ldr.w	r1, [r5, r1, lsl #2]
 21a:	f001 417f 	and.w	r1, r1, #4278190080	@ 0xff000000
 21e:	ea83 0301 	eor.w	r3, r3, r1
 222:	f3c2 2107 	ubfx	r1, r2, #8, #8
 226:	f501 7140 	add.w	r1, r1, #768	@ 0x300
 22a:	f855 1021 	ldr.w	r1, [r5, r1, lsl #2]
 22e:	f401 017f 	and.w	r1, r1, #16711680	@ 0xff0000
 232:	ea83 0301 	eor.w	r3, r3, r1
 236:	6861      	ldr	r1, [r4, #4]
 238:	6123      	str	r3, [r4, #16]
 23a:	ea83 0301 	eor.w	r3, r3, r1
 23e:	68a1      	ldr	r1, [r4, #8]
 240:	6163      	str	r3, [r4, #20]
 242:	ea83 0301 	eor.w	r3, r3, r1
 246:	ea82 0203 	eor.w	r2, r2, r3
 24a:	61a3      	str	r3, [r4, #24]
 24c:	61e2      	str	r2, [r4, #28]
 24e:	d131      	bne.n	2b4 <wc_AesSetKey+0x2b4>
 250:	2100      	movs	r1, #0
 252:	f1b8 0f01 	cmp.w	r8, #1
 256:	f88d 1004 	strb.w	r1, [sp, #4]
 25a:	f88d 1005 	strb.w	r1, [sp, #5]
 25e:	f88d 1006 	strb.w	r1, [sp, #6]
 262:	f88d 1007 	strb.w	r1, [sp, #7]
 266:	d11e      	bne.n	2a6 <wc_AesSetKey+0x2a6>
 268:	f8d6 30f0 	ldr.w	r3, [r6, #240]	@ 0xf0
 26c:	4632      	mov	r2, r6
 26e:	ea4f 0c83 	mov.w	ip, r3, lsl #2
 272:	4630      	mov	r0, r6
 274:	eb06 1303 	add.w	r3, r6, r3, lsl #4
 278:	ebac 0401 	sub.w	r4, ip, r1
 27c:	42a1      	cmp	r1, r4
 27e:	f100 0010 	add.w	r0, r0, #16
 282:	f1a3 0310 	sub.w	r3, r3, #16
 286:	d317      	bcc.n	2b8 <wc_AesSetKey+0x2b8>
 288:	2300      	movs	r3, #0
 28a:	f88d 3004 	strb.w	r3, [sp, #4]
 28e:	f88d 3005 	strb.w	r3, [sp, #5]
 292:	f88d 3006 	strb.w	r3, [sp, #6]
 296:	f88d 3007 	strb.w	r3, [sp, #7]
 29a:	4b17      	ldr	r3, [pc, #92]	@ (2f8 <wc_AesSetKey+0x2f8>)
 29c:	2001      	movs	r0, #1
 29e:	f8d6 10f0 	ldr.w	r1, [r6, #240]	@ 0xf0
 2a2:	4288      	cmp	r0, r1
 2a4:	d32a      	bcc.n	2fc <wc_AesSetKey+0x2fc>
 2a6:	4651      	mov	r1, sl
 2a8:	4630      	mov	r0, r6
 2aa:	b002      	add	sp, #8
 2ac:	e8bd 47f0 	ldmia.w	sp!, {r4, r5, r6, r7, r8, r9, sl, lr}
 2b0:	f7ff bffe 	b.w	0 <wc_AesSetKey>
 2b4:	3410      	adds	r4, #16
 2b6:	e797      	b.n	1e8 <wc_AesSetKey+0x1e8>
 2b8:	f850 4c10 	ldr.w	r4, [r0, #-16]
 2bc:	691f      	ldr	r7, [r3, #16]
 2be:	f840 7c10 	str.w	r7, [r0, #-16]
 2c2:	611c      	str	r4, [r3, #16]
 2c4:	f850 4c0c 	ldr.w	r4, [r0, #-12]
 2c8:	695f      	ldr	r7, [r3, #20]
 2ca:	f840 7c0c 	str.w	r7, [r0, #-12]
 2ce:	615c      	str	r4, [r3, #20]
 2d0:	f850 4c08 	ldr.w	r4, [r0, #-8]
 2d4:	699f      	ldr	r7, [r3, #24]
 2d6:	f840 7c08 	str.w	r7, [r0, #-8]
 2da:	619c      	str	r4, [r3, #24]
 2dc:	f850 4c04 	ldr.w	r4, [r0, #-4]
 2e0:	69df      	ldr	r7, [r3, #28]
 2e2:	f840 7c04 	str.w	r7, [r0, #-4]
 2e6:	3104      	adds	r1, #4
 2e8:	61dc      	str	r4, [r3, #28]
 2ea:	e7c5      	b.n	278 <wc_AesSetKey+0x278>
 2ec:	00010101 	.word	0x00010101
	...
 2fc:	6911      	ldr	r1, [r2, #16]
 2fe:	0e0c      	lsrs	r4, r1, #24
 300:	f504 7480 	add.w	r4, r4, #256	@ 0x100
 304:	3001      	adds	r0, #1
 306:	f815 e024 	ldrb.w	lr, [r5, r4, lsl #2]
 30a:	b2cc      	uxtb	r4, r1
 30c:	f504 7480 	add.w	r4, r4, #256	@ 0x100
 310:	3210      	adds	r2, #16
 312:	f815 c024 	ldrb.w	ip, [r5, r4, lsl #2]
 316:	f853 402e 	ldr.w	r4, [r3, lr, lsl #2]
 31a:	f50c 7c40 	add.w	ip, ip, #768	@ 0x300
 31e:	f853 c02c 	ldr.w	ip, [r3, ip, lsl #2]
 322:	ea84 040c 	eor.w	r4, r4, ip
 326:	f3c1 4c07 	ubfx	ip, r1, #16, #8
 32a:	f50c 7c80 	add.w	ip, ip, #256	@ 0x100
 32e:	f3c1 2107 	ubfx	r1, r1, #8, #8
 332:	f501 7180 	add.w	r1, r1, #256	@ 0x100
 336:	f815 c02c 	ldrb.w	ip, [r5, ip, lsl #2]
 33a:	f815 1021 	ldrb.w	r1, [r5, r1, lsl #2]
 33e:	f50c 7c80 	add.w	ip, ip, #256	@ 0x100
 342:	f501 7100 	add.w	r1, r1, #512	@ 0x200
 346:	f853 c02c 	ldr.w	ip, [r3, ip, lsl #2]
 34a:	f853 1021 	ldr.w	r1, [r3, r1, lsl #2]
 34e:	ea84 040c 	eor.w	r4, r4, ip
 352:	4061      	eors	r1, r4
 354:	6011      	str	r1, [r2, #0]
 356:	6851      	ldr	r1, [r2, #4]
 358:	0e0c      	lsrs	r4, r1, #24
 35a:	f504 7480 	add.w	r4, r4, #256	@ 0x100
 35e:	f815 e024 	ldrb.w	lr, [r5, r4, lsl #2]
 362:	b2cc      	uxtb	r4, r1
 364:	f504 7480 	add.w	r4, r4, #256	@ 0x100
 368:	f815 c024 	ldrb.w	ip, [r5, r4, lsl #2]
 36c:	f853 402e 	ldr.w	r4, [r3, lr, lsl #2]
 370:	f50c 7c40 	add.w	ip, ip, #768	@ 0x300
 374:	f853 c02c 	ldr.w	ip, [r3, ip, lsl #2]
 378:	ea84 040c 	eor.w	r4, r4, ip
 37c:	f3c1 4c07 	ubfx	ip, r1, #16, #8
 380:	f50c 7c80 	add.w	ip, ip, #256	@ 0x100
 384:	f3c1 2107 	ubfx	r1, r1, #8, #8
 388:	f501 7180 	add.w	r1, r1, #256	@ 0x100
 38c:	f815 c02c 	ldrb.w	ip, [r5, ip, lsl #2]
 390:	f815 1021 	ldrb.w	r1, [r5, r1, lsl #2]
 394:	f50c 7c80 	add.w	ip, ip, #256	@ 0x100
 398:	f501 7100 	add.w	r1, r1, #512	@ 0x200
 39c:	f853 c02c 	ldr.w	ip, [r3, ip, lsl #2]
 3a0:	f853 1021 	ldr.w	r1, [r3, r1, lsl #2]
 3a4:	ea84 040c 	eor.w	r4, r4, ip
 3a8:	4061      	eors	r1, r4
 3aa:	6051      	str	r1, [r2, #4]
 3ac:	6891      	ldr	r1, [r2, #8]
 3ae:	0e0c      	lsrs	r4, r1, #24
 3b0:	f504 7480 	add.w	r4, r4, #256	@ 0x100
 3b4:	f815 e024 	ldrb.w	lr, [r5, r4, lsl #2]
 3b8:	b2cc      	uxtb	r4, r1
 3ba:	f504 7480 	add.w	r4, r4, #256	@ 0x100
 3be:	f815 c024 	ldrb.w	ip, [r5, r4, lsl #2]
 3c2:	f853 402e 	ldr.w	r4, [r3, lr, lsl #2]
 3c6:	f50c 7c40 	add.w	ip, ip, #768	@ 0x300
 3ca:	f853 c02c 	ldr.w	ip, [r3, ip, lsl #2]
 3ce:	ea84 040c 	eor.w	r4, r4, ip
 3d2:	f3c1 4c07 	ubfx	ip, r1, #16, #8
 3d6:	f50c 7c80 	add.w	ip, ip, #256	@ 0x100
 3da:	f3c1 2107 	ubfx	r1, r1, #8, #8
 3de:	f501 7180 	add.w	r1, r1, #256	@ 0x100
 3e2:	f815 c02c 	ldrb.w	ip, [r5, ip, lsl #2]
 3e6:	f815 1021 	ldrb.w	r1, [r5, r1, lsl #2]
 3ea:	f50c 7c80 	add.w	ip, ip, #256	@ 0x100
 3ee:	f501 7100 	add.w	r1, r1, #512	@ 0x200
 3f2:	f853 c02c 	ldr.w	ip, [r3, ip, lsl #2]
 3f6:	f853 1021 	ldr.w	r1, [r3, r1, lsl #2]
 3fa:	ea84 040c 	eor.w	r4, r4, ip
 3fe:	4061      	eors	r1, r4
 400:	6091      	str	r1, [r2, #8]
 402:	68d1      	ldr	r1, [r2, #12]
 404:	0e0c      	lsrs	r4, r1, #24
 406:	f504 7480 	add.w	r4, r4, #256	@ 0x100
 40a:	f815 e024 	ldrb.w	lr, [r5, r4, lsl #2]
 40e:	b2cc      	uxtb	r4, r1
 410:	f504 7480 	add.w	r4, r4, #256	@ 0x100
 414:	f815 c024 	ldrb.w	ip, [r5, r4, lsl #2]
 418:	f853 402e 	ldr.w	r4, [r3, lr, lsl #2]
 41c:	f50c 7c40 	add.w	ip, ip, #768	@ 0x300
 420:	f853 c02c 	ldr.w	ip, [r3, ip, lsl #2]
 424:	ea84 040c 	eor.w	r4, r4, ip
 428:	f3c1 4c07 	ubfx	ip, r1, #16, #8
 42c:	f50c 7c80 	add.w	ip, ip, #256	@ 0x100
 430:	f3c1 2107 	ubfx	r1, r1, #8, #8
 434:	f501 7180 	add.w	r1, r1, #256	@ 0x100
 438:	f815 c02c 	ldrb.w	ip, [r5, ip, lsl #2]
 43c:	f815 1021 	ldrb.w	r1, [r5, r1, lsl #2]
 440:	f50c 7c80 	add.w	ip, ip, #256	@ 0x100
 444:	f501 7100 	add.w	r1, r1, #512	@ 0x200
 448:	f853 c02c 	ldr.w	ip, [r3, ip, lsl #2]
 44c:	f853 1021 	ldr.w	r1, [r3, r1, lsl #2]
 450:	ea84 040c 	eor.w	r4, r4, ip
 454:	4061      	eors	r1, r4
 456:	60d1      	str	r1, [r2, #12]
 458:	e721      	b.n	29e <wc_AesSetKey+0x29e>
 45a:	f06f 00ac 	mvn.w	r0, #172	@ 0xac
 45e:	b002      	add	sp, #8
 460:	e8bd 87f0 	ldmia.w	sp!, {r4, r5, r6, r7, r8, r9, sl, pc}

Disassembly of section .text.wc_AesCbcEncrypt:

00000000 <wc_AesCbcEncrypt>:
   0:	e92d 41f0 	stmdb	sp!, {r4, r5, r6, r7, r8, lr}
   4:	460d      	mov	r5, r1
   6:	4616      	mov	r6, r2
   8:	4607      	mov	r7, r0
   a:	b300      	cbz	r0, 4e <wc_AesCbcEncrypt+0x4e>
   c:	b1f9      	cbz	r1, 4e <wc_AesCbcEncrypt+0x4e>
   e:	b1f2      	cbz	r2, 4e <wc_AesCbcEncrypt+0x4e>
  10:	b913      	cbnz	r3, 18 <wc_AesCbcEncrypt+0x18>
  12:	2000      	movs	r0, #0
  14:	e8bd 81f0 	ldmia.w	sp!, {r4, r5, r6, r7, r8, pc}
  18:	f023 030f 	bic.w	r3, r3, #15
  1c:	18cc      	adds	r4, r1, r3
  1e:	f100 08f8 	add.w	r8, r0, #248	@ 0xf8
  22:	42a5      	cmp	r5, r4
  24:	d0f5      	beq.n	12 <wc_AesCbcEncrypt+0x12>
  26:	2210      	movs	r2, #16
  28:	4631      	mov	r1, r6
  2a:	4640      	mov	r0, r8
  2c:	f7ff fffe 	bl	0 <wc_AesCbcEncrypt>
  30:	4642      	mov	r2, r8
  32:	4641      	mov	r1, r8
  34:	4638      	mov	r0, r7
  36:	f7ff fffe 	bl	0 <wc_AesCbcEncrypt>
  3a:	2800      	cmp	r0, #0
  3c:	d1ea      	bne.n	14 <wc_AesCbcEncrypt+0x14>
  3e:	4628      	mov	r0, r5
  40:	2210      	movs	r2, #16
  42:	4641      	mov	r1, r8
  44:	f7ff fffe 	bl	0 <memcpy>
  48:	3510      	adds	r5, #16
  4a:	3610      	adds	r6, #16
  4c:	e7e9      	b.n	22 <wc_AesCbcEncrypt+0x22>
  4e:	f06f 00ac 	mvn.w	r0, #172	@ 0xac
  52:	e7df      	b.n	14 <wc_AesCbcEncrypt+0x14>

Disassembly of section .text.wc_AesCbcDecrypt:

00000000 <wc_AesCbcDecrypt>:
   0:	e92d 4ff0 	stmdb	sp!, {r4, r5, r6, r7, r8, r9, sl, fp, lr}
   4:	4689      	mov	r9, r1
   6:	b089      	sub	sp, #36	@ 0x24
   8:	4693      	mov	fp, r2
   a:	4605      	mov	r5, r0
   c:	2800      	cmp	r0, #0
   e:	f000 8722 	beq.w	e56 <wc_AesCbcDecrypt+0xe56>
  12:	2900      	cmp	r1, #0
  14:	f000 871f 	beq.w	e56 <wc_AesCbcDecrypt+0xe56>
  18:	2a00      	cmp	r2, #0
  1a:	f000 871c 	beq.w	e56 <wc_AesCbcDecrypt+0xe56>
  1e:	b91b      	cbnz	r3, 28 <wc_AesCbcDecrypt+0x28>
  20:	2000      	movs	r0, #0
  22:	b009      	add	sp, #36	@ 0x24
  24:	e8bd 8ff0 	ldmia.w	sp!, {r4, r5, r6, r7, r8, r9, sl, fp, pc}
  28:	091a      	lsrs	r2, r3, #4
  2a:	071b      	lsls	r3, r3, #28
  2c:	f040 8713 	bne.w	e56 <wc_AesCbcDecrypt+0xe56>
  30:	eb01 1302 	add.w	r3, r1, r2, lsl #4
  34:	9303      	str	r3, [sp, #12]
  36:	4c03      	ldr	r4, [pc, #12]	@ (44 <wc_AesCbcDecrypt+0x44>)
  38:	4f03      	ldr	r7, [pc, #12]	@ (48 <wc_AesCbcDecrypt+0x48>)
  3a:	f500 7384 	add.w	r3, r0, #264	@ 0x108
  3e:	9301      	str	r3, [sp, #4]
  40:	e004      	b.n	4c <wc_AesCbcDecrypt+0x4c>
  42:	bf00      	nop
	...
  4c:	9b03      	ldr	r3, [sp, #12]
  4e:	4599      	cmp	r9, r3
  50:	d0e6      	beq.n	20 <wc_AesCbcDecrypt+0x20>
  52:	9801      	ldr	r0, [sp, #4]
  54:	2210      	movs	r2, #16
  56:	4659      	mov	r1, fp
  58:	f7ff fffe 	bl	0 <memcpy>
  5c:	f8d5 30f0 	ldr.w	r3, [r5, #240]	@ 0xf0
  60:	ea4f 0a53 	mov.w	sl, r3, lsr #1
  64:	f10a 33ff 	add.w	r3, sl, #4294967295	@ 0xffffffff
  68:	2b06      	cmp	r3, #6
  6a:	f200 86f8 	bhi.w	e5e <wc_AesCbcDecrypt+0xe5e>
  6e:	2204      	movs	r2, #4
  70:	4659      	mov	r1, fp
  72:	a804      	add	r0, sp, #16
  74:	f7ff fffe 	bl	0 <memcpy>
  78:	2204      	movs	r2, #4
  7a:	eb0b 0102 	add.w	r1, fp, r2
  7e:	a805      	add	r0, sp, #20
  80:	f7ff fffe 	bl	0 <memcpy>
  84:	2204      	movs	r2, #4
  86:	f10b 0108 	add.w	r1, fp, #8
  8a:	a806      	add	r0, sp, #24
  8c:	f7ff fffe 	bl	0 <memcpy>
  90:	2204      	movs	r2, #4
  92:	f10b 010c 	add.w	r1, fp, #12
  96:	a807      	add	r0, sp, #28
  98:	f7ff fffe 	bl	0 <memcpy>
  9c:	9804      	ldr	r0, [sp, #16]
  9e:	f7ff fffe 	bl	0 <wc_AesCbcDecrypt>
  a2:	4601      	mov	r1, r0
  a4:	9805      	ldr	r0, [sp, #20]
  a6:	f7ff fffe 	bl	0 <wc_AesCbcDecrypt>
  aa:	4606      	mov	r6, r0
  ac:	9806      	ldr	r0, [sp, #24]
  ae:	f7ff fffe 	bl	0 <wc_AesCbcDecrypt>
  b2:	4602      	mov	r2, r0
  b4:	9807      	ldr	r0, [sp, #28]
  b6:	f7ff fffe 	bl	0 <wc_AesCbcDecrypt>
  ba:	682b      	ldr	r3, [r5, #0]
  bc:	ea81 0e03 	eor.w	lr, r1, r3
  c0:	686b      	ldr	r3, [r5, #4]
  c2:	405e      	eors	r6, r3
  c4:	68ab      	ldr	r3, [r5, #8]
  c6:	ea82 0c03 	eor.w	ip, r2, r3
  ca:	68eb      	ldr	r3, [r5, #12]
  cc:	b2f2      	uxtb	r2, r6
  ce:	4058      	eors	r0, r3
  d0:	f502 7240 	add.w	r2, r2, #768	@ 0x300
  d4:	ea4f 631e 	mov.w	r3, lr, lsr #24
  d8:	f854 2022 	ldr.w	r2, [r4, r2, lsl #2]
  dc:	f854 3023 	ldr.w	r3, [r4, r3, lsl #2]
  e0:	ea83 0802 	eor.w	r8, r3, r2
  e4:	692b      	ldr	r3, [r5, #16]
  e6:	ea88 0803 	eor.w	r8, r8, r3
  ea:	f3c0 4307 	ubfx	r3, r0, #16, #8
  ee:	f503 7380 	add.w	r3, r3, #256	@ 0x100
  f2:	fa5f f28c 	uxtb.w	r2, ip
  f6:	f854 3023 	ldr.w	r3, [r4, r3, lsl #2]
  fa:	ea88 0803 	eor.w	r8, r8, r3
  fe:	f3cc 2307 	ubfx	r3, ip, #8, #8
 102:	f503 7300 	add.w	r3, r3, #512	@ 0x200
 106:	f502 7240 	add.w	r2, r2, #768	@ 0x300
 10a:	f854 3023 	ldr.w	r3, [r4, r3, lsl #2]
 10e:	f854 2022 	ldr.w	r2, [r4, r2, lsl #2]
 112:	ea88 0803 	eor.w	r8, r8, r3
 116:	0e33      	lsrs	r3, r6, #24
 118:	b2c1      	uxtb	r1, r0
 11a:	f854 3023 	ldr.w	r3, [r4, r3, lsl #2]
 11e:	405a      	eors	r2, r3
 120:	696b      	ldr	r3, [r5, #20]
 122:	405a      	eors	r2, r3
 124:	f3ce 4307 	ubfx	r3, lr, #16, #8
 128:	f503 7380 	add.w	r3, r3, #256	@ 0x100
 12c:	f501 7140 	add.w	r1, r1, #768	@ 0x300
 130:	f854 3023 	ldr.w	r3, [r4, r3, lsl #2]
 134:	f854 1021 	ldr.w	r1, [r4, r1, lsl #2]
 138:	405a      	eors	r2, r3
 13a:	f3c0 2307 	ubfx	r3, r0, #8, #8
 13e:	f503 7300 	add.w	r3, r3, #512	@ 0x200
 142:	0e00      	lsrs	r0, r0, #24
 144:	f854 3023 	ldr.w	r3, [r4, r3, lsl #2]
 148:	405a      	eors	r2, r3
 14a:	ea4f 631c 	mov.w	r3, ip, lsr #24
 14e:	f3cc 4c07 	ubfx	ip, ip, #16, #8
 152:	f854 3023 	ldr.w	r3, [r4, r3, lsl #2]
 156:	4059      	eors	r1, r3
 158:	69ab      	ldr	r3, [r5, #24]
 15a:	4059      	eors	r1, r3
 15c:	f3c6 4307 	ubfx	r3, r6, #16, #8
 160:	f503 7380 	add.w	r3, r3, #256	@ 0x100
 164:	f50c 7c80 	add.w	ip, ip, #256	@ 0x100
 168:	f854 3023 	ldr.w	r3, [r4, r3, lsl #2]
 16c:	4059      	eors	r1, r3
 16e:	f3ce 2307 	ubfx	r3, lr, #8, #8
 172:	f503 7300 	add.w	r3, r3, #512	@ 0x200
 176:	fa5f fe8e 	uxtb.w	lr, lr
 17a:	f854 3023 	ldr.w	r3, [r4, r3, lsl #2]
 17e:	f50e 7e40 	add.w	lr, lr, #768	@ 0x300
 182:	4059      	eors	r1, r3
 184:	f854 3020 	ldr.w	r3, [r4, r0, lsl #2]
 188:	f854 002e 	ldr.w	r0, [r4, lr, lsl #2]
 18c:	4058      	eors	r0, r3
 18e:	69eb      	ldr	r3, [r5, #28]
 190:	f3c6 2607 	ubfx	r6, r6, #8, #8
 194:	4058      	eors	r0, r3
 196:	f506 7600 	add.w	r6, r6, #512	@ 0x200
 19a:	f854 302c 	ldr.w	r3, [r4, ip, lsl #2]
 19e:	4058      	eors	r0, r3
 1a0:	f854 3026 	ldr.w	r3, [r4, r6, lsl #2]
 1a4:	b2d6      	uxtb	r6, r2
 1a6:	4058      	eors	r0, r3
 1a8:	f506 7640 	add.w	r6, r6, #768	@ 0x300
 1ac:	ea4f 6318 	mov.w	r3, r8, lsr #24
 1b0:	ea4f 6c11 	mov.w	ip, r1, lsr #24
 1b4:	f854 3023 	ldr.w	r3, [r4, r3, lsl #2]
 1b8:	f854 6026 	ldr.w	r6, [r4, r6, lsl #2]
 1bc:	f854 c02c 	ldr.w	ip, [r4, ip, lsl #2]
 1c0:	ea83 0e06 	eor.w	lr, r3, r6
 1c4:	6a2b      	ldr	r3, [r5, #32]
 1c6:	ea8e 0e03 	eor.w	lr, lr, r3
 1ca:	f3c0 4307 	ubfx	r3, r0, #16, #8
 1ce:	f503 7380 	add.w	r3, r3, #256	@ 0x100
 1d2:	b2ce      	uxtb	r6, r1
 1d4:	f854 3023 	ldr.w	r3, [r4, r3, lsl #2]
 1d8:	ea8e 0e03 	eor.w	lr, lr, r3
 1dc:	f3c1 2307 	ubfx	r3, r1, #8, #8
 1e0:	f503 7300 	add.w	r3, r3, #512	@ 0x200
 1e4:	f506 7640 	add.w	r6, r6, #768	@ 0x300
 1e8:	f854 3023 	ldr.w	r3, [r4, r3, lsl #2]
 1ec:	f854 6026 	ldr.w	r6, [r4, r6, lsl #2]
 1f0:	ea8e 0e03 	eor.w	lr, lr, r3
 1f4:	0e13      	lsrs	r3, r2, #24
 1f6:	f3c1 4107 	ubfx	r1, r1, #16, #8
 1fa:	f854 3023 	ldr.w	r3, [r4, r3, lsl #2]
 1fe:	405e      	eors	r6, r3
 200:	6a6b      	ldr	r3, [r5, #36]	@ 0x24
 202:	405e      	eors	r6, r3
 204:	f3c8 4307 	ubfx	r3, r8, #16, #8
 208:	f503 7380 	add.w	r3, r3, #256	@ 0x100
 20c:	f501 7180 	add.w	r1, r1, #256	@ 0x100
 210:	f854 3023 	ldr.w	r3, [r4, r3, lsl #2]
 214:	405e      	eors	r6, r3
 216:	f3c0 2307 	ubfx	r3, r0, #8, #8
 21a:	f503 7300 	add.w	r3, r3, #512	@ 0x200
 21e:	f1ba 0f05 	cmp.w	sl, #5
 222:	f854 3023 	ldr.w	r3, [r4, r3, lsl #2]
 226:	ea86 0603 	eor.w	r6, r6, r3
 22a:	b2c3      	uxtb	r3, r0
 22c:	f503 7340 	add.w	r3, r3, #768	@ 0x300
 230:	ea4f 6010 	mov.w	r0, r0, lsr #24
 234:	f854 3023 	ldr.w	r3, [r4, r3, lsl #2]
 238:	ea8c 0c03 	eor.w	ip, ip, r3
 23c:	6aab      	ldr	r3, [r5, #40]	@ 0x28
 23e:	ea8c 0c03 	eor.w	ip, ip, r3
 242:	f3c2 4307 	ubfx	r3, r2, #16, #8
 246:	f503 7380 	add.w	r3, r3, #256	@ 0x100
 24a:	f3c2 2207 	ubfx	r2, r2, #8, #8
 24e:	f854 3023 	ldr.w	r3, [r4, r3, lsl #2]
 252:	ea8c 0c03 	eor.w	ip, ip, r3
 256:	f3c8 2307 	ubfx	r3, r8, #8, #8
 25a:	f503 7300 	add.w	r3, r3, #512	@ 0x200
 25e:	fa5f f888 	uxtb.w	r8, r8
 262:	f854 3023 	ldr.w	r3, [r4, r3, lsl #2]
 266:	f508 7840 	add.w	r8, r8, #768	@ 0x300
 26a:	ea8c 0c03 	eor.w	ip, ip, r3
 26e:	f854 3020 	ldr.w	r3, [r4, r0, lsl #2]
 272:	f854 0028 	ldr.w	r0, [r4, r8, lsl #2]
 276:	ea83 0800 	eor.w	r8, r3, r0
 27a:	6aeb      	ldr	r3, [r5, #44]	@ 0x2c
 27c:	f502 7200 	add.w	r2, r2, #512	@ 0x200
 280:	ea88 0803 	eor.w	r8, r8, r3
 284:	f854 3021 	ldr.w	r3, [r4, r1, lsl #2]
 288:	ea88 0803 	eor.w	r8, r8, r3
 28c:	f854 3022 	ldr.w	r3, [r4, r2, lsl #2]
 290:	ea88 0803 	eor.w	r8, r8, r3
 294:	b2f3      	uxtb	r3, r6
 296:	ea4f 621e 	mov.w	r2, lr, lsr #24
 29a:	f503 7340 	add.w	r3, r3, #768	@ 0x300
 29e:	f854 0022 	ldr.w	r0, [r4, r2, lsl #2]
 2a2:	f854 3023 	ldr.w	r3, [r4, r3, lsl #2]
 2a6:	ea80 0003 	eor.w	r0, r0, r3
 2aa:	6b2b      	ldr	r3, [r5, #48]	@ 0x30
 2ac:	ea80 0003 	eor.w	r0, r0, r3
 2b0:	f3c8 4307 	ubfx	r3, r8, #16, #8
 2b4:	f503 7380 	add.w	r3, r3, #256	@ 0x100
 2b8:	fa5f f28c 	uxtb.w	r2, ip
 2bc:	f854 3023 	ldr.w	r3, [r4, r3, lsl #2]
 2c0:	ea80 0003 	eor.w	r0, r0, r3
 2c4:	f3cc 2307 	ubfx	r3, ip, #8, #8
 2c8:	f503 7300 	add.w	r3, r3, #512	@ 0x200
 2cc:	f502 7240 	add.w	r2, r2, #768	@ 0x300
 2d0:	f854 3023 	ldr.w	r3, [r4, r3, lsl #2]
 2d4:	f854 2022 	ldr.w	r2, [r4, r2, lsl #2]
 2d8:	ea80 0003 	eor.w	r0, r0, r3
 2dc:	ea4f 6316 	mov.w	r3, r6, lsr #24
 2e0:	fa5f f188 	uxtb.w	r1, r8
 2e4:	f854 3023 	ldr.w	r3, [r4, r3, lsl #2]
 2e8:	ea82 0203 	eor.w	r2, r2, r3
 2ec:	6b6b      	ldr	r3, [r5, #52]	@ 0x34
 2ee:	ea82 0203 	eor.w	r2, r2, r3
 2f2:	f3ce 4307 	ubfx	r3, lr, #16, #8
 2f6:	f503 7380 	add.w	r3, r3, #256	@ 0x100
 2fa:	f501 7140 	add.w	r1, r1, #768	@ 0x300
 2fe:	f854 3023 	ldr.w	r3, [r4, r3, lsl #2]
 302:	f854 1021 	ldr.w	r1, [r4, r1, lsl #2]
 306:	ea82 0203 	eor.w	r2, r2, r3
 30a:	f3c8 2307 	ubfx	r3, r8, #8, #8
 30e:	f503 7300 	add.w	r3, r3, #512	@ 0x200
 312:	ea4f 6818 	mov.w	r8, r8, lsr #24
 316:	f854 3023 	ldr.w	r3, [r4, r3, lsl #2]
 31a:	ea82 0203 	eor.w	r2, r2, r3
 31e:	ea4f 631c 	mov.w	r3, ip, lsr #24
 322:	f3cc 4c07 	ubfx	ip, ip, #16, #8
 326:	f854 3023 	ldr.w	r3, [r4, r3, lsl #2]
 32a:	ea81 0103 	eor.w	r1, r1, r3
 32e:	6bab      	ldr	r3, [r5, #56]	@ 0x38
 330:	ea81 0103 	eor.w	r1, r1, r3
 334:	f3c6 4307 	ubfx	r3, r6, #16, #8
 338:	f503 7380 	add.w	r3, r3, #256	@ 0x100
 33c:	f50c 7c80 	add.w	ip, ip, #256	@ 0x100
 340:	f854 3023 	ldr.w	r3, [r4, r3, lsl #2]
 344:	ea81 0103 	eor.w	r1, r1, r3
 348:	f3ce 2307 	ubfx	r3, lr, #8, #8
 34c:	f503 7300 	add.w	r3, r3, #512	@ 0x200
 350:	fa5f fe8e 	uxtb.w	lr, lr
 354:	f854 3023 	ldr.w	r3, [r4, r3, lsl #2]
 358:	f50e 7e40 	add.w	lr, lr, #768	@ 0x300
 35c:	ea81 0103 	eor.w	r1, r1, r3
 360:	f854 3028 	ldr.w	r3, [r4, r8, lsl #2]
 364:	f854 802e 	ldr.w	r8, [r4, lr, lsl #2]
 368:	ea83 0808 	eor.w	r8, r3, r8
 36c:	6beb      	ldr	r3, [r5, #60]	@ 0x3c
 36e:	f3c6 2607 	ubfx	r6, r6, #8, #8
 372:	ea88 0803 	eor.w	r8, r8, r3
 376:	f506 7600 	add.w	r6, r6, #512	@ 0x200
 37a:	f854 302c 	ldr.w	r3, [r4, ip, lsl #2]
 37e:	ea88 0803 	eor.w	r8, r8, r3
 382:	f854 3026 	ldr.w	r3, [r4, r6, lsl #2]
 386:	b2d6      	uxtb	r6, r2
 388:	ea88 0803 	eor.w	r8, r8, r3
 38c:	f506 7640 	add.w	r6, r6, #768	@ 0x300
 390:	ea4f 6310 	mov.w	r3, r0, lsr #24
 394:	f854 6026 	ldr.w	r6, [r4, r6, lsl #2]
 398:	f854 3023 	ldr.w	r3, [r4, r3, lsl #2]
 39c:	ea83 0e06 	eor.w	lr, r3, r6
 3a0:	6c2b      	ldr	r3, [r5, #64]	@ 0x40
 3a2:	ea8e 0e03 	eor.w	lr, lr, r3
 3a6:	f3c8 4307 	ubfx	r3, r8, #16, #8
 3aa:	f503 7380 	add.w	r3, r3, #256	@ 0x100
 3ae:	b2ce      	uxtb	r6, r1
 3b0:	f854 3023 	ldr.w	r3, [r4, r3, lsl #2]
 3b4:	ea8e 0e03 	eor.w	lr, lr, r3
 3b8:	f3c1 2307 	ubfx	r3, r1, #8, #8
 3bc:	f503 7300 	add.w	r3, r3, #512	@ 0x200
 3c0:	f506 7640 	add.w	r6, r6, #768	@ 0x300
 3c4:	f854 3023 	ldr.w	r3, [r4, r3, lsl #2]
 3c8:	f854 6026 	ldr.w	r6, [r4, r6, lsl #2]
 3cc:	ea8e 0e03 	eor.w	lr, lr, r3
 3d0:	ea4f 6312 	mov.w	r3, r2, lsr #24
 3d4:	ea4f 6c11 	mov.w	ip, r1, lsr #24
 3d8:	f854 3023 	ldr.w	r3, [r4, r3, lsl #2]
 3dc:	f854 c02c 	ldr.w	ip, [r4, ip, lsl #2]
 3e0:	ea86 0603 	eor.w	r6, r6, r3
 3e4:	6c6b      	ldr	r3, [r5, #68]	@ 0x44
 3e6:	ea86 0603 	eor.w	r6, r6, r3
 3ea:	f3c0 4307 	ubfx	r3, r0, #16, #8
 3ee:	f503 7380 	add.w	r3, r3, #256	@ 0x100
 3f2:	f3c1 4107 	ubfx	r1, r1, #16, #8
 3f6:	f854 3023 	ldr.w	r3, [r4, r3, lsl #2]
 3fa:	ea86 0603 	eor.w	r6, r6, r3
 3fe:	f3c8 2307 	ubfx	r3, r8, #8, #8
 402:	f503 7300 	add.w	r3, r3, #512	@ 0x200
 406:	f501 7180 	add.w	r1, r1, #256	@ 0x100
 40a:	f854 3023 	ldr.w	r3, [r4, r3, lsl #2]
 40e:	ea86 0603 	eor.w	r6, r6, r3
 412:	fa5f f388 	uxtb.w	r3, r8
 416:	f503 7340 	add.w	r3, r3, #768	@ 0x300
 41a:	ea4f 6818 	mov.w	r8, r8, lsr #24
 41e:	f854 3023 	ldr.w	r3, [r4, r3, lsl #2]
 422:	ea8c 0c03 	eor.w	ip, ip, r3
 426:	6cab      	ldr	r3, [r5, #72]	@ 0x48
 428:	ea8c 0c03 	eor.w	ip, ip, r3
 42c:	f3c2 4307 	ubfx	r3, r2, #16, #8
 430:	f503 7380 	add.w	r3, r3, #256	@ 0x100
 434:	f3c2 2207 	ubfx	r2, r2, #8, #8
 438:	f854 3023 	ldr.w	r3, [r4, r3, lsl #2]
 43c:	ea8c 0c03 	eor.w	ip, ip, r3
 440:	f3c0 2307 	ubfx	r3, r0, #8, #8
 444:	f503 7300 	add.w	r3, r3, #512	@ 0x200
 448:	b2c0      	uxtb	r0, r0
 44a:	f854 3023 	ldr.w	r3, [r4, r3, lsl #2]
 44e:	f500 7040 	add.w	r0, r0, #768	@ 0x300
 452:	ea8c 0c03 	eor.w	ip, ip, r3
 456:	f854 0020 	ldr.w	r0, [r4, r0, lsl #2]
 45a:	f854 3028 	ldr.w	r3, [r4, r8, lsl #2]
 45e:	ea83 0800 	eor.w	r8, r3, r0
 462:	6ceb      	ldr	r3, [r5, #76]	@ 0x4c
 464:	f502 7200 	add.w	r2, r2, #512	@ 0x200
 468:	ea88 0803 	eor.w	r8, r8, r3
 46c:	f854 3021 	ldr.w	r3, [r4, r1, lsl #2]
 470:	ea88 0803 	eor.w	r8, r8, r3
 474:	f854 3022 	ldr.w	r3, [r4, r2, lsl #2]
 478:	ea88 0803 	eor.w	r8, r8, r3
 47c:	b2f3      	uxtb	r3, r6
 47e:	ea4f 621e 	mov.w	r2, lr, lsr #24
 482:	f503 7340 	add.w	r3, r3, #768	@ 0x300
 486:	f854 0022 	ldr.w	r0, [r4, r2, lsl #2]
 48a:	f854 3023 	ldr.w	r3, [r4, r3, lsl #2]
 48e:	ea80 0003 	eor.w	r0, r0, r3
 492:	6d2b      	ldr	r3, [r5, #80]	@ 0x50
 494:	ea80 0003 	eor.w	r0, r0, r3
 498:	f3c8 4307 	ubfx	r3, r8, #16, #8
 49c:	f503 7380 	add.w	r3, r3, #256	@ 0x100
 4a0:	fa5f f28c 	uxtb.w	r2, ip
 4a4:	f854 3023 	ldr.w	r3, [r4, r3, lsl #2]
 4a8:	ea80 0003 	eor.w	r0, r0, r3
 4ac:	f3cc 2307 	ubfx	r3, ip, #8, #8
 4b0:	f503 7300 	add.w	r3, r3, #512	@ 0x200
 4b4:	f502 7240 	add.w	r2, r2, #768	@ 0x300
 4b8:	f854 3023 	ldr.w	r3, [r4, r3, lsl #2]
 4bc:	f854 2022 	ldr.w	r2, [r4, r2, lsl #2]
 4c0:	ea80 0003 	eor.w	r0, r0, r3
 4c4:	ea4f 6316 	mov.w	r3, r6, lsr #24
 4c8:	fa5f f188 	uxtb.w	r1, r8
 4cc:	f854 3023 	ldr.w	r3, [r4, r3, lsl #2]
 4d0:	ea82 0203 	eor.w	r2, r2, r3
 4d4:	6d6b      	ldr	r3, [r5, #84]	@ 0x54
 4d6:	ea82 0203 	eor.w	r2, r2, r3
 4da:	f3ce 4307 	ubfx	r3, lr, #16, #8
 4de:	f503 7380 	add.w	r3, r3, #256	@ 0x100
 4e2:	f501 7140 	add.w	r1, r1, #768	@ 0x300
 4e6:	f854 3023 	ldr.w	r3, [r4, r3, lsl #2]
 4ea:	f854 1021 	ldr.w	r1, [r4, r1, lsl #2]
 4ee:	ea82 0203 	eor.w	r2, r2, r3
 4f2:	f3c8 2307 	ubfx	r3, r8, #8, #8
 4f6:	f503 7300 	add.w	r3, r3, #512	@ 0x200
 4fa:	ea4f 6818 	mov.w	r8, r8, lsr #24
 4fe:	f854 3023 	ldr.w	r3, [r4, r3, lsl #2]
 502:	ea82 0203 	eor.w	r2, r2, r3
 506:	ea4f 631c 	mov.w	r3, ip, lsr #24
 50a:	f3cc 4c07 	ubfx	ip, ip, #16, #8
 50e:	f854 3023 	ldr.w	r3, [r4, r3, lsl #2]
 512:	ea81 0103 	eor.w	r1, r1, r3
 516:	6dab      	ldr	r3, [r5, #88]	@ 0x58
 518:	ea81 0103 	eor.w	r1, r1, r3
 51c:	f3c6 4307 	ubfx	r3, r6, #16, #8
 520:	f503 7380 	add.w	r3, r3, #256	@ 0x100
 524:	f50c 7c80 	add.w	ip, ip, #256	@ 0x100
 528:	f854 3023 	ldr.w	r3, [r4, r3, lsl #2]
 52c:	ea81 0103 	eor.w	r1, r1, r3
 530:	f3ce 2307 	ubfx	r3, lr, #8, #8
 534:	f503 7300 	add.w	r3, r3, #512	@ 0x200
 538:	fa5f fe8e 	uxtb.w	lr, lr
 53c:	f854 3023 	ldr.w	r3, [r4, r3, lsl #2]
 540:	f50e 7e40 	add.w	lr, lr, #768	@ 0x300
 544:	ea81 0103 	eor.w	r1, r1, r3
 548:	f854 3028 	ldr.w	r3, [r4, r8, lsl #2]
 54c:	f854 802e 	ldr.w	r8, [r4, lr, lsl #2]
 550:	ea83 0808 	eor.w	r8, r3, r8
 554:	6deb      	ldr	r3, [r5, #92]	@ 0x5c
 556:	f3c6 2607 	ubfx	r6, r6, #8, #8
 55a:	ea88 0803 	eor.w	r8, r8, r3
 55e:	f506 7600 	add.w	r6, r6, #512	@ 0x200
 562:	f854 302c 	ldr.w	r3, [r4, ip, lsl #2]
 566:	ea88 0803 	eor.w	r8, r8, r3
 56a:	f854 3026 	ldr.w	r3, [r4, r6, lsl #2]
 56e:	b2d6      	uxtb	r6, r2
 570:	ea88 0803 	eor.w	r8, r8, r3
 574:	f506 7640 	add.w	r6, r6, #768	@ 0x300
 578:	ea4f 6310 	mov.w	r3, r0, lsr #24
 57c:	f854 6026 	ldr.w	r6, [r4, r6, lsl #2]
 580:	f854 3023 	ldr.w	r3, [r4, r3, lsl #2]
 584:	ea83 0e06 	eor.w	lr, r3, r6
 588:	6e2b      	ldr	r3, [r5, #96]	@ 0x60
 58a:	ea8e 0e03 	eor.w	lr, lr, r3
 58e:	f3c8 4307 	ubfx	r3, r8, #16, #8
 592:	f503 7380 	add.w	r3, r3, #256	@ 0x100
 596:	b2ce      	uxtb	r6, r1
 598:	f854 3023 	ldr.w	r3, [r4, r3, lsl #2]
 59c:	ea8e 0e03 	eor.w	lr, lr, r3
 5a0:	f3c1 2307 	ubfx	r3, r1, #8, #8
 5a4:	f503 7300 	add.w	r3, r3, #512	@ 0x200
 5a8:	f506 7640 	add.w	r6, r6, #768	@ 0x300
 5ac:	f854 3023 	ldr.w	r3, [r4, r3, lsl #2]
 5b0:	f854 6026 	ldr.w	r6, [r4, r6, lsl #2]
 5b4:	ea8e 0e03 	eor.w	lr, lr, r3
 5b8:	ea4f 6312 	mov.w	r3, r2, lsr #24
 5bc:	ea4f 6c11 	mov.w	ip, r1, lsr #24
 5c0:	f854 3023 	ldr.w	r3, [r4, r3, lsl #2]
 5c4:	f854 c02c 	ldr.w	ip, [r4, ip, lsl #2]
 5c8:	ea86 0603 	eor.w	r6, r6, r3
 5cc:	6e6b      	ldr	r3, [r5, #100]	@ 0x64
 5ce:	ea86 0603 	eor.w	r6, r6, r3
 5d2:	f3c0 4307 	ubfx	r3, r0, #16, #8
 5d6:	f503 7380 	add.w	r3, r3, #256	@ 0x100
 5da:	f3c1 4107 	ubfx	r1, r1, #16, #8
 5de:	f854 3023 	ldr.w	r3, [r4, r3, lsl #2]
 5e2:	ea86 0603 	eor.w	r6, r6, r3
 5e6:	f3c8 2307 	ubfx	r3, r8, #8, #8
 5ea:	f503 7300 	add.w	r3, r3, #512	@ 0x200
 5ee:	f501 7180 	add.w	r1, r1, #256	@ 0x100
 5f2:	f854 3023 	ldr.w	r3, [r4, r3, lsl #2]
 5f6:	ea86 0603 	eor.w	r6, r6, r3
 5fa:	fa5f f388 	uxtb.w	r3, r8
 5fe:	f503 7340 	add.w	r3, r3, #768	@ 0x300
 602:	ea4f 6818 	mov.w	r8, r8, lsr #24
 606:	f854 3023 	ldr.w	r3, [r4, r3, lsl #2]
 60a:	ea8c 0c03 	eor.w	ip, ip, r3
 60e:	6eab      	ldr	r3, [r5, #104]	@ 0x68
 610:	ea8c 0c03 	eor.w	ip, ip, r3
 614:	f3c2 4307 	ubfx	r3, r2, #16, #8
 618:	f503 7380 	add.w	r3, r3, #256	@ 0x100
 61c:	f3c2 2207 	ubfx	r2, r2, #8, #8
 620:	f854 3023 	ldr.w	r3, [r4, r3, lsl #2]
 624:	ea8c 0c03 	eor.w	ip, ip, r3
 628:	f3c0 2307 	ubfx	r3, r0, #8, #8
 62c:	f503 7300 	add.w	r3, r3, #512	@ 0x200
 630:	b2c0      	uxtb	r0, r0
 632:	f854 3023 	ldr.w	r3, [r4, r3, lsl #2]
 636:	f500 7040 	add.w	r0, r0, #768	@ 0x300
 63a:	ea8c 0c03 	eor.w	ip, ip, r3
 63e:	f854 3028 	ldr.w	r3, [r4, r8, lsl #2]
 642:	f854 0020 	ldr.w	r0, [r4, r0, lsl #2]
 646:	ea83 0800 	eor.w	r8, r3, r0
 64a:	6eeb      	ldr	r3, [r5, #108]	@ 0x6c
 64c:	f502 7200 	add.w	r2, r2, #512	@ 0x200
 650:	ea88 0803 	eor.w	r8, r8, r3
 654:	f854 3021 	ldr.w	r3, [r4, r1, lsl #2]
 658:	ea88 0803 	eor.w	r8, r8, r3
 65c:	f854 3022 	ldr.w	r3, [r4, r2, lsl #2]
 660:	ea88 0803 	eor.w	r8, r8, r3
 664:	b2f3      	uxtb	r3, r6
 666:	ea4f 621e 	mov.w	r2, lr, lsr #24
 66a:	f503 7340 	add.w	r3, r3, #768	@ 0x300
 66e:	f854 0022 	ldr.w	r0, [r4, r2, lsl #2]
 672:	f854 3023 	ldr.w	r3, [r4, r3, lsl #2]
 676:	ea80 0003 	eor.w	r0, r0, r3
 67a:	6f2b      	ldr	r3, [r5, #112]	@ 0x70
 67c:	ea80 0003 	eor.w	r0, r0, r3
 680:	f3c8 4307 	ubfx	r3, r8, #16, #8
 684:	f503 7380 	add.w	r3, r3, #256	@ 0x100
 688:	fa5f f28c 	uxtb.w	r2, ip
 68c:	f854 3023 	ldr.w	r3, [r4, r3, lsl #2]
 690:	ea80 0003 	eor.w	r0, r0, r3
 694:	f3cc 2307 	ubfx	r3, ip, #8, #8
 698:	f503 7300 	add.w	r3, r3, #512	@ 0x200
 69c:	f502 7240 	add.w	r2, r2, #768	@ 0x300
 6a0:	f854 3023 	ldr.w	r3, [r4, r3, lsl #2]
 6a4:	f854 2022 	ldr.w	r2, [r4, r2, lsl #2]
 6a8:	ea80 0003 	eor.w	r0, r0, r3
 6ac:	ea4f 6316 	mov.w	r3, r6, lsr #24
 6b0:	fa5f f188 	uxtb.w	r1, r8
 6b4:	f854 3023 	ldr.w	r3, [r4, r3, lsl #2]
 6b8:	ea82 0203 	eor.w	r2, r2, r3
 6bc:	6f6b      	ldr	r3, [r5, #116]	@ 0x74
 6be:	ea82 0203 	eor.w	r2, r2, r3
 6c2:	f3ce 4307 	ubfx	r3, lr, #16, #8
 6c6:	f503 7380 	add.w	r3, r3, #256	@ 0x100
 6ca:	f501 7140 	add.w	r1, r1, #768	@ 0x300
 6ce:	f854 3023 	ldr.w	r3, [r4, r3, lsl #2]
 6d2:	f854 1021 	ldr.w	r1, [r4, r1, lsl #2]
 6d6:	ea82 0203 	eor.w	r2, r2, r3
 6da:	f3c8 2307 	ubfx	r3, r8, #8, #8
 6de:	f503 7300 	add.w	r3, r3, #512	@ 0x200
 6e2:	ea4f 6818 	mov.w	r8, r8, lsr #24
 6e6:	f854 3023 	ldr.w	r3, [r4, r3, lsl #2]
 6ea:	ea82 0203 	eor.w	r2, r2, r3
 6ee:	ea4f 631c 	mov.w	r3, ip, lsr #24
 6f2:	f3cc 4c07 	ubfx	ip, ip, #16, #8
 6f6:	f854 3023 	ldr.w	r3, [r4, r3, lsl #2]
 6fa:	ea81 0103 	eor.w	r1, r1, r3
 6fe:	6fab      	ldr	r3, [r5, #120]	@ 0x78
 700:	ea81 0103 	eor.w	r1, r1, r3
 704:	f3c6 4307 	ubfx	r3, r6, #16, #8
 708:	f503 7380 	add.w	r3, r3, #256	@ 0x100
 70c:	f50c 7c80 	add.w	ip, ip, #256	@ 0x100
 710:	f854 3023 	ldr.w	r3, [r4, r3, lsl #2]
 714:	ea81 0103 	eor.w	r1, r1, r3
 718:	f3ce 2307 	ubfx	r3, lr, #8, #8
 71c:	f503 7300 	add.w	r3, r3, #512	@ 0x200
 720:	fa5f fe8e 	uxtb.w	lr, lr
 724:	f854 3023 	ldr.w	r3, [r4, r3, lsl #2]
 728:	f50e 7e40 	add.w	lr, lr, #768	@ 0x300
 72c:	ea81 0103 	eor.w	r1, r1, r3
 730:	f854 3028 	ldr.w	r3, [r4, r8, lsl #2]
 734:	f854 802e 	ldr.w	r8, [r4, lr, lsl #2]
 738:	ea83 0808 	eor.w	r8, r3, r8
 73c:	6feb      	ldr	r3, [r5, #124]	@ 0x7c
 73e:	f3c6 2607 	ubfx	r6, r6, #8, #8
 742:	ea88 0803 	eor.w	r8, r8, r3
 746:	f506 7600 	add.w	r6, r6, #512	@ 0x200
 74a:	f854 302c 	ldr.w	r3, [r4, ip, lsl #2]
 74e:	ea88 0803 	eor.w	r8, r8, r3
 752:	f854 3026 	ldr.w	r3, [r4, r6, lsl #2]
 756:	ea88 0803 	eor.w	r8, r8, r3
 75a:	b2d3      	uxtb	r3, r2
 75c:	ea4f 6610 	mov.w	r6, r0, lsr #24
 760:	f503 7340 	add.w	r3, r3, #768	@ 0x300
 764:	f854 6026 	ldr.w	r6, [r4, r6, lsl #2]
 768:	f854 3023 	ldr.w	r3, [r4, r3, lsl #2]
 76c:	ea86 0603 	eor.w	r6, r6, r3
 770:	f8d5 3080 	ldr.w	r3, [r5, #128]	@ 0x80
 774:	ea86 0603 	eor.w	r6, r6, r3
 778:	f3c8 4307 	ubfx	r3, r8, #16, #8
 77c:	f503 7380 	add.w	r3, r3, #256	@ 0x100
 780:	ea4f 6c12 	mov.w	ip, r2, lsr #24
 784:	f854 3023 	ldr.w	r3, [r4, r3, lsl #2]
 788:	f854 c02c 	ldr.w	ip, [r4, ip, lsl #2]
 78c:	ea86 0603 	eor.w	r6, r6, r3
 790:	f3c1 2307 	ubfx	r3, r1, #8, #8
 794:	f503 7300 	add.w	r3, r3, #512	@ 0x200
 798:	ea4f 6e11 	mov.w	lr, r1, lsr #24
 79c:	f854 3023 	ldr.w	r3, [r4, r3, lsl #2]
 7a0:	ea86 0603 	eor.w	r6, r6, r3
 7a4:	b2cb      	uxtb	r3, r1
 7a6:	f503 7340 	add.w	r3, r3, #768	@ 0x300
 7aa:	f3c1 4107 	ubfx	r1, r1, #16, #8
 7ae:	f854 3023 	ldr.w	r3, [r4, r3, lsl #2]
 7b2:	ea8c 0c03 	eor.w	ip, ip, r3
 7b6:	f8d5 3084 	ldr.w	r3, [r5, #132]	@ 0x84
 7ba:	ea8c 0c03 	eor.w	ip, ip, r3
 7be:	f3c0 4307 	ubfx	r3, r0, #16, #8
 7c2:	f503 7380 	add.w	r3, r3, #256	@ 0x100
 7c6:	f501 7180 	add.w	r1, r1, #256	@ 0x100
 7ca:	f854 3023 	ldr.w	r3, [r4, r3, lsl #2]
 7ce:	f854 e02e 	ldr.w	lr, [r4, lr, lsl #2]
 7d2:	ea8c 0c03 	eor.w	ip, ip, r3
 7d6:	f3c8 2307 	ubfx	r3, r8, #8, #8
 7da:	f503 7300 	add.w	r3, r3, #512	@ 0x200
 7de:	f854 3023 	ldr.w	r3, [r4, r3, lsl #2]
 7e2:	ea8c 0c03 	eor.w	ip, ip, r3
 7e6:	fa5f f388 	uxtb.w	r3, r8
 7ea:	f503 7340 	add.w	r3, r3, #768	@ 0x300
 7ee:	ea4f 6818 	mov.w	r8, r8, lsr #24
 7f2:	f854 3023 	ldr.w	r3, [r4, r3, lsl #2]
 7f6:	ea8e 0e03 	eor.w	lr, lr, r3
 7fa:	f8d5 3088 	ldr.w	r3, [r5, #136]	@ 0x88
 7fe:	ea8e 0e03 	eor.w	lr, lr, r3
 802:	f3c2 4307 	ubfx	r3, r2, #16, #8
 806:	f503 7380 	add.w	r3, r3, #256	@ 0x100
 80a:	f3c2 2207 	ubfx	r2, r2, #8, #8
 80e:	f854 3023 	ldr.w	r3, [r4, r3, lsl #2]
 812:	ea8e 0e03 	eor.w	lr, lr, r3
 816:	f3c0 2307 	ubfx	r3, r0, #8, #8
 81a:	f503 7300 	add.w	r3, r3, #512	@ 0x200
 81e:	b2c0      	uxtb	r0, r0
 820:	f854 3023 	ldr.w	r3, [r4, r3, lsl #2]
 824:	f500 7040 	add.w	r0, r0, #768	@ 0x300
 828:	ea8e 0e03 	eor.w	lr, lr, r3
 82c:	f854 0020 	ldr.w	r0, [r4, r0, lsl #2]
 830:	f854 3028 	ldr.w	r3, [r4, r8, lsl #2]
 834:	ea83 0800 	eor.w	r8, r3, r0
 838:	f8d5 308c 	ldr.w	r3, [r5, #140]	@ 0x8c
 83c:	f502 7200 	add.w	r2, r2, #512	@ 0x200
 840:	ea88 0803 	eor.w	r8, r8, r3
 844:	f854 3021 	ldr.w	r3, [r4, r1, lsl #2]
 848:	ea88 0803 	eor.w	r8, r8, r3
 84c:	f854 3022 	ldr.w	r3, [r4, r2, lsl #2]
 850:	ea88 0803 	eor.w	r8, r8, r3
 854:	fa5f f38c 	uxtb.w	r3, ip
 858:	ea4f 6216 	mov.w	r2, r6, lsr #24
 85c:	f503 7340 	add.w	r3, r3, #768	@ 0x300
 860:	f854 1022 	ldr.w	r1, [r4, r2, lsl #2]
 864:	f854 3023 	ldr.w	r3, [r4, r3, lsl #2]
 868:	ea81 0103 	eor.w	r1, r1, r3
 86c:	f8d5 3090 	ldr.w	r3, [r5, #144]	@ 0x90
 870:	ea81 0103 	eor.w	r1, r1, r3
 874:	f3c8 4307 	ubfx	r3, r8, #16, #8
 878:	f503 7380 	add.w	r3, r3, #256	@ 0x100
 87c:	fa5f f28e 	uxtb.w	r2, lr
 880:	f854 3023 	ldr.w	r3, [r4, r3, lsl #2]
 884:	ea81 0103 	eor.w	r1, r1, r3
 888:	f3ce 2307 	ubfx	r3, lr, #8, #8
 88c:	f503 7300 	add.w	r3, r3, #512	@ 0x200
 890:	f502 7240 	add.w	r2, r2, #768	@ 0x300
 894:	f854 3023 	ldr.w	r3, [r4, r3, lsl #2]
 898:	f854 2022 	ldr.w	r2, [r4, r2, lsl #2]
 89c:	ea81 0103 	eor.w	r1, r1, r3
 8a0:	ea4f 631c 	mov.w	r3, ip, lsr #24
 8a4:	ea4f 601e 	mov.w	r0, lr, lsr #24
 8a8:	f854 3023 	ldr.w	r3, [r4, r3, lsl #2]
 8ac:	f854 0020 	ldr.w	r0, [r4, r0, lsl #2]
 8b0:	ea82 0203 	eor.w	r2, r2, r3
 8b4:	f8d5 3094 	ldr.w	r3, [r5, #148]	@ 0x94
 8b8:	ea82 0203 	eor.w	r2, r2, r3
 8bc:	f3c6 4307 	ubfx	r3, r6, #16, #8
 8c0:	f503 7380 	add.w	r3, r3, #256	@ 0x100
 8c4:	f3ce 4e07 	ubfx	lr, lr, #16, #8
 8c8:	f854 3023 	ldr.w	r3, [r4, r3, lsl #2]
 8cc:	ea82 0203 	eor.w	r2, r2, r3
 8d0:	f3c8 2307 	ubfx	r3, r8, #8, #8
 8d4:	f503 7300 	add.w	r3, r3, #512	@ 0x200
 8d8:	f50e 7e80 	add.w	lr, lr, #256	@ 0x100
 8dc:	f854 3023 	ldr.w	r3, [r4, r3, lsl #2]
 8e0:	ea82 0203 	eor.w	r2, r2, r3
 8e4:	fa5f f388 	uxtb.w	r3, r8
 8e8:	f503 7340 	add.w	r3, r3, #768	@ 0x300
 8ec:	ea4f 6818 	mov.w	r8, r8, lsr #24
 8f0:	f854 3023 	ldr.w	r3, [r4, r3, lsl #2]
 8f4:	ea83 0300 	eor.w	r3, r3, r0
 8f8:	f8d5 0098 	ldr.w	r0, [r5, #152]	@ 0x98
 8fc:	ea83 0300 	eor.w	r3, r3, r0
 900:	f3cc 4007 	ubfx	r0, ip, #16, #8
 904:	f500 7080 	add.w	r0, r0, #256	@ 0x100
 908:	f3cc 2c07 	ubfx	ip, ip, #8, #8
 90c:	f854 0020 	ldr.w	r0, [r4, r0, lsl #2]
 910:	ea83 0300 	eor.w	r3, r3, r0
 914:	f3c6 2007 	ubfx	r0, r6, #8, #8
 918:	f500 7000 	add.w	r0, r0, #512	@ 0x200
 91c:	b2f6      	uxtb	r6, r6
 91e:	f854 0020 	ldr.w	r0, [r4, r0, lsl #2]
 922:	f506 7640 	add.w	r6, r6, #768	@ 0x300
 926:	ea83 0300 	eor.w	r3, r3, r0
 92a:	f854 6026 	ldr.w	r6, [r4, r6, lsl #2]
 92e:	f854 0028 	ldr.w	r0, [r4, r8, lsl #2]
 932:	9300      	str	r3, [sp, #0]
 934:	ea86 0600 	eor.w	r6, r6, r0
 938:	f8d5 009c 	ldr.w	r0, [r5, #156]	@ 0x9c
 93c:	f50c 7c00 	add.w	ip, ip, #512	@ 0x200
 940:	ea86 0600 	eor.w	r6, r6, r0
 944:	f854 002e 	ldr.w	r0, [r4, lr, lsl #2]
 948:	ea86 0600 	eor.w	r6, r6, r0
 94c:	f854 002c 	ldr.w	r0, [r4, ip, lsl #2]
 950:	ea86 0600 	eor.w	r6, r6, r0
 954:	f240 81e8 	bls.w	d28 <wc_AesCbcDecrypt+0xd28>
 958:	fa5f fc82 	uxtb.w	ip, r2
 95c:	0e08      	lsrs	r0, r1, #24
 95e:	f50c 7c40 	add.w	ip, ip, #768	@ 0x300
 962:	f854 0020 	ldr.w	r0, [r4, r0, lsl #2]
 966:	f854 802c 	ldr.w	r8, [r4, ip, lsl #2]
 96a:	ea80 0808 	eor.w	r8, r0, r8
 96e:	f8d5 00a0 	ldr.w	r0, [r5, #160]	@ 0xa0
 972:	ea88 0800 	eor.w	r8, r8, r0
 976:	f3c6 4007 	ubfx	r0, r6, #16, #8
 97a:	f500 7080 	add.w	r0, r0, #256	@ 0x100
 97e:	ea4f 6c12 	mov.w	ip, r2, lsr #24
 982:	f854 0020 	ldr.w	r0, [r4, r0, lsl #2]
 986:	f854 c02c 	ldr.w	ip, [r4, ip, lsl #2]
 98a:	ea88 0800 	eor.w	r8, r8, r0
 98e:	f3c3 2007 	ubfx	r0, r3, #8, #8
 992:	f500 7000 	add.w	r0, r0, #512	@ 0x200
 996:	ea4f 6e13 	mov.w	lr, r3, lsr #24
 99a:	f854 0020 	ldr.w	r0, [r4, r0, lsl #2]
 99e:	f854 e02e 	ldr.w	lr, [r4, lr, lsl #2]
 9a2:	ea88 0800 	eor.w	r8, r8, r0
 9a6:	f89d 0000 	ldrb.w	r0, [sp]
 9aa:	f500 7040 	add.w	r0, r0, #768	@ 0x300
 9ae:	f3c3 4307 	ubfx	r3, r3, #16, #8
 9b2:	f854 0020 	ldr.w	r0, [r4, r0, lsl #2]
 9b6:	ea8c 0c00 	eor.w	ip, ip, r0
 9ba:	f8d5 00a4 	ldr.w	r0, [r5, #164]	@ 0xa4
 9be:	ea8c 0c00 	eor.w	ip, ip, r0
 9c2:	f3c1 4007 	ubfx	r0, r1, #16, #8
 9c6:	f500 7080 	add.w	r0, r0, #256	@ 0x100
 9ca:	f503 7380 	add.w	r3, r3, #256	@ 0x100
 9ce:	f854 0020 	ldr.w	r0, [r4, r0, lsl #2]
 9d2:	f854 3023 	ldr.w	r3, [r4, r3, lsl #2]
 9d6:	ea8c 0c00 	eor.w	ip, ip, r0
 9da:	f3c6 2007 	ubfx	r0, r6, #8, #8
 9de:	f500 7000 	add.w	r0, r0, #512	@ 0x200
 9e2:	f1ba 0f06 	cmp.w	sl, #6
 9e6:	f854 0020 	ldr.w	r0, [r4, r0, lsl #2]
 9ea:	ea8c 0c00 	eor.w	ip, ip, r0
 9ee:	b2f0      	uxtb	r0, r6
 9f0:	f500 7040 	add.w	r0, r0, #768	@ 0x300
 9f4:	ea4f 6616 	mov.w	r6, r6, lsr #24
 9f8:	f854 0020 	ldr.w	r0, [r4, r0, lsl #2]
 9fc:	ea8e 0e00 	eor.w	lr, lr, r0
 a00:	f8d5 00a8 	ldr.w	r0, [r5, #168]	@ 0xa8
 a04:	ea8e 0e00 	eor.w	lr, lr, r0
 a08:	f3c2 4007 	ubfx	r0, r2, #16, #8
 a0c:	f500 7080 	add.w	r0, r0, #256	@ 0x100
 a10:	f3c2 2207 	ubfx	r2, r2, #8, #8
 a14:	f854 0020 	ldr.w	r0, [r4, r0, lsl #2]
 a18:	ea8e 0e00 	eor.w	lr, lr, r0
 a1c:	f3c1 2007 	ubfx	r0, r1, #8, #8
 a20:	f500 7000 	add.w	r0, r0, #512	@ 0x200
 a24:	b2c9      	uxtb	r1, r1
 a26:	f854 0020 	ldr.w	r0, [r4, r0, lsl #2]
 a2a:	f501 7140 	add.w	r1, r1, #768	@ 0x300
 a2e:	ea8e 0e00 	eor.w	lr, lr, r0
 a32:	f854 0026 	ldr.w	r0, [r4, r6, lsl #2]
 a36:	f854 6021 	ldr.w	r6, [r4, r1, lsl #2]
 a3a:	f8d5 10ac 	ldr.w	r1, [r5, #172]	@ 0xac
 a3e:	ea86 0600 	eor.w	r6, r6, r0
 a42:	f502 7200 	add.w	r2, r2, #512	@ 0x200
 a46:	ea86 0601 	eor.w	r6, r6, r1
 a4a:	ea86 0603 	eor.w	r6, r6, r3
 a4e:	f854 3022 	ldr.w	r3, [r4, r2, lsl #2]
 a52:	ea86 0603 	eor.w	r6, r6, r3
 a56:	fa5f f38c 	uxtb.w	r3, ip
 a5a:	ea4f 6218 	mov.w	r2, r8, lsr #24
 a5e:	f503 7340 	add.w	r3, r3, #768	@ 0x300
 a62:	f854 1022 	ldr.w	r1, [r4, r2, lsl #2]
 a66:	f854 3023 	ldr.w	r3, [r4, r3, lsl #2]
 a6a:	ea81 0103 	eor.w	r1, r1, r3
 a6e:	f8d5 30b0 	ldr.w	r3, [r5, #176]	@ 0xb0
 a72:	ea81 0103 	eor.w	r1, r1, r3
 a76:	f3c6 4307 	ubfx	r3, r6, #16, #8
 a7a:	f503 7380 	add.w	r3, r3, #256	@ 0x100
 a7e:	fa5f f28e 	uxtb.w	r2, lr
 a82:	f854 3023 	ldr.w	r3, [r4, r3, lsl #2]
 a86:	ea81 0103 	eor.w	r1, r1, r3
 a8a:	f3ce 2307 	ubfx	r3, lr, #8, #8
 a8e:	f503 7300 	add.w	r3, r3, #512	@ 0x200
 a92:	f502 7240 	add.w	r2, r2, #768	@ 0x300
 a96:	f854 3023 	ldr.w	r3, [r4, r3, lsl #2]
 a9a:	f854 2022 	ldr.w	r2, [r4, r2, lsl #2]
 a9e:	ea81 0103 	eor.w	r1, r1, r3
 aa2:	ea4f 631c 	mov.w	r3, ip, lsr #24
 aa6:	ea4f 601e 	mov.w	r0, lr, lsr #24
 aaa:	f854 3023 	ldr.w	r3, [r4, r3, lsl #2]
 aae:	f854 0020 	ldr.w	r0, [r4, r0, lsl #2]
 ab2:	ea82 0203 	eor.w	r2, r2, r3
 ab6:	f8d5 30b4 	ldr.w	r3, [r5, #180]	@ 0xb4
 aba:	ea82 0203 	eor.w	r2, r2, r3
 abe:	f3c8 4307 	ubfx	r3, r8, #16, #8
 ac2:	f503 7380 	add.w	r3, r3, #256	@ 0x100
 ac6:	f3ce 4e07 	ubfx	lr, lr, #16, #8
 aca:	f854 3023 	ldr.w	r3, [r4, r3, lsl #2]
 ace:	ea82 0203 	eor.w	r2, r2, r3
 ad2:	f3c6 2307 	ubfx	r3, r6, #8, #8
 ad6:	f503 7300 	add.w	r3, r3, #512	@ 0x200
 ada:	f50e 7e80 	add.w	lr, lr, #256	@ 0x100
 ade:	f854 3023 	ldr.w	r3, [r4, r3, lsl #2]
 ae2:	ea82 0203 	eor.w	r2, r2, r3
 ae6:	b2f3      	uxtb	r3, r6
 ae8:	f503 7340 	add.w	r3, r3, #768	@ 0x300
 aec:	ea4f 6616 	mov.w	r6, r6, lsr #24
 af0:	f854 3023 	ldr.w	r3, [r4, r3, lsl #2]
 af4:	ea83 0300 	eor.w	r3, r3, r0
 af8:	f8d5 00b8 	ldr.w	r0, [r5, #184]	@ 0xb8
 afc:	ea83 0300 	eor.w	r3, r3, r0
 b00:	f3cc 4007 	ubfx	r0, ip, #16, #8
 b04:	f500 7080 	add.w	r0, r0, #256	@ 0x100
 b08:	f3cc 2c07 	ubfx	ip, ip, #8, #8
 b0c:	f854 0020 	ldr.w	r0, [r4, r0, lsl #2]
 b10:	ea83 0300 	eor.w	r3, r3, r0
 b14:	f3c8 2007 	ubfx	r0, r8, #8, #8
 b18:	f500 7000 	add.w	r0, r0, #512	@ 0x200
 b1c:	fa5f f888 	uxtb.w	r8, r8
 b20:	f854 0020 	ldr.w	r0, [r4, r0, lsl #2]
 b24:	f508 7840 	add.w	r8, r8, #768	@ 0x300
 b28:	ea83 0300 	eor.w	r3, r3, r0
 b2c:	f854 0026 	ldr.w	r0, [r4, r6, lsl #2]
 b30:	f854 6028 	ldr.w	r6, [r4, r8, lsl #2]
 b34:	9300      	str	r3, [sp, #0]
 b36:	ea86 0600 	eor.w	r6, r6, r0
 b3a:	f8d5 00bc 	ldr.w	r0, [r5, #188]	@ 0xbc
 b3e:	f50c 7c00 	add.w	ip, ip, #512	@ 0x200
 b42:	ea86 0600 	eor.w	r6, r6, r0
 b46:	f854 002e 	ldr.w	r0, [r4, lr, lsl #2]
 b4a:	ea86 0600 	eor.w	r6, r6, r0
 b4e:	f854 002c 	ldr.w	r0, [r4, ip, lsl #2]
 b52:	ea86 0600 	eor.w	r6, r6, r0
 b56:	f000 80e7 	beq.w	d28 <wc_AesCbcDecrypt+0xd28>
 b5a:	fa5f fc82 	uxtb.w	ip, r2
 b5e:	0e08      	lsrs	r0, r1, #24
 b60:	f50c 7c40 	add.w	ip, ip, #768	@ 0x300
 b64:	f854 0020 	ldr.w	r0, [r4, r0, lsl #2]
 b68:	f854 802c 	ldr.w	r8, [r4, ip, lsl #2]
 b6c:	ea80 0808 	eor.w	r8, r0, r8
 b70:	f8d5 00c0 	ldr.w	r0, [r5, #192]	@ 0xc0
 b74:	ea88 0800 	eor.w	r8, r8, r0
 b78:	f3c6 4007 	ubfx	r0, r6, #16, #8
 b7c:	f500 7080 	add.w	r0, r0, #256	@ 0x100
 b80:	ea4f 6c12 	mov.w	ip, r2, lsr #24
 b84:	f854 0020 	ldr.w	r0, [r4, r0, lsl #2]
 b88:	f854 c02c 	ldr.w	ip, [r4, ip, lsl #2]
 b8c:	ea88 0800 	eor.w	r8, r8, r0
 b90:	f3c3 2007 	ubfx	r0, r3, #8, #8
 b94:	f500 7000 	add.w	r0, r0, #512	@ 0x200
 b98:	ea4f 6e13 	mov.w	lr, r3, lsr #24
 b9c:	f854 0020 	ldr.w	r0, [r4, r0, lsl #2]
 ba0:	f854 e02e 	ldr.w	lr, [r4, lr, lsl #2]
 ba4:	ea88 0800 	eor.w	r8, r8, r0
 ba8:	f89d 0000 	ldrb.w	r0, [sp]
 bac:	f500 7040 	add.w	r0, r0, #768	@ 0x300
 bb0:	f3c3 4307 	ubfx	r3, r3, #16, #8
 bb4:	f854 0020 	ldr.w	r0, [r4, r0, lsl #2]
 bb8:	ea8c 0c00 	eor.w	ip, ip, r0
 bbc:	f8d5 00c4 	ldr.w	r0, [r5, #196]	@ 0xc4
 bc0:	ea8c 0c00 	eor.w	ip, ip, r0
 bc4:	f3c1 4007 	ubfx	r0, r1, #16, #8
 bc8:	f500 7080 	add.w	r0, r0, #256	@ 0x100
 bcc:	f503 7380 	add.w	r3, r3, #256	@ 0x100
 bd0:	f854 0020 	ldr.w	r0, [r4, r0, lsl #2]
 bd4:	f854 3023 	ldr.w	r3, [r4, r3, lsl #2]
 bd8:	ea8c 0c00 	eor.w	ip, ip, r0
 bdc:	f3c6 2007 	ubfx	r0, r6, #8, #8
 be0:	f500 7000 	add.w	r0, r0, #512	@ 0x200
 be4:	f854 0020 	ldr.w	r0, [r4, r0, lsl #2]
 be8:	ea8c 0c00 	eor.w	ip, ip, r0
 bec:	b2f0      	uxtb	r0, r6
 bee:	f500 7040 	add.w	r0, r0, #768	@ 0x300
 bf2:	0e36      	lsrs	r6, r6, #24
 bf4:	f854 0020 	ldr.w	r0, [r4, r0, lsl #2]
 bf8:	ea8e 0e00 	eor.w	lr, lr, r0
 bfc:	f8d5 00c8 	ldr.w	r0, [r5, #200]	@ 0xc8
 c00:	ea8e 0e00 	eor.w	lr, lr, r0
 c04:	f3c2 4007 	ubfx	r0, r2, #16, #8
 c08:	f500 7080 	add.w	r0, r0, #256	@ 0x100
 c0c:	f3c2 2207 	ubfx	r2, r2, #8, #8
 c10:	f854 0020 	ldr.w	r0, [r4, r0, lsl #2]
 c14:	ea8e 0e00 	eor.w	lr, lr, r0
 c18:	f3c1 2007 	ubfx	r0, r1, #8, #8
 c1c:	f500 7000 	add.w	r0, r0, #512	@ 0x200
 c20:	b2c9      	uxtb	r1, r1
 c22:	f854 0020 	ldr.w	r0, [r4, r0, lsl #2]
 c26:	f501 7140 	add.w	r1, r1, #768	@ 0x300
 c2a:	ea8e 0e00 	eor.w	lr, lr, r0
 c2e:	f854 0026 	ldr.w	r0, [r4, r6, lsl #2]
 c32:	f854 6021 	ldr.w	r6, [r4, r1, lsl #2]
 c36:	f8d5 10cc 	ldr.w	r1, [r5, #204]	@ 0xcc
 c3a:	4046      	eors	r6, r0
 c3c:	f502 7200 	add.w	r2, r2, #512	@ 0x200
 c40:	404e      	eors	r6, r1
 c42:	405e      	eors	r6, r3
 c44:	f854 3022 	ldr.w	r3, [r4, r2, lsl #2]
 c48:	405e      	eors	r6, r3
 c4a:	fa5f f38c 	uxtb.w	r3, ip
 c4e:	ea4f 6218 	mov.w	r2, r8, lsr #24
 c52:	f503 7340 	add.w	r3, r3, #768	@ 0x300
 c56:	f854 1022 	ldr.w	r1, [r4, r2, lsl #2]
 c5a:	f854 3023 	ldr.w	r3, [r4, r3, lsl #2]
 c5e:	4059      	eors	r1, r3
 c60:	f8d5 30d0 	ldr.w	r3, [r5, #208]	@ 0xd0
 c64:	4059      	eors	r1, r3
 c66:	f3c6 4307 	ubfx	r3, r6, #16, #8
 c6a:	f503 7380 	add.w	r3, r3, #256	@ 0x100
 c6e:	fa5f f28e 	uxtb.w	r2, lr
 c72:	f854 3023 	ldr.w	r3, [r4, r3, lsl #2]
 c76:	4059      	eors	r1, r3
 c78:	f3ce 2307 	ubfx	r3, lr, #8, #8
 c7c:	f503 7300 	add.w	r3, r3, #512	@ 0x200
 c80:	f502 7240 	add.w	r2, r2, #768	@ 0x300
 c84:	f854 3023 	ldr.w	r3, [r4, r3, lsl #2]
 c88:	f854 2022 	ldr.w	r2, [r4, r2, lsl #2]
 c8c:	4059      	eors	r1, r3
 c8e:	ea4f 631c 	mov.w	r3, ip, lsr #24
 c92:	ea4f 601e 	mov.w	r0, lr, lsr #24
 c96:	f854 3023 	ldr.w	r3, [r4, r3, lsl #2]
 c9a:	f854 0020 	ldr.w	r0, [r4, r0, lsl #2]
 c9e:	405a      	eors	r2, r3
 ca0:	f8d5 30d4 	ldr.w	r3, [r5, #212]	@ 0xd4
 ca4:	405a      	eors	r2, r3
 ca6:	f3c8 4307 	ubfx	r3, r8, #16, #8
 caa:	f503 7380 	add.w	r3, r3, #256	@ 0x100
 cae:	f3ce 4e07 	ubfx	lr, lr, #16, #8
 cb2:	f854 3023 	ldr.w	r3, [r4, r3, lsl #2]
 cb6:	405a      	eors	r2, r3
 cb8:	f3c6 2307 	ubfx	r3, r6, #8, #8
 cbc:	f503 7300 	add.w	r3, r3, #512	@ 0x200
 cc0:	f50e 7e80 	add.w	lr, lr, #256	@ 0x100
 cc4:	f854 3023 	ldr.w	r3, [r4, r3, lsl #2]
 cc8:	405a      	eors	r2, r3
 cca:	b2f3      	uxtb	r3, r6
 ccc:	f503 7340 	add.w	r3, r3, #768	@ 0x300
 cd0:	0e36      	lsrs	r6, r6, #24
 cd2:	f854 3023 	ldr.w	r3, [r4, r3, lsl #2]
 cd6:	4043      	eors	r3, r0
 cd8:	f8d5 00d8 	ldr.w	r0, [r5, #216]	@ 0xd8
 cdc:	4043      	eors	r3, r0
 cde:	f3cc 4007 	ubfx	r0, ip, #16, #8
 ce2:	f500 7080 	add.w	r0, r0, #256	@ 0x100
 ce6:	f3cc 2c07 	ubfx	ip, ip, #8, #8
 cea:	f854 0020 	ldr.w	r0, [r4, r0, lsl #2]
 cee:	4043      	eors	r3, r0
 cf0:	f3c8 2007 	ubfx	r0, r8, #8, #8
 cf4:	f500 7000 	add.w	r0, r0, #512	@ 0x200
 cf8:	fa5f f888 	uxtb.w	r8, r8
 cfc:	f854 0020 	ldr.w	r0, [r4, r0, lsl #2]
 d00:	f508 7840 	add.w	r8, r8, #768	@ 0x300
 d04:	4043      	eors	r3, r0
 d06:	f854 0026 	ldr.w	r0, [r4, r6, lsl #2]
 d0a:	f854 6028 	ldr.w	r6, [r4, r8, lsl #2]
 d0e:	9300      	str	r3, [sp, #0]
 d10:	4046      	eors	r6, r0
 d12:	f8d5 00dc 	ldr.w	r0, [r5, #220]	@ 0xdc
 d16:	f50c 7c00 	add.w	ip, ip, #512	@ 0x200
 d1a:	4046      	eors	r6, r0
 d1c:	f854 002e 	ldr.w	r0, [r4, lr, lsl #2]
 d20:	4046      	eors	r6, r0
 d22:	f854 002c 	ldr.w	r0, [r4, ip, lsl #2]
 d26:	4046      	eors	r6, r0
 d28:	0e10      	lsrs	r0, r2, #24
 d2a:	eb05 1e4a 	add.w	lr, r5, sl, lsl #5
 d2e:	f817 8000 	ldrb.w	r8, [r7, r0]
 d32:	f89d 0000 	ldrb.w	r0, [sp]
 d36:	9b00      	ldr	r3, [sp, #0]
 d38:	5c38      	ldrb	r0, [r7, r0]
 d3a:	ea40 6008 	orr.w	r0, r0, r8, lsl #24
 d3e:	f3c1 4807 	ubfx	r8, r1, #16, #8
 d42:	ea4f 1c4a 	mov.w	ip, sl, lsl #5
 d46:	f817 8008 	ldrb.w	r8, [r7, r8]
 d4a:	ea40 4008 	orr.w	r0, r0, r8, lsl #16
 d4e:	f3c6 2807 	ubfx	r8, r6, #8, #8
 d52:	f10b 0b10 	add.w	fp, fp, #16
 d56:	f817 a008 	ldrb.w	sl, [r7, r8]
 d5a:	ea40 2a0a 	orr.w	sl, r0, sl, lsl #8
 d5e:	f8de 0004 	ldr.w	r0, [lr, #4]
 d62:	ea8a 0a00 	eor.w	sl, sl, r0
 d66:	0e18      	lsrs	r0, r3, #24
 d68:	f8de 3008 	ldr.w	r3, [lr, #8]
 d6c:	f817 8000 	ldrb.w	r8, [r7, r0]
 d70:	b2f0      	uxtb	r0, r6
 d72:	5c38      	ldrb	r0, [r7, r0]
 d74:	ea40 6008 	orr.w	r0, r0, r8, lsl #24
 d78:	f3c2 4807 	ubfx	r8, r2, #16, #8
 d7c:	f817 8008 	ldrb.w	r8, [r7, r8]
 d80:	ea40 4008 	orr.w	r0, r0, r8, lsl #16
 d84:	f3c1 2807 	ubfx	r8, r1, #8, #8
 d88:	f817 8008 	ldrb.w	r8, [r7, r8]
 d8c:	ea40 2008 	orr.w	r0, r0, r8, lsl #8
 d90:	4043      	eors	r3, r0
 d92:	0e30      	lsrs	r0, r6, #24
 d94:	9302      	str	r3, [sp, #8]
 d96:	f817 8000 	ldrb.w	r8, [r7, r0]
 d9a:	9b00      	ldr	r3, [sp, #0]
 d9c:	b2c8      	uxtb	r0, r1
 d9e:	0e09      	lsrs	r1, r1, #24
 da0:	5c38      	ldrb	r0, [r7, r0]
 da2:	5c79      	ldrb	r1, [r7, r1]
 da4:	ea40 6008 	orr.w	r0, r0, r8, lsl #24
 da8:	f3c3 4807 	ubfx	r8, r3, #16, #8
 dac:	f3c6 4607 	ubfx	r6, r6, #16, #8
 db0:	f817 8008 	ldrb.w	r8, [r7, r8]
 db4:	ea40 4008 	orr.w	r0, r0, r8, lsl #16
 db8:	f3c2 2807 	ubfx	r8, r2, #8, #8
 dbc:	b2d2      	uxtb	r2, r2
 dbe:	f817 8008 	ldrb.w	r8, [r7, r8]
 dc2:	5cba      	ldrb	r2, [r7, r2]
 dc4:	ea40 2808 	orr.w	r8, r0, r8, lsl #8
 dc8:	f8de 000c 	ldr.w	r0, [lr, #12]
 dcc:	f3c3 2307 	ubfx	r3, r3, #8, #8
 dd0:	ea88 0800 	eor.w	r8, r8, r0
 dd4:	5db8      	ldrb	r0, [r7, r6]
 dd6:	5cfb      	ldrb	r3, [r7, r3]
 dd8:	ea42 6201 	orr.w	r2, r2, r1, lsl #24
 ddc:	ea42 4000 	orr.w	r0, r2, r0, lsl #16
 de0:	ea40 2303 	orr.w	r3, r0, r3, lsl #8
 de4:	f855 000c 	ldr.w	r0, [r5, ip]
 de8:	4058      	eors	r0, r3
 dea:	f7ff fffe 	bl	0 <wc_AesCbcDecrypt>
 dee:	9004      	str	r0, [sp, #16]
 df0:	4650      	mov	r0, sl
 df2:	f7ff fffe 	bl	0 <wc_AesCbcDecrypt>
 df6:	9005      	str	r0, [sp, #20]
 df8:	9802      	ldr	r0, [sp, #8]
 dfa:	f7ff fffe 	bl	0 <wc_AesCbcDecrypt>
 dfe:	9006      	str	r0, [sp, #24]
 e00:	4640      	mov	r0, r8
 e02:	f7ff fffe 	bl	0 <wc_AesCbcDecrypt>
 e06:	2204      	movs	r2, #4
 e08:	9007      	str	r0, [sp, #28]
 e0a:	a904      	add	r1, sp, #16
 e0c:	4648      	mov	r0, r9
 e0e:	f7ff fffe 	bl	0 <memcpy>
 e12:	2204      	movs	r2, #4
 e14:	eb09 0002 	add.w	r0, r9, r2
 e18:	a905      	add	r1, sp, #20
 e1a:	f7ff fffe 	bl	0 <memcpy>
 e1e:	2204      	movs	r2, #4
 e20:	a906      	add	r1, sp, #24
 e22:	f109 0008 	add.w	r0, r9, #8
 e26:	f7ff fffe 	bl	0 <memcpy>
 e2a:	f105 06f8 	add.w	r6, r5, #248	@ 0xf8
 e2e:	2204      	movs	r2, #4
 e30:	a907      	add	r1, sp, #28
 e32:	f109 000c 	add.w	r0, r9, #12
 e36:	f7ff fffe 	bl	0 <memcpy>
 e3a:	4648      	mov	r0, r9
 e3c:	2210      	movs	r2, #16
 e3e:	4631      	mov	r1, r6
 e40:	f7ff fffe 	bl	0 <wc_AesCbcDecrypt>
 e44:	9901      	ldr	r1, [sp, #4]
 e46:	2210      	movs	r2, #16
 e48:	4630      	mov	r0, r6
 e4a:	f7ff fffe 	bl	0 <memcpy>
 e4e:	f109 0910 	add.w	r9, r9, #16
 e52:	f7ff b8fb 	b.w	4c <wc_AesCbcDecrypt+0x4c>
 e56:	f06f 00ac 	mvn.w	r0, #172	@ 0xac
 e5a:	f7ff b8e2 	b.w	22 <wc_AesCbcDecrypt+0x22>
 e5e:	f06f 00e1 	mvn.w	r0, #225	@ 0xe1
 e62:	f7ff b8de 	b.w	22 <wc_AesCbcDecrypt+0x22>
 e66:	bf00      	nop

Disassembly of section .text.wc_AesGcmSetKey:

00000000 <wc_AesGcmSetKey>:
   0:	b570      	push	{r4, r5, r6, lr}
   2:	4616      	mov	r6, r2
   4:	3a10      	subs	r2, #16
   6:	2a10      	cmp	r2, #16
   8:	b086      	sub	sp, #24
   a:	4604      	mov	r4, r0
   c:	460d      	mov	r5, r1
   e:	d81b      	bhi.n	48 <wc_AesGcmSetKey+0x48>
  10:	4b0f      	ldr	r3, [pc, #60]	@ (50 <wc_AesGcmSetKey+0x50>)
  12:	40d3      	lsrs	r3, r2
  14:	07db      	lsls	r3, r3, #31
  16:	d517      	bpl.n	48 <wc_AesGcmSetKey+0x48>
  18:	b1b0      	cbz	r0, 48 <wc_AesGcmSetKey+0x48>
  1a:	b1a9      	cbz	r1, 48 <wc_AesGcmSetKey+0x48>
  1c:	2210      	movs	r2, #16
  1e:	2100      	movs	r1, #0
  20:	a802      	add	r0, sp, #8
  22:	f7ff fffe 	bl	0 <memset>
  26:	2300      	movs	r3, #0
  28:	9300      	str	r3, [sp, #0]
  2a:	4632      	mov	r2, r6
  2c:	ab02      	add	r3, sp, #8
  2e:	4629      	mov	r1, r5
  30:	4620      	mov	r0, r4
  32:	f7ff fffe 	bl	0 <wc_AesGcmSetKey>
  36:	b928      	cbnz	r0, 44 <wc_AesGcmSetKey+0x44>
  38:	f504 7292 	add.w	r2, r4, #292	@ 0x124
  3c:	a902      	add	r1, sp, #8
  3e:	4620      	mov	r0, r4
  40:	f7ff fffe 	bl	0 <wc_AesGcmSetKey>
  44:	b006      	add	sp, #24
  46:	bd70      	pop	{r4, r5, r6, pc}
  48:	f06f 00ac 	mvn.w	r0, #172	@ 0xac
  4c:	e7fa      	b.n	44 <wc_AesGcmSetKey+0x44>
  4e:	bf00      	nop
  50:	00010101 	.word	0x00010101

Disassembly of section .text.GHASH:

00000000 <GHASH>:
   0:	e92d 47f0 	stmdb	sp!, {r4, r5, r6, r7, r8, r9, sl, lr}
   4:	b088      	sub	sp, #32
   6:	4688      	mov	r8, r1
   8:	9d10      	ldr	r5, [sp, #64]	@ 0x40
   a:	4614      	mov	r4, r2
   c:	461e      	mov	r6, r3
   e:	4607      	mov	r7, r0
  10:	2800      	cmp	r0, #0
  12:	d06c      	beq.n	ee <GHASH+0xee>
  14:	2210      	movs	r2, #16
  16:	2100      	movs	r1, #0
  18:	4668      	mov	r0, sp
  1a:	f7ff fffe 	bl	0 <memset>
  1e:	b30c      	cbz	r4, 64 <GHASH+0x64>
  20:	f1b8 0f00 	cmp.w	r8, #0
  24:	d01e      	beq.n	64 <GHASH+0x64>
  26:	f024 090f 	bic.w	r9, r4, #15
  2a:	f004 0a0f 	and.w	sl, r4, #15
  2e:	44c1      	add	r9, r8
  30:	45c8      	cmp	r8, r9
  32:	d15f      	bne.n	f4 <GHASH+0xf4>
  34:	f1ba 0f00 	cmp.w	sl, #0
  38:	d014      	beq.n	64 <GHASH+0x64>
  3a:	2210      	movs	r2, #16
  3c:	2100      	movs	r1, #0
  3e:	eb0d 0002 	add.w	r0, sp, r2
  42:	f7ff fffe 	bl	0 <memset>
  46:	4652      	mov	r2, sl
  48:	4641      	mov	r1, r8
  4a:	a804      	add	r0, sp, #16
  4c:	f7ff fffe 	bl	0 <memcpy>
  50:	2210      	movs	r2, #16
  52:	eb0d 0102 	add.w	r1, sp, r2
  56:	4668      	mov	r0, sp
  58:	f7ff fffe 	bl	0 <GHASH>
  5c:	4639      	mov	r1, r7
  5e:	4668      	mov	r0, sp
  60:	f7ff fffe 	bl	0 <GHASH>
  64:	b1fd      	cbz	r5, a6 <GHASH+0xa6>
  66:	b1f6      	cbz	r6, a6 <GHASH+0xa6>
  68:	f025 080f 	bic.w	r8, r5, #15
  6c:	f005 090f 	and.w	r9, r5, #15
  70:	44b0      	add	r8, r6
  72:	4546      	cmp	r6, r8
  74:	d14a      	bne.n	10c <GHASH+0x10c>
  76:	f1b9 0f00 	cmp.w	r9, #0
  7a:	d014      	beq.n	a6 <GHASH+0xa6>
  7c:	2210      	movs	r2, #16
  7e:	2100      	movs	r1, #0
  80:	eb0d 0002 	add.w	r0, sp, r2
  84:	f7ff fffe 	bl	0 <memset>
  88:	464a      	mov	r2, r9
  8a:	4631      	mov	r1, r6
  8c:	a804      	add	r0, sp, #16
  8e:	f7ff fffe 	bl	0 <memcpy>
  92:	2210      	movs	r2, #16
  94:	eb0d 0102 	add.w	r1, sp, r2
  98:	4668      	mov	r0, sp
  9a:	f7ff fffe 	bl	0 <GHASH>
  9e:	4639      	mov	r1, r7
  a0:	4668      	mov	r0, sp
  a2:	f7ff fffe 	bl	0 <GHASH>
  a6:	2300      	movs	r3, #0
  a8:	0f62      	lsrs	r2, r4, #29
  aa:	f8ad 3010 	strh.w	r3, [sp, #16]
  ae:	f88d 3012 	strb.w	r3, [sp, #18]
  b2:	f8ad 3018 	strh.w	r3, [sp, #24]
  b6:	f88d 301a 	strb.w	r3, [sp, #26]
  ba:	0f6b      	lsrs	r3, r5, #29
  bc:	f88d 2013 	strb.w	r2, [sp, #19]
  c0:	f88d 301b 	strb.w	r3, [sp, #27]
  c4:	2210      	movs	r2, #16
  c6:	00e4      	lsls	r4, r4, #3
  c8:	00eb      	lsls	r3, r5, #3
  ca:	eb0d 0102 	add.w	r1, sp, r2
  ce:	ba1b      	rev	r3, r3
  d0:	4668      	mov	r0, sp
  d2:	ba24      	rev	r4, r4
  d4:	9307      	str	r3, [sp, #28]
  d6:	9405      	str	r4, [sp, #20]
  d8:	f7ff fffe 	bl	0 <GHASH>
  dc:	4639      	mov	r1, r7
  de:	4668      	mov	r0, sp
  e0:	f7ff fffe 	bl	0 <GHASH>
  e4:	9a12      	ldr	r2, [sp, #72]	@ 0x48
  e6:	9811      	ldr	r0, [sp, #68]	@ 0x44
  e8:	4669      	mov	r1, sp
  ea:	f7ff fffe 	bl	0 <memcpy>
  ee:	b008      	add	sp, #32
  f0:	e8bd 87f0 	ldmia.w	sp!, {r4, r5, r6, r7, r8, r9, sl, pc}
  f4:	4641      	mov	r1, r8
  f6:	2210      	movs	r2, #16
  f8:	4668      	mov	r0, sp
  fa:	f7ff fffe 	bl	0 <GHASH>
  fe:	4639      	mov	r1, r7
 100:	4668      	mov	r0, sp
 102:	f7ff fffe 	bl	0 <GHASH>
 106:	f108 0810 	add.w	r8, r8, #16
 10a:	e791      	b.n	30 <GHASH+0x30>
 10c:	4631      	mov	r1, r6
 10e:	2210      	movs	r2, #16
 110:	4668      	mov	r0, sp
 112:	f7ff fffe 	bl	0 <GHASH>
 116:	4639      	mov	r1, r7
 118:	4668      	mov	r0, sp
 11a:	f7ff fffe 	bl	0 <GHASH>
 11e:	3610      	adds	r6, #16
 120:	e7a7      	b.n	72 <GHASH+0x72>

Disassembly of section .text.wc_AesGcmEncrypt:

00000000 <wc_AesGcmEncrypt>:
   0:	e92d 4ff0 	stmdb	sp!, {r4, r5, r6, r7, r8, r9, sl, fp, lr}
   4:	b093      	sub	sp, #76	@ 0x4c
   6:	4616      	mov	r6, r2
   8:	461d      	mov	r5, r3
   a:	9f1f      	ldr	r7, [sp, #124]	@ 0x7c
   c:	e9dd 321c 	ldrd	r3, r2, [sp, #112]	@ 0x70
  10:	4688      	mov	r8, r1
  12:	4604      	mov	r4, r0
  14:	2800      	cmp	r0, #0
  16:	d07b      	beq.n	110 <wc_AesGcmEncrypt+0x110>
  18:	2f10      	cmp	r7, #16
  1a:	d879      	bhi.n	110 <wc_AesGcmEncrypt+0x110>
  1c:	2a00      	cmp	r2, #0
  1e:	d077      	beq.n	110 <wc_AesGcmEncrypt+0x110>
  20:	2f00      	cmp	r7, #0
  22:	d075      	beq.n	110 <wc_AesGcmEncrypt+0x110>
  24:	991e      	ldr	r1, [sp, #120]	@ 0x78
  26:	2900      	cmp	r1, #0
  28:	d072      	beq.n	110 <wc_AesGcmEncrypt+0x110>
  2a:	9921      	ldr	r1, [sp, #132]	@ 0x84
  2c:	b111      	cbz	r1, 34 <wc_AesGcmEncrypt+0x34>
  2e:	9920      	ldr	r1, [sp, #128]	@ 0x80
  30:	2900      	cmp	r1, #0
  32:	d06d      	beq.n	110 <wc_AesGcmEncrypt+0x110>
  34:	2f0b      	cmp	r7, #11
  36:	d96b      	bls.n	110 <wc_AesGcmEncrypt+0x110>
  38:	2a0c      	cmp	r2, #12
  3a:	ea4f 1b15 	mov.w	fp, r5, lsr #4
  3e:	f10d 0a18 	add.w	sl, sp, #24
  42:	d145      	bne.n	d0 <wc_AesGcmEncrypt+0xd0>
  44:	4619      	mov	r1, r3
  46:	4650      	mov	r0, sl
  48:	f7ff fffe 	bl	0 <memcpy>
  4c:	2203      	movs	r2, #3
  4e:	2100      	movs	r1, #0
  50:	a809      	add	r0, sp, #36	@ 0x24
  52:	f7ff fffe 	bl	0 <memset>
  56:	2301      	movs	r3, #1
  58:	f88d 3027 	strb.w	r3, [sp, #39]	@ 0x27
  5c:	2210      	movs	r2, #16
  5e:	4651      	mov	r1, sl
  60:	a80a      	add	r0, sp, #40	@ 0x28
  62:	f7ff fffe 	bl	0 <memcpy>
  66:	eb08 1b0b 	add.w	fp, r8, fp, lsl #4
  6a:	46c1      	mov	r9, r8
  6c:	45d9      	cmp	r9, fp
  6e:	d13a      	bne.n	e6 <wc_AesGcmEncrypt+0xe6>
  70:	f015 0a0f 	ands.w	sl, r5, #15
  74:	d00f      	beq.n	96 <wc_AesGcmEncrypt+0x96>
  76:	a806      	add	r0, sp, #24
  78:	f7ff fffe 	bl	0 <wc_AesGcmEncrypt>
  7c:	a906      	add	r1, sp, #24
  7e:	aa0e      	add	r2, sp, #56	@ 0x38
  80:	4620      	mov	r0, r4
  82:	f7ff fffe 	bl	0 <wc_AesGcmEncrypt>
  86:	4603      	mov	r3, r0
  88:	b9f0      	cbnz	r0, c8 <wc_AesGcmEncrypt+0xc8>
  8a:	4653      	mov	r3, sl
  8c:	4632      	mov	r2, r6
  8e:	a90e      	add	r1, sp, #56	@ 0x38
  90:	4648      	mov	r0, r9
  92:	f7ff fffe 	bl	0 <wc_AesGcmEncrypt>
  96:	9b1e      	ldr	r3, [sp, #120]	@ 0x78
  98:	9702      	str	r7, [sp, #8]
  9a:	e9dd 1220 	ldrd	r1, r2, [sp, #128]	@ 0x80
  9e:	e9cd 5300 	strd	r5, r3, [sp]
  a2:	f504 7092 	add.w	r0, r4, #292	@ 0x124
  a6:	4643      	mov	r3, r8
  a8:	f7ff fffe 	bl	0 <wc_AesGcmEncrypt>
  ac:	aa0e      	add	r2, sp, #56	@ 0x38
  ae:	a90a      	add	r1, sp, #40	@ 0x28
  b0:	4620      	mov	r0, r4
  b2:	f7ff fffe 	bl	0 <wc_AesGcmEncrypt>
  b6:	4603      	mov	r3, r0
  b8:	b930      	cbnz	r0, c8 <wc_AesGcmEncrypt+0xc8>
  ba:	9005      	str	r0, [sp, #20]
  bc:	463a      	mov	r2, r7
  be:	981e      	ldr	r0, [sp, #120]	@ 0x78
  c0:	a90e      	add	r1, sp, #56	@ 0x38
  c2:	f7ff fffe 	bl	0 <wc_AesGcmEncrypt>
  c6:	9b05      	ldr	r3, [sp, #20]
  c8:	4618      	mov	r0, r3
  ca:	b013      	add	sp, #76	@ 0x4c
  cc:	e8bd 8ff0 	ldmia.w	sp!, {r4, r5, r6, r7, r8, r9, sl, fp, pc}
  d0:	2110      	movs	r1, #16
  d2:	9200      	str	r2, [sp, #0]
  d4:	2200      	movs	r2, #0
  d6:	e9cd a101 	strd	sl, r1, [sp, #4]
  da:	f504 7092 	add.w	r0, r4, #292	@ 0x124
  de:	4611      	mov	r1, r2
  e0:	f7ff fffe 	bl	0 <wc_AesGcmEncrypt>
  e4:	e7ba      	b.n	5c <wc_AesGcmEncrypt+0x5c>
  e6:	4650      	mov	r0, sl
  e8:	f7ff fffe 	bl	0 <wc_AesGcmEncrypt>
  ec:	4651      	mov	r1, sl
  ee:	aa0e      	add	r2, sp, #56	@ 0x38
  f0:	4620      	mov	r0, r4
  f2:	f7ff fffe 	bl	0 <wc_AesGcmEncrypt>
  f6:	4603      	mov	r3, r0
  f8:	2800      	cmp	r0, #0
  fa:	d1e5      	bne.n	c8 <wc_AesGcmEncrypt+0xc8>
  fc:	4632      	mov	r2, r6
  fe:	4648      	mov	r0, r9
 100:	2310      	movs	r3, #16
 102:	a90e      	add	r1, sp, #56	@ 0x38
 104:	f7ff fffe 	bl	0 <wc_AesGcmEncrypt>
 108:	3610      	adds	r6, #16
 10a:	f109 0910 	add.w	r9, r9, #16
 10e:	e7ad      	b.n	6c <wc_AesGcmEncrypt+0x6c>
 110:	f06f 03ac 	mvn.w	r3, #172	@ 0xac
 114:	e7d8      	b.n	c8 <wc_AesGcmEncrypt+0xc8>

Disassembly of section .text.wc_AesGcmDecrypt:

00000000 <wc_AesGcmDecrypt>:
   0:	e92d 4ff0 	stmdb	sp!, {r4, r5, r6, r7, r8, r9, sl, fp, lr}
   4:	b095      	sub	sp, #84	@ 0x54
   6:	4616      	mov	r6, r2
   8:	461c      	mov	r4, r3
   a:	460d      	mov	r5, r1
   c:	e9dd 321e 	ldrd	r3, r2, [sp, #120]	@ 0x78
  10:	4680      	mov	r8, r0
  12:	2800      	cmp	r0, #0
  14:	f000 808c 	beq.w	130 <wc_AesGcmDecrypt+0x130>
  18:	2b00      	cmp	r3, #0
  1a:	f000 8089 	beq.w	130 <wc_AesGcmDecrypt+0x130>
  1e:	b12c      	cbz	r4, 2c <wc_AesGcmDecrypt+0x2c>
  20:	2e00      	cmp	r6, #0
  22:	f000 8085 	beq.w	130 <wc_AesGcmDecrypt+0x130>
  26:	2900      	cmp	r1, #0
  28:	f000 8082 	beq.w	130 <wc_AesGcmDecrypt+0x130>
  2c:	9920      	ldr	r1, [sp, #128]	@ 0x80
  2e:	2900      	cmp	r1, #0
  30:	d07e      	beq.n	130 <wc_AesGcmDecrypt+0x130>
  32:	9921      	ldr	r1, [sp, #132]	@ 0x84
  34:	3901      	subs	r1, #1
  36:	290f      	cmp	r1, #15
  38:	d87a      	bhi.n	130 <wc_AesGcmDecrypt+0x130>
  3a:	2a00      	cmp	r2, #0
  3c:	d078      	beq.n	130 <wc_AesGcmDecrypt+0x130>
  3e:	2a0c      	cmp	r2, #12
  40:	f10d 0910 	add.w	r9, sp, #16
  44:	f508 7792 	add.w	r7, r8, #292	@ 0x124
  48:	d155      	bne.n	f6 <wc_AesGcmDecrypt+0xf6>
  4a:	4619      	mov	r1, r3
  4c:	4648      	mov	r0, r9
  4e:	f7ff fffe 	bl	0 <memcpy>
  52:	2203      	movs	r2, #3
  54:	2100      	movs	r1, #0
  56:	a807      	add	r0, sp, #28
  58:	f7ff fffe 	bl	0 <memset>
  5c:	2301      	movs	r3, #1
  5e:	f88d 301f 	strb.w	r3, [sp, #31]
  62:	f04f 0b10 	mov.w	fp, #16
  66:	f10d 0a30 	add.w	sl, sp, #48	@ 0x30
  6a:	e9dd 1222 	ldrd	r1, r2, [sp, #136]	@ 0x88
  6e:	4638      	mov	r0, r7
  70:	4633      	mov	r3, r6
  72:	e9cd 4a00 	strd	r4, sl, [sp]
  76:	f8cd b008 	str.w	fp, [sp, #8]
  7a:	f7ff fffe 	bl	0 <wc_AesGcmDecrypt>
  7e:	aa10      	add	r2, sp, #64	@ 0x40
  80:	4649      	mov	r1, r9
  82:	4640      	mov	r0, r8
  84:	f7ff fffe 	bl	0 <wc_AesGcmDecrypt>
  88:	4607      	mov	r7, r0
  8a:	bb88      	cbnz	r0, f0 <wc_AesGcmDecrypt+0xf0>
  8c:	465a      	mov	r2, fp
  8e:	a910      	add	r1, sp, #64	@ 0x40
  90:	4650      	mov	r0, sl
  92:	f7ff fffe 	bl	0 <wc_AesGcmDecrypt>
  96:	f024 0b0f 	bic.w	fp, r4, #15
  9a:	44ab      	add	fp, r5
  9c:	455d      	cmp	r5, fp
  9e:	d134      	bne.n	10a <wc_AesGcmDecrypt+0x10a>
  a0:	f014 040f 	ands.w	r4, r4, #15
  a4:	d012      	beq.n	cc <wc_AesGcmDecrypt+0xcc>
  a6:	4648      	mov	r0, r9
  a8:	f7ff fffe 	bl	0 <wc_AesGcmDecrypt>
  ac:	4649      	mov	r1, r9
  ae:	aa08      	add	r2, sp, #32
  b0:	4640      	mov	r0, r8
  b2:	f7ff fffe 	bl	0 <wc_AesGcmDecrypt>
  b6:	b9d8      	cbnz	r0, f0 <wc_AesGcmDecrypt+0xf0>
  b8:	4622      	mov	r2, r4
  ba:	4631      	mov	r1, r6
  bc:	a808      	add	r0, sp, #32
  be:	f7ff fffe 	bl	0 <wc_AesGcmDecrypt>
  c2:	4622      	mov	r2, r4
  c4:	a908      	add	r1, sp, #32
  c6:	4628      	mov	r0, r5
  c8:	f7ff fffe 	bl	0 <memcpy>
  cc:	e9dd 3220 	ldrd	r3, r2, [sp, #128]	@ 0x80
  d0:	189a      	adds	r2, r3, r2
  d2:	f813 1b01 	ldrb.w	r1, [r3], #1
  d6:	f81a 0b01 	ldrb.w	r0, [sl], #1
  da:	429a      	cmp	r2, r3
  dc:	ea81 0100 	eor.w	r1, r1, r0
  e0:	ea47 0701 	orr.w	r7, r7, r1
  e4:	d1f5      	bne.n	d2 <wc_AesGcmDecrypt+0xd2>
  e6:	2f00      	cmp	r7, #0
  e8:	bfcc      	ite	gt
  ea:	f06f 00b3 	mvngt.w	r0, #179	@ 0xb3
  ee:	2000      	movle	r0, #0
  f0:	b015      	add	sp, #84	@ 0x54
  f2:	e8bd 8ff0 	ldmia.w	sp!, {r4, r5, r6, r7, r8, r9, sl, fp, pc}
  f6:	2110      	movs	r1, #16
  f8:	9200      	str	r2, [sp, #0]
  fa:	2200      	movs	r2, #0
  fc:	e9cd 9101 	strd	r9, r1, [sp, #4]
 100:	4638      	mov	r0, r7
 102:	4611      	mov	r1, r2
 104:	f7ff fffe 	bl	0 <wc_AesGcmDecrypt>
 108:	e7ab      	b.n	62 <wc_AesGcmDecrypt+0x62>
 10a:	4648      	mov	r0, r9
 10c:	f7ff fffe 	bl	0 <wc_AesGcmDecrypt>
 110:	4649      	mov	r1, r9
 112:	aa08      	add	r2, sp, #32
 114:	4640      	mov	r0, r8
 116:	f7ff fffe 	bl	0 <wc_AesGcmDecrypt>
 11a:	2800      	cmp	r0, #0
 11c:	d1e8      	bne.n	f0 <wc_AesGcmDecrypt+0xf0>
 11e:	4632      	mov	r2, r6
 120:	4628      	mov	r0, r5
 122:	2310      	movs	r3, #16
 124:	a908      	add	r1, sp, #32
 126:	f7ff fffe 	bl	0 <wc_AesGcmDecrypt>
 12a:	3510      	adds	r5, #16
 12c:	3610      	adds	r6, #16
 12e:	e7b5      	b.n	9c <wc_AesGcmDecrypt+0x9c>
 130:	f06f 00ac 	mvn.w	r0, #172	@ 0xac
 134:	e7dc      	b.n	f0 <wc_AesGcmDecrypt+0xf0>

Disassembly of section .text.wc_AesGcmSetExtIV:

00000000 <wc_AesGcmSetExtIV>:
   0:	b538      	push	{r3, r4, r5, lr}
   2:	4615      	mov	r5, r2
   4:	4604      	mov	r4, r0
   6:	b1c0      	cbz	r0, 3a <wc_AesGcmSetExtIV+0x3a>
   8:	b1b9      	cbz	r1, 3a <wc_AesGcmSetExtIV+0x3a>
   a:	f1a2 0008 	sub.w	r0, r2, #8
   e:	2808      	cmp	r0, #8
  10:	d813      	bhi.n	3a <wc_AesGcmSetExtIV+0x3a>
  12:	f240 1311 	movw	r3, #273	@ 0x111
  16:	40c3      	lsrs	r3, r0
  18:	07db      	lsls	r3, r3, #31
  1a:	d50e      	bpl.n	3a <wc_AesGcmSetExtIV+0x3a>
  1c:	f104 00f8 	add.w	r0, r4, #248	@ 0xf8
  20:	f7ff fffe 	bl	0 <memcpy>
  24:	f1b5 030c 	subs.w	r3, r5, #12
  28:	bf18      	it	ne
  2a:	f04f 33ff 	movne.w	r3, #4294967295	@ 0xffffffff
  2e:	e9c4 3547 	strd	r3, r5, [r4, #284]	@ 0x11c
  32:	2000      	movs	r0, #0
  34:	f8c4 0118 	str.w	r0, [r4, #280]	@ 0x118
  38:	bd38      	pop	{r3, r4, r5, pc}
  3a:	f06f 00ac 	mvn.w	r0, #172	@ 0xac
  3e:	e7fb      	b.n	38 <wc_AesGcmSetExtIV+0x38>

Disassembly of section .text.wc_AesGcmSetIV:

00000000 <wc_AesGcmSetIV>:
   0:	e92d 41f0 	stmdb	sp!, {r4, r5, r6, r7, r8, lr}
   4:	f8dd 8018 	ldr.w	r8, [sp, #24]
   8:	460e      	mov	r6, r1
   a:	461d      	mov	r5, r3
   c:	4611      	mov	r1, r2
   e:	4604      	mov	r4, r0
  10:	b168      	cbz	r0, 2e <wc_AesGcmSetIV+0x2e>
  12:	f1b8 0f00 	cmp.w	r8, #0
  16:	d00a      	beq.n	2e <wc_AesGcmSetIV+0x2e>
  18:	f1a6 0208 	sub.w	r2, r6, #8
  1c:	2a08      	cmp	r2, #8
  1e:	d806      	bhi.n	2e <wc_AesGcmSetIV+0x2e>
  20:	f240 1311 	movw	r3, #273	@ 0x111
  24:	40d3      	lsrs	r3, r2
  26:	07db      	lsls	r3, r3, #31
  28:	d501      	bpl.n	2e <wc_AesGcmSetIV+0x2e>
  2a:	b919      	cbnz	r1, 34 <wc_AesGcmSetIV+0x34>
  2c:	b1dd      	cbz	r5, 66 <wc_AesGcmSetIV+0x66>
  2e:	f06f 00ac 	mvn.w	r0, #172	@ 0xac
  32:	e016      	b.n	62 <wc_AesGcmSetIV+0x62>
  34:	2d04      	cmp	r5, #4
  36:	d1fa      	bne.n	2e <wc_AesGcmSetIV+0x2e>
  38:	f100 07f8 	add.w	r7, r0, #248	@ 0xf8
  3c:	462a      	mov	r2, r5
  3e:	4638      	mov	r0, r7
  40:	f7ff fffe 	bl	0 <memcpy>
  44:	1b72      	subs	r2, r6, r5
  46:	1979      	adds	r1, r7, r5
  48:	4640      	mov	r0, r8
  4a:	f7ff fffe 	bl	0 <wc_RNG_GenerateBlock>
  4e:	b940      	cbnz	r0, 62 <wc_AesGcmSetIV+0x62>
  50:	f1b6 030c 	subs.w	r3, r6, #12
  54:	bf18      	it	ne
  56:	f04f 33ff 	movne.w	r3, #4294967295	@ 0xffffffff
  5a:	e9c4 3647 	strd	r3, r6, [r4, #284]	@ 0x11c
  5e:	f8c4 0118 	str.w	r0, [r4, #280]	@ 0x118
  62:	e8bd 81f0 	ldmia.w	sp!, {r4, r5, r6, r7, r8, pc}
  66:	f100 07f8 	add.w	r7, r0, #248	@ 0xf8
  6a:	e7eb      	b.n	44 <wc_AesGcmSetIV+0x44>

Disassembly of section .text.wc_AesGcmEncrypt_ex:

00000000 <wc_AesGcmEncrypt_ex>:
   0:	e92d 4ff0 	stmdb	sp!, {r4, r5, r6, r7, r8, r9, sl, fp, lr}
   4:	4604      	mov	r4, r0
   6:	b087      	sub	sp, #28
   8:	e9dd 0510 	ldrd	r0, r5, [sp, #64]	@ 0x40
   c:	e9dd 9a14 	ldrd	r9, sl, [sp, #80]	@ 0x50
  10:	460f      	mov	r7, r1
  12:	4690      	mov	r8, r2
  14:	469b      	mov	fp, r3
  16:	2c00      	cmp	r4, #0
  18:	d047      	beq.n	aa <wc_AesGcmEncrypt_ex+0xaa>
  1a:	b11b      	cbz	r3, 24 <wc_AesGcmEncrypt_ex+0x24>
  1c:	2a00      	cmp	r2, #0
  1e:	d044      	beq.n	aa <wc_AesGcmEncrypt_ex+0xaa>
  20:	2900      	cmp	r1, #0
  22:	d042      	beq.n	aa <wc_AesGcmEncrypt_ex+0xaa>
  24:	2800      	cmp	r0, #0
  26:	d040      	beq.n	aa <wc_AesGcmEncrypt_ex+0xaa>
  28:	f8d4 3120 	ldr.w	r3, [r4, #288]	@ 0x120
  2c:	42ab      	cmp	r3, r5
  2e:	d13c      	bne.n	aa <wc_AesGcmEncrypt_ex+0xaa>
  30:	f1b9 0f00 	cmp.w	r9, #0
  34:	d102      	bne.n	3c <wc_AesGcmEncrypt_ex+0x3c>
  36:	f1ba 0f00 	cmp.w	sl, #0
  3a:	d136      	bne.n	aa <wc_AesGcmEncrypt_ex+0xaa>
  3c:	f8d4 3118 	ldr.w	r3, [r4, #280]	@ 0x118
  40:	3301      	adds	r3, #1
  42:	f8c4 3118 	str.w	r3, [r4, #280]	@ 0x118
  46:	b33b      	cbz	r3, 98 <wc_AesGcmEncrypt_ex+0x98>
  48:	f104 06f8 	add.w	r6, r4, #248	@ 0xf8
  4c:	462a      	mov	r2, r5
  4e:	4631      	mov	r1, r6
  50:	f7ff fffe 	bl	0 <memcpy>
  54:	9b13      	ldr	r3, [sp, #76]	@ 0x4c
  56:	9303      	str	r3, [sp, #12]
  58:	9b12      	ldr	r3, [sp, #72]	@ 0x48
  5a:	9600      	str	r6, [sp, #0]
  5c:	e9cd 5301 	strd	r5, r3, [sp, #4]
  60:	e9cd 9a04 	strd	r9, sl, [sp, #16]
  64:	465b      	mov	r3, fp
  66:	4642      	mov	r2, r8
  68:	4639      	mov	r1, r7
  6a:	4620      	mov	r0, r4
  6c:	f7ff fffe 	bl	0 <wc_AesGcmEncrypt_ex>
  70:	b978      	cbnz	r0, 92 <wc_AesGcmEncrypt_ex+0x92>
  72:	35f8      	adds	r5, #248	@ 0xf8
  74:	4425      	add	r5, r4
  76:	f1c4 24ff 	rsb	r4, r4, #4278255360	@ 0xff00ff00
  7a:	f504 047f 	add.w	r4, r4, #16711680	@ 0xff0000
  7e:	3407      	adds	r4, #7
  80:	42ec      	cmn	r4, r5
  82:	d406      	bmi.n	92 <wc_AesGcmEncrypt_ex+0x92>
  84:	f815 3d01 	ldrb.w	r3, [r5, #-1]!
  88:	3301      	adds	r3, #1
  8a:	b2db      	uxtb	r3, r3
  8c:	702b      	strb	r3, [r5, #0]
  8e:	2b00      	cmp	r3, #0
  90:	d0f6      	beq.n	80 <wc_AesGcmEncrypt_ex+0x80>
  92:	b007      	add	sp, #28
  94:	e8bd 8ff0 	ldmia.w	sp!, {r4, r5, r6, r7, r8, r9, sl, fp, pc}
  98:	f8d4 611c 	ldr.w	r6, [r4, #284]	@ 0x11c
  9c:	3601      	adds	r6, #1
  9e:	f8c4 611c 	str.w	r6, [r4, #284]	@ 0x11c
  a2:	2e00      	cmp	r6, #0
  a4:	d1d0      	bne.n	48 <wc_AesGcmEncrypt_ex+0x48>
  a6:	4802      	ldr	r0, [pc, #8]	@ (b0 <wc_AesGcmEncrypt_ex+0xb0>)
  a8:	e7f3      	b.n	92 <wc_AesGcmEncrypt_ex+0x92>
  aa:	f06f 00ac 	mvn.w	r0, #172	@ 0xac
  ae:	e7f0      	b.n	92 <wc_AesGcmEncrypt_ex+0x92>
  b0:	fffffefc 	.word	0xfffffefc

Disassembly of section .text.wc_Gmac:

00000000 <wc_Gmac>:
   0:	e92d 4ff0 	stmdb	sp!, {r4, r5, r6, r7, r8, r9, sl, fp, lr}
   4:	b0d5      	sub	sp, #340	@ 0x154
   6:	468c      	mov	ip, r1
   8:	e9dd 9a5e 	ldrd	r9, sl, [sp, #376]	@ 0x178
   c:	e9dd 7860 	ldrd	r7, r8, [sp, #384]	@ 0x180
  10:	f8dd b188 	ldr.w	fp, [sp, #392]	@ 0x188
  14:	4615      	mov	r5, r2
  16:	461e      	mov	r6, r3
  18:	4601      	mov	r1, r0
  1a:	b3b8      	cbz	r0, 8c <wc_Gmac+0x8c>
  1c:	b3b2      	cbz	r2, 8c <wc_Gmac+0x8c>
  1e:	f1b9 0f00 	cmp.w	r9, #0
  22:	d102      	bne.n	2a <wc_Gmac+0x2a>
  24:	f1ba 0f00 	cmp.w	sl, #0
  28:	d130      	bne.n	8c <wc_Gmac+0x8c>
  2a:	b37f      	cbz	r7, 8c <wc_Gmac+0x8c>
  2c:	f1b8 0f00 	cmp.w	r8, #0
  30:	d02c      	beq.n	8c <wc_Gmac+0x8c>
  32:	f1bb 0f00 	cmp.w	fp, #0
  36:	d029      	beq.n	8c <wc_Gmac+0x8c>
  38:	ac06      	add	r4, sp, #24
  3a:	2300      	movs	r3, #0
  3c:	4662      	mov	r2, ip
  3e:	4620      	mov	r0, r4
  40:	f8c4 3134 	str.w	r3, [r4, #308]	@ 0x134
  44:	f8c4 30f0 	str.w	r3, [r4, #240]	@ 0xf0
  48:	f7ff fffe 	bl	0 <wc_Gmac>
  4c:	b9a0      	cbnz	r0, 78 <wc_Gmac+0x78>
  4e:	4603      	mov	r3, r0
  50:	4602      	mov	r2, r0
  52:	f8cd b000 	str.w	fp, [sp]
  56:	4631      	mov	r1, r6
  58:	4620      	mov	r0, r4
  5a:	f7ff fffe 	bl	0 <wc_Gmac>
  5e:	b958      	cbnz	r0, 78 <wc_Gmac+0x78>
  60:	4603      	mov	r3, r0
  62:	4602      	mov	r2, r0
  64:	4601      	mov	r1, r0
  66:	e9cd 9a04 	strd	r9, sl, [sp, #16]
  6a:	e9cd 7802 	strd	r7, r8, [sp, #8]
  6e:	e9cd 5600 	strd	r5, r6, [sp]
  72:	4620      	mov	r0, r4
  74:	f7ff fffe 	bl	0 <wc_Gmac>
  78:	2200      	movs	r2, #0
  7a:	4611      	mov	r1, r2
  7c:	54a1      	strb	r1, [r4, r2]
  7e:	3201      	adds	r2, #1
  80:	f5b2 7f9c 	cmp.w	r2, #312	@ 0x138
  84:	d1fa      	bne.n	7c <wc_Gmac+0x7c>
  86:	b055      	add	sp, #340	@ 0x154
  88:	e8bd 8ff0 	ldmia.w	sp!, {r4, r5, r6, r7, r8, r9, sl, fp, pc}
  8c:	f06f 00ac 	mvn.w	r0, #172	@ 0xac
  90:	e7f9      	b.n	86 <wc_Gmac+0x86>

Disassembly of section .text.wc_GmacVerify:

00000000 <wc_GmacVerify>:
   0:	e92d 47f0 	stmdb	sp!, {r4, r5, r6, r7, r8, r9, sl, lr}
   4:	b0d4      	sub	sp, #336	@ 0x150
   6:	468c      	mov	ip, r1
   8:	e9dd 895c 	ldrd	r8, r9, [sp, #368]	@ 0x170
   c:	e9dd 675e 	ldrd	r6, r7, [sp, #376]	@ 0x178
  10:	4615      	mov	r5, r2
  12:	469a      	mov	sl, r3
  14:	4601      	mov	r1, r0
  16:	b358      	cbz	r0, 70 <wc_GmacVerify+0x70>
  18:	b352      	cbz	r2, 70 <wc_GmacVerify+0x70>
  1a:	f1b8 0f00 	cmp.w	r8, #0
  1e:	d102      	bne.n	26 <wc_GmacVerify+0x26>
  20:	f1b9 0f00 	cmp.w	r9, #0
  24:	d124      	bne.n	70 <wc_GmacVerify+0x70>
  26:	b31e      	cbz	r6, 70 <wc_GmacVerify+0x70>
  28:	1e7b      	subs	r3, r7, #1
  2a:	2b0f      	cmp	r3, #15
  2c:	d820      	bhi.n	70 <wc_GmacVerify+0x70>
  2e:	ac06      	add	r4, sp, #24
  30:	2300      	movs	r3, #0
  32:	4662      	mov	r2, ip
  34:	4620      	mov	r0, r4
  36:	f8c4 3134 	str.w	r3, [r4, #308]	@ 0x134
  3a:	f8c4 30f0 	str.w	r3, [r4, #240]	@ 0xf0
  3e:	f7ff fffe 	bl	0 <wc_GmacVerify>
  42:	b958      	cbnz	r0, 5c <wc_GmacVerify+0x5c>
  44:	4603      	mov	r3, r0
  46:	4602      	mov	r2, r0
  48:	4601      	mov	r1, r0
  4a:	e9cd 8904 	strd	r8, r9, [sp, #16]
  4e:	e9cd 6702 	strd	r6, r7, [sp, #8]
  52:	e9cd 5a00 	strd	r5, sl, [sp]
  56:	4620      	mov	r0, r4
  58:	f7ff fffe 	bl	0 <wc_GmacVerify>
  5c:	2300      	movs	r3, #0
  5e:	461a      	mov	r2, r3
  60:	54e2      	strb	r2, [r4, r3]
  62:	3301      	adds	r3, #1
  64:	f5b3 7f9c 	cmp.w	r3, #312	@ 0x138
  68:	d1fa      	bne.n	60 <wc_GmacVerify+0x60>
  6a:	b054      	add	sp, #336	@ 0x150
  6c:	e8bd 87f0 	ldmia.w	sp!, {r4, r5, r6, r7, r8, r9, sl, pc}
  70:	f06f 00ac 	mvn.w	r0, #172	@ 0xac
  74:	e7f9      	b.n	6a <wc_GmacVerify+0x6a>

Disassembly of section .text.wc_GmacSetKey:

00000000 <wc_GmacSetKey>:
   0:	b110      	cbz	r0, 8 <wc_GmacSetKey+0x8>
   2:	b109      	cbz	r1, 8 <wc_GmacSetKey+0x8>
   4:	f7ff bffe 	b.w	0 <wc_GmacSetKey>
   8:	f06f 00ac 	mvn.w	r0, #172	@ 0xac
   c:	4770      	bx	lr

Disassembly of section .text.wc_GmacUpdate:

00000000 <wc_GmacUpdate>:
   0:	b510      	push	{r4, lr}
   2:	b086      	sub	sp, #24
   4:	b178      	cbz	r0, 26 <wc_GmacUpdate+0x26>
   6:	9c08      	ldr	r4, [sp, #32]
   8:	9100      	str	r1, [sp, #0]
   a:	e9cd 3404 	strd	r3, r4, [sp, #16]
   e:	9b0a      	ldr	r3, [sp, #40]	@ 0x28
  10:	9303      	str	r3, [sp, #12]
  12:	9b09      	ldr	r3, [sp, #36]	@ 0x24
  14:	e9cd 2301 	strd	r2, r3, [sp, #4]
  18:	2300      	movs	r3, #0
  1a:	461a      	mov	r2, r3
  1c:	4619      	mov	r1, r3
  1e:	f7ff fffe 	bl	0 <wc_GmacUpdate>
  22:	b006      	add	sp, #24
  24:	bd10      	pop	{r4, pc}
  26:	f06f 00ac 	mvn.w	r0, #172	@ 0xac
  2a:	e7fa      	b.n	22 <wc_GmacUpdate+0x22>

Disassembly of section .text.wc_AesInit:

00000000 <wc_AesInit>:
   0:	4603      	mov	r3, r0
   2:	b128      	cbz	r0, 10 <wc_AesInit+0x10>
   4:	f8c0 1134 	str.w	r1, [r0, #308]	@ 0x134
   8:	2000      	movs	r0, #0
   a:	f8c3 00f0 	str.w	r0, [r3, #240]	@ 0xf0
   e:	4770      	bx	lr
  10:	f06f 00ac 	mvn.w	r0, #172	@ 0xac
  14:	4770      	bx	lr

Disassembly of section .text.wc_AesFree:

00000000 <wc_AesFree>:
   0:	4770      	bx	lr

Disassembly of section .text.wc_AesGetKeySize:

00000000 <wc_AesGetKeySize>:
   0:	b190      	cbz	r0, 28 <wc_AesGetKeySize+0x28>
   2:	b189      	cbz	r1, 28 <wc_AesGetKeySize+0x28>
   4:	f8d0 30f0 	ldr.w	r3, [r0, #240]	@ 0xf0
   8:	2b0c      	cmp	r3, #12
   a:	d007      	beq.n	1c <wc_AesGetKeySize+0x1c>
   c:	2b0e      	cmp	r3, #14
   e:	d007      	beq.n	20 <wc_AesGetKeySize+0x20>
  10:	2b0a      	cmp	r3, #10
  12:	d107      	bne.n	24 <wc_AesGetKeySize+0x24>
  14:	2310      	movs	r3, #16
  16:	600b      	str	r3, [r1, #0]
  18:	2000      	movs	r0, #0
  1a:	4770      	bx	lr
  1c:	2318      	movs	r3, #24
  1e:	e7fa      	b.n	16 <wc_AesGetKeySize+0x16>
  20:	2320      	movs	r3, #32
  22:	e7f8      	b.n	16 <wc_AesGetKeySize+0x16>
  24:	2300      	movs	r3, #0
  26:	600b      	str	r3, [r1, #0]
  28:	f06f 00ac 	mvn.w	r0, #172	@ 0xac
  2c:	4770      	bx	lr

cmac.o:     file format elf32-littlearm


des3.o:     file format elf32-littlearm


dh.o:     file format elf32-littlearm


Disassembly of section .text._ffc_validate_public_key:

00000000 <_ffc_validate_public_key>:
   0:	e92d 41f0 	stmdb	sp!, {r4, r5, r6, r7, r8, lr}
   4:	f5ad 6d13 	sub.w	sp, sp, #2352	@ 0x930
   8:	460c      	mov	r4, r1
   a:	f8dd 794c 	ldr.w	r7, [sp, #2380]	@ 0x94c
   e:	4690      	mov	r8, r2
  10:	461e      	mov	r6, r3
  12:	4605      	mov	r5, r0
  14:	2800      	cmp	r0, #0
  16:	d05e      	beq.n	d6 <_ffc_validate_public_key+0xd6>
  18:	2900      	cmp	r1, #0
  1a:	d05c      	beq.n	d6 <_ffc_validate_public_key+0xd6>
  1c:	2300      	movs	r3, #0
  1e:	e9cd 3300 	strd	r3, r3, [sp]
  22:	f20d 6224 	addw	r2, sp, #1572	@ 0x624
  26:	a9c6      	add	r1, sp, #792	@ 0x318
  28:	a803      	add	r0, sp, #12
  2a:	f7ff fffe 	bl	0 <sp_init_multi>
  2e:	2800      	cmp	r0, #0
  30:	d154      	bne.n	dc <_ffc_validate_public_key+0xdc>
  32:	4621      	mov	r1, r4
  34:	4642      	mov	r2, r8
  36:	a803      	add	r0, sp, #12
  38:	f7ff fffe 	bl	0 <sp_read_unsigned_bin>
  3c:	4604      	mov	r4, r0
  3e:	bb90      	cbnz	r0, a6 <_ffc_validate_public_key+0xa6>
  40:	b39e      	cbz	r6, aa <_ffc_validate_public_key+0xaa>
  42:	f8dd 2948 	ldr.w	r2, [sp, #2376]	@ 0x948
  46:	4631      	mov	r1, r6
  48:	f20d 6024 	addw	r0, sp, #1572	@ 0x624
  4c:	f7ff fffe 	bl	0 <sp_read_unsigned_bin>
  50:	bb80      	cbnz	r0, b4 <_ffc_validate_public_key+0xb4>
  52:	2102      	movs	r1, #2
  54:	a803      	add	r0, sp, #12
  56:	f7ff fffe 	bl	0 <sp_cmp_d>
  5a:	3001      	adds	r0, #1
  5c:	d012      	beq.n	84 <_ffc_validate_public_key+0x84>
  5e:	a9c6      	add	r1, sp, #792	@ 0x318
  60:	4628      	mov	r0, r5
  62:	f7ff fffe 	bl	0 <sp_copy>
  66:	bb80      	cbnz	r0, ca <_ffc_validate_public_key+0xca>
  68:	aac6      	add	r2, sp, #792	@ 0x318
  6a:	2102      	movs	r1, #2
  6c:	4610      	mov	r0, r2
  6e:	f7ff fffe 	bl	0 <sp_sub_d>
  72:	4604      	mov	r4, r0
  74:	2800      	cmp	r0, #0
  76:	d155      	bne.n	124 <_ffc_validate_public_key+0x124>
  78:	a9c6      	add	r1, sp, #792	@ 0x318
  7a:	a803      	add	r0, sp, #12
  7c:	f7ff fffe 	bl	0 <sp_cmp>
  80:	2801      	cmp	r0, #1
  82:	d12e      	bne.n	e2 <_ffc_validate_public_key+0xe2>
  84:	f06f 0477 	mvn.w	r4, #119	@ 0x77
  88:	a803      	add	r0, sp, #12
  8a:	f7ff fffe 	bl	0 <sp_clear>
  8e:	a8c6      	add	r0, sp, #792	@ 0x318
  90:	f7ff fffe 	bl	0 <sp_clear>
  94:	f20d 6024 	addw	r0, sp, #1572	@ 0x624
  98:	f7ff fffe 	bl	0 <sp_clear>
  9c:	4620      	mov	r0, r4
  9e:	f50d 6d13 	add.w	sp, sp, #2352	@ 0x930
  a2:	e8bd 81f0 	ldmia.w	sp!, {r4, r5, r6, r7, r8, pc}
  a6:	f06f 046e 	mvn.w	r4, #110	@ 0x6e
  aa:	f8d5 3618 	ldr.w	r3, [r5, #1560]	@ 0x618
  ae:	b923      	cbnz	r3, ba <_ffc_validate_public_key+0xba>
  b0:	2c00      	cmp	r4, #0
  b2:	d0ce      	beq.n	52 <_ffc_validate_public_key+0x52>
  b4:	f06f 046e 	mvn.w	r4, #110	@ 0x6e
  b8:	e7e6      	b.n	88 <_ffc_validate_public_key+0x88>
  ba:	f20d 6124 	addw	r1, sp, #1572	@ 0x624
  be:	f505 60c3 	add.w	r0, r5, #1560	@ 0x618
  c2:	f7ff fffe 	bl	0 <sp_copy>
  c6:	2800      	cmp	r0, #0
  c8:	d0f2      	beq.n	b0 <_ffc_validate_public_key+0xb0>
  ca:	f06f 046d 	mvn.w	r4, #109	@ 0x6d
  ce:	e7db      	b.n	88 <_ffc_validate_public_key+0x88>
  d0:	f06f 046f 	mvn.w	r4, #111	@ 0x6f
  d4:	e7d8      	b.n	88 <_ffc_validate_public_key+0x88>
  d6:	f06f 04ac 	mvn.w	r4, #172	@ 0xac
  da:	e7df      	b.n	9c <_ffc_validate_public_key+0x9c>
  dc:	f06f 046d 	mvn.w	r4, #109	@ 0x6d
  e0:	e7dc      	b.n	9c <_ffc_validate_public_key+0x9c>
  e2:	2f00      	cmp	r7, #0
  e4:	d1d0      	bne.n	88 <_ffc_validate_public_key+0x88>
  e6:	b91e      	cbnz	r6, f0 <_ffc_validate_public_key+0xf0>
  e8:	f8d5 3618 	ldr.w	r3, [r5, #1560]	@ 0x618
  ec:	2b00      	cmp	r3, #0
  ee:	d0cb      	beq.n	88 <_ffc_validate_public_key+0x88>
  f0:	a9c6      	add	r1, sp, #792	@ 0x318
  f2:	4628      	mov	r0, r5
  f4:	f7ff fffe 	bl	0 <sp_copy>
  f8:	2800      	cmp	r0, #0
  fa:	d1e6      	bne.n	ca <_ffc_validate_public_key+0xca>
  fc:	2e00      	cmp	r6, #0
  fe:	d0c3      	beq.n	88 <_ffc_validate_public_key+0x88>
 100:	ab03      	add	r3, sp, #12
 102:	aac6      	add	r2, sp, #792	@ 0x318
 104:	f20d 6124 	addw	r1, sp, #1572	@ 0x624
 108:	4618      	mov	r0, r3
 10a:	f7ff fffe 	bl	0 <sp_exptmod>
 10e:	2800      	cmp	r0, #0
 110:	d1de      	bne.n	d0 <_ffc_validate_public_key+0xd0>
 112:	2101      	movs	r1, #1
 114:	a803      	add	r0, sp, #12
 116:	f7ff fffe 	bl	0 <sp_cmp_d>
 11a:	2800      	cmp	r0, #0
 11c:	bf18      	it	ne
 11e:	f06f 0477 	mvnne.w	r4, #119	@ 0x77
 122:	e7b1      	b.n	88 <_ffc_validate_public_key+0x88>
 124:	f06f 0471 	mvn.w	r4, #113	@ 0x71
 128:	e7ae      	b.n	88 <_ffc_validate_public_key+0x88>

Disassembly of section .text._ffc_pairwise_consistency_test:

00000000 <_ffc_pairwise_consistency_test>:
   0:	b5f0      	push	{r4, r5, r6, r7, lr}
   2:	460e      	mov	r6, r1
   4:	f6ad 1d34 	subw	sp, sp, #2356	@ 0x934
   8:	4617      	mov	r7, r2
   a:	461d      	mov	r5, r3
   c:	4604      	mov	r4, r0
   e:	2800      	cmp	r0, #0
  10:	d047      	beq.n	a2 <_ffc_pairwise_consistency_test+0xa2>
  12:	2900      	cmp	r1, #0
  14:	d045      	beq.n	a2 <_ffc_pairwise_consistency_test+0xa2>
  16:	2b00      	cmp	r3, #0
  18:	d043      	beq.n	a2 <_ffc_pairwise_consistency_test+0xa2>
  1a:	6803      	ldr	r3, [r0, #0]
  1c:	b113      	cbz	r3, 24 <_ffc_pairwise_consistency_test+0x24>
  1e:	6883      	ldr	r3, [r0, #8]
  20:	07db      	lsls	r3, r3, #31
  22:	d541      	bpl.n	a8 <_ffc_pairwise_consistency_test+0xa8>
  24:	2300      	movs	r3, #0
  26:	e9cd 3300 	strd	r3, r3, [sp]
  2a:	f20d 6224 	addw	r2, sp, #1572	@ 0x624
  2e:	a9c6      	add	r1, sp, #792	@ 0x318
  30:	a803      	add	r0, sp, #12
  32:	f7ff fffe 	bl	0 <sp_init_multi>
  36:	2800      	cmp	r0, #0
  38:	d139      	bne.n	ae <_ffc_pairwise_consistency_test+0xae>
  3a:	463a      	mov	r2, r7
  3c:	4631      	mov	r1, r6
  3e:	a803      	add	r0, sp, #12
  40:	f7ff fffe 	bl	0 <sp_read_unsigned_bin>
  44:	b178      	cbz	r0, 66 <_ffc_pairwise_consistency_test+0x66>
  46:	f06f 046e 	mvn.w	r4, #110	@ 0x6e
  4a:	a8c6      	add	r0, sp, #792	@ 0x318
  4c:	f7ff fffe 	bl	0 <sp_forcezero>
  50:	a803      	add	r0, sp, #12
  52:	f7ff fffe 	bl	0 <sp_clear>
  56:	f20d 6024 	addw	r0, sp, #1572	@ 0x624
  5a:	f7ff fffe 	bl	0 <sp_clear>
  5e:	4620      	mov	r0, r4
  60:	f60d 1d34 	addw	sp, sp, #2356	@ 0x934
  64:	bdf0      	pop	{r4, r5, r6, r7, pc}
  66:	f8dd 2948 	ldr.w	r2, [sp, #2376]	@ 0x948
  6a:	4629      	mov	r1, r5
  6c:	a8c6      	add	r0, sp, #792	@ 0x318
  6e:	f7ff fffe 	bl	0 <sp_read_unsigned_bin>
  72:	2800      	cmp	r0, #0
  74:	d1e7      	bne.n	46 <_ffc_pairwise_consistency_test+0x46>
  76:	f20d 6324 	addw	r3, sp, #1572	@ 0x624
  7a:	4622      	mov	r2, r4
  7c:	a9c6      	add	r1, sp, #792	@ 0x318
  7e:	f504 7043 	add.w	r0, r4, #780	@ 0x30c
  82:	f7ff fffe 	bl	0 <sp_exptmod>
  86:	b948      	cbnz	r0, 9c <_ffc_pairwise_consistency_test+0x9c>
  88:	a903      	add	r1, sp, #12
  8a:	f20d 6024 	addw	r0, sp, #1572	@ 0x624
  8e:	f7ff fffe 	bl	0 <sp_cmp>
  92:	1e04      	subs	r4, r0, #0
  94:	bf18      	it	ne
  96:	f06f 0477 	mvnne.w	r4, #119	@ 0x77
  9a:	e7d6      	b.n	4a <_ffc_pairwise_consistency_test+0x4a>
  9c:	f06f 046f 	mvn.w	r4, #111	@ 0x6f
  a0:	e7d3      	b.n	4a <_ffc_pairwise_consistency_test+0x4a>
  a2:	f06f 04ac 	mvn.w	r4, #172	@ 0xac
  a6:	e7da      	b.n	5e <_ffc_pairwise_consistency_test+0x5e>
  a8:	f06f 0402 	mvn.w	r4, #2
  ac:	e7d7      	b.n	5e <_ffc_pairwise_consistency_test+0x5e>
  ae:	f06f 046d 	mvn.w	r4, #109	@ 0x6d
  b2:	e7d4      	b.n	5e <_ffc_pairwise_consistency_test+0x5e>

Disassembly of section .text.GeneratePrivateDh186:

00000000 <GeneratePrivateDh186>:
   0:	e92d 43f0 	stmdb	sp!, {r4, r5, r6, r7, r8, r9, lr}
   4:	461d      	mov	r5, r3
   6:	f8d0 3618 	ldr.w	r3, [r0, #1560]	@ 0x618
   a:	f5ad 5d91 	sub.w	sp, sp, #4640	@ 0x1220
   e:	b083      	sub	sp, #12
  10:	4681      	mov	r9, r0
  12:	4688      	mov	r8, r1
  14:	4616      	mov	r6, r2
  16:	b1a3      	cbz	r3, 42 <GeneratePrivateDh186+0x42>
  18:	f500 67c3 	add.w	r7, r0, #1560	@ 0x618
  1c:	4638      	mov	r0, r7
  1e:	f7ff fffe 	bl	0 <sp_unsigned_bin_size>
  22:	4604      	mov	r4, r0
  24:	4648      	mov	r0, r9
  26:	f7ff fffe 	bl	0 <sp_unsigned_bin_size>
  2a:	f8d9 3928 	ldr.w	r3, [r9, #2344]	@ 0x928
  2e:	b993      	cbnz	r3, 56 <GeneratePrivateDh186+0x56>
  30:	00c0      	lsls	r0, r0, #3
  32:	f5b0 6f80 	cmp.w	r0, #1024	@ 0x400
  36:	ea4f 03c4 	mov.w	r3, r4, lsl #3
  3a:	d00a      	beq.n	52 <GeneratePrivateDh186+0x52>
  3c:	f5b0 6f00 	cmp.w	r0, #2048	@ 0x800
  40:	d02f      	beq.n	a2 <GeneratePrivateDh186+0xa2>
  42:	f06f 04ac 	mvn.w	r4, #172	@ 0xac
  46:	4620      	mov	r0, r4
  48:	f50d 5d91 	add.w	sp, sp, #4640	@ 0x1220
  4c:	b003      	add	sp, #12
  4e:	e8bd 83f0 	ldmia.w	sp!, {r4, r5, r6, r7, r8, r9, pc}
  52:	2ba0      	cmp	r3, #160	@ 0xa0
  54:	d1f5      	bne.n	42 <GeneratePrivateDh186+0x42>
  56:	2300      	movs	r3, #0
  58:	f8d5 9000 	ldr.w	r9, [r5]
  5c:	461a      	mov	r2, r3
  5e:	e9cd 3300 	strd	r3, r3, [sp]
  62:	a902      	add	r1, sp, #8
  64:	a8c5      	add	r0, sp, #788	@ 0x314
  66:	f7ff fffe 	bl	0 <sp_init_multi>
  6a:	4604      	mov	r4, r0
  6c:	2800      	cmp	r0, #0
  6e:	d1ea      	bne.n	46 <GeneratePrivateDh186+0x46>
  70:	f109 0908 	add.w	r9, r9, #8
  74:	464a      	mov	r2, r9
  76:	f50d 61c4 	add.w	r1, sp, #1568	@ 0x620
  7a:	4640      	mov	r0, r8
  7c:	f7ff fffe 	bl	0 <wc_RNG_GenerateBlock>
  80:	4604      	mov	r4, r0
  82:	b938      	cbnz	r0, 94 <GeneratePrivateDh186+0x94>
  84:	464a      	mov	r2, r9
  86:	f50d 61c4 	add.w	r1, sp, #1568	@ 0x620
  8a:	a8c5      	add	r0, sp, #788	@ 0x314
  8c:	f7ff fffe 	bl	0 <sp_read_unsigned_bin>
  90:	4604      	mov	r4, r0
  92:	b158      	cbz	r0, ac <GeneratePrivateDh186+0xac>
  94:	a8c5      	add	r0, sp, #788	@ 0x314
  96:	f7ff fffe 	bl	0 <sp_clear>
  9a:	a802      	add	r0, sp, #8
  9c:	f7ff fffe 	bl	0 <sp_clear>
  a0:	e7d1      	b.n	46 <GeneratePrivateDh186+0x46>
  a2:	2be0      	cmp	r3, #224	@ 0xe0
  a4:	d0d7      	beq.n	56 <GeneratePrivateDh186+0x56>
  a6:	f5b3 7f80 	cmp.w	r3, #256	@ 0x100
  aa:	e7d3      	b.n	54 <GeneratePrivateDh186+0x54>
  ac:	2101      	movs	r1, #1
  ae:	a8c5      	add	r0, sp, #788	@ 0x314
  b0:	f7ff fffe 	bl	0 <sp_cmp_d>
  b4:	2801      	cmp	r0, #1
  b6:	d1dd      	bne.n	74 <GeneratePrivateDh186+0x74>
  b8:	f50d 63c4 	add.w	r3, sp, #1568	@ 0x620
  bc:	4620      	mov	r0, r4
  be:	f1b9 0901 	subs.w	r9, r9, #1
  c2:	d22e      	bcs.n	122 <GeneratePrivateDh186+0x122>
  c4:	6829      	ldr	r1, [r5, #0]
  c6:	a802      	add	r0, sp, #8
  c8:	00c9      	lsls	r1, r1, #3
  ca:	f7ff fffe 	bl	0 <sp_2expt>
  ce:	4604      	mov	r4, r0
  d0:	bb88      	cbnz	r0, 136 <GeneratePrivateDh186+0x136>
  d2:	4639      	mov	r1, r7
  d4:	a802      	add	r0, sp, #8
  d6:	f7ff fffe 	bl	0 <sp_cmp>
  da:	2801      	cmp	r0, #1
  dc:	d024      	beq.n	128 <GeneratePrivateDh186+0x128>
  de:	aa02      	add	r2, sp, #8
  e0:	2101      	movs	r1, #1
  e2:	4610      	mov	r0, r2
  e4:	f7ff fffe 	bl	0 <sp_sub_d>
  e8:	4604      	mov	r4, r0
  ea:	bb20      	cbnz	r0, 136 <GeneratePrivateDh186+0x136>
  ec:	aac5      	add	r2, sp, #788	@ 0x314
  ee:	a902      	add	r1, sp, #8
  f0:	4610      	mov	r0, r2
  f2:	f7ff fffe 	bl	0 <sp_mod>
  f6:	4604      	mov	r4, r0
  f8:	b9e8      	cbnz	r0, 136 <GeneratePrivateDh186+0x136>
  fa:	aac5      	add	r2, sp, #788	@ 0x314
  fc:	2101      	movs	r1, #1
  fe:	4610      	mov	r0, r2
 100:	f7ff fffe 	bl	0 <sp_add_d>
 104:	4604      	mov	r4, r0
 106:	b9b0      	cbnz	r0, 136 <GeneratePrivateDh186+0x136>
 108:	a8c5      	add	r0, sp, #788	@ 0x314
 10a:	f7ff fffe 	bl	0 <sp_unsigned_bin_size>
 10e:	682b      	ldr	r3, [r5, #0]
 110:	4283      	cmp	r3, r0
 112:	d314      	bcc.n	13e <GeneratePrivateDh186+0x13e>
 114:	6028      	str	r0, [r5, #0]
 116:	4631      	mov	r1, r6
 118:	a8c5      	add	r0, sp, #788	@ 0x314
 11a:	f7ff fffe 	bl	0 <sp_to_unsigned_bin>
 11e:	4604      	mov	r4, r0
 120:	e009      	b.n	136 <GeneratePrivateDh186+0x136>
 122:	f803 0b01 	strb.w	r0, [r3], #1
 126:	e7ca      	b.n	be <GeneratePrivateDh186+0xbe>
 128:	a902      	add	r1, sp, #8
 12a:	4638      	mov	r0, r7
 12c:	f7ff fffe 	bl	0 <sp_copy>
 130:	4604      	mov	r4, r0
 132:	2800      	cmp	r0, #0
 134:	d0d3      	beq.n	de <GeneratePrivateDh186+0xde>
 136:	a8c5      	add	r0, sp, #788	@ 0x314
 138:	f7ff fffe 	bl	0 <sp_forcezero>
 13c:	e7ad      	b.n	9a <GeneratePrivateDh186+0x9a>
 13e:	f06f 04ac 	mvn.w	r4, #172	@ 0xac
 142:	e7f8      	b.n	136 <GeneratePrivateDh186+0x136>

Disassembly of section .text.GeneratePublicDh:

00000000 <GeneratePublicDh>:
   0:	e92d 43f0 	stmdb	sp!, {r4, r5, r6, r7, r8, r9, lr}
   4:	f2ad 6d24 	subw	sp, sp, #1572	@ 0x624
   8:	4605      	mov	r5, r0
   a:	f8dd 8640 	ldr.w	r8, [sp, #1600]	@ 0x640
   e:	460e      	mov	r6, r1
  10:	f8d8 9000 	ldr.w	r9, [r8]
  14:	4617      	mov	r7, r2
  16:	461c      	mov	r4, r3
  18:	f7ff fffe 	bl	0 <sp_unsigned_bin_size>
  1c:	4581      	cmp	r9, r0
  1e:	d335      	bcc.n	8c <GeneratePublicDh+0x8c>
  20:	2300      	movs	r3, #0
  22:	e9cd 3300 	strd	r3, r3, [sp]
  26:	461a      	mov	r2, r3
  28:	a9c5      	add	r1, sp, #788	@ 0x314
  2a:	a802      	add	r0, sp, #8
  2c:	f7ff fffe 	bl	0 <sp_init_multi>
  30:	bb78      	cbnz	r0, 92 <GeneratePublicDh+0x92>
  32:	463a      	mov	r2, r7
  34:	4631      	mov	r1, r6
  36:	a802      	add	r0, sp, #8
  38:	f7ff fffe 	bl	0 <sp_read_unsigned_bin>
  3c:	b9e8      	cbnz	r0, 7a <GeneratePublicDh+0x7a>
  3e:	abc5      	add	r3, sp, #788	@ 0x314
  40:	462a      	mov	r2, r5
  42:	a902      	add	r1, sp, #8
  44:	f505 7043 	add.w	r0, r5, #780	@ 0x30c
  48:	f7ff fffe 	bl	0 <sp_exptmod>
  4c:	b9c0      	cbnz	r0, 80 <GeneratePublicDh+0x80>
  4e:	4621      	mov	r1, r4
  50:	a8c5      	add	r0, sp, #788	@ 0x314
  52:	f7ff fffe 	bl	0 <sp_to_unsigned_bin>
  56:	4604      	mov	r4, r0
  58:	b9a8      	cbnz	r0, 86 <GeneratePublicDh+0x86>
  5a:	a8c5      	add	r0, sp, #788	@ 0x314
  5c:	f7ff fffe 	bl	0 <sp_unsigned_bin_size>
  60:	f8c8 0000 	str.w	r0, [r8]
  64:	a8c5      	add	r0, sp, #788	@ 0x314
  66:	f7ff fffe 	bl	0 <sp_clear>
  6a:	a802      	add	r0, sp, #8
  6c:	f7ff fffe 	bl	0 <sp_forcezero>
  70:	4620      	mov	r0, r4
  72:	f20d 6d24 	addw	sp, sp, #1572	@ 0x624
  76:	e8bd 83f0 	ldmia.w	sp!, {r4, r5, r6, r7, r8, r9, pc}
  7a:	f06f 046e 	mvn.w	r4, #110	@ 0x6e
  7e:	e7f1      	b.n	64 <GeneratePublicDh+0x64>
  80:	f06f 046f 	mvn.w	r4, #111	@ 0x6f
  84:	e7ee      	b.n	64 <GeneratePublicDh+0x64>
  86:	f06f 0470 	mvn.w	r4, #112	@ 0x70
  8a:	e7eb      	b.n	64 <GeneratePublicDh+0x64>
  8c:	f06f 04e9 	mvn.w	r4, #233	@ 0xe9
  90:	e7ee      	b.n	70 <GeneratePublicDh+0x70>
  92:	f06f 046d 	mvn.w	r4, #109	@ 0x6d
  96:	e7eb      	b.n	70 <GeneratePublicDh+0x70>

Disassembly of section .text.wc_DhAgree_Sync:

00000000 <wc_DhAgree_Sync>:
   0:	b5f0      	push	{r4, r5, r6, r7, lr}
   2:	461f      	mov	r7, r3
   4:	6803      	ldr	r3, [r0, #0]
   6:	f6ad 1d34 	subw	sp, sp, #2356	@ 0x934
   a:	4604      	mov	r4, r0
   c:	460e      	mov	r6, r1
   e:	4615      	mov	r5, r2
  10:	b113      	cbz	r3, 18 <wc_DhAgree_Sync+0x18>
  12:	6883      	ldr	r3, [r0, #8]
  14:	07db      	lsls	r3, r3, #31
  16:	d54e      	bpl.n	b6 <wc_DhAgree_Sync+0xb6>
  18:	2300      	movs	r3, #0
  1a:	e9cd 3300 	strd	r3, r3, [sp]
  1e:	f20d 6224 	addw	r2, sp, #1572	@ 0x624
  22:	a903      	add	r1, sp, #12
  24:	a8c6      	add	r0, sp, #792	@ 0x318
  26:	f7ff fffe 	bl	0 <sp_init_multi>
  2a:	2800      	cmp	r0, #0
  2c:	d146      	bne.n	bc <wc_DhAgree_Sync+0xbc>
  2e:	f8dd 2948 	ldr.w	r2, [sp, #2376]	@ 0x948
  32:	4639      	mov	r1, r7
  34:	a8c6      	add	r0, sp, #792	@ 0x318
  36:	f7ff fffe 	bl	0 <sp_read_unsigned_bin>
  3a:	b178      	cbz	r0, 5c <wc_DhAgree_Sync+0x5c>
  3c:	f06f 046e 	mvn.w	r4, #110	@ 0x6e
  40:	f20d 6024 	addw	r0, sp, #1572	@ 0x624
  44:	f7ff fffe 	bl	0 <sp_forcezero>
  48:	a803      	add	r0, sp, #12
  4a:	f7ff fffe 	bl	0 <sp_clear>
  4e:	a8c6      	add	r0, sp, #792	@ 0x318
  50:	f7ff fffe 	bl	0 <sp_forcezero>
  54:	4620      	mov	r0, r4
  56:	f60d 1d34 	addw	sp, sp, #2356	@ 0x934
  5a:	bdf0      	pop	{r4, r5, r6, r7, pc}
  5c:	f8dd 2950 	ldr.w	r2, [sp, #2384]	@ 0x950
  60:	f8dd 194c 	ldr.w	r1, [sp, #2380]	@ 0x94c
  64:	a803      	add	r0, sp, #12
  66:	f7ff fffe 	bl	0 <sp_read_unsigned_bin>
  6a:	2800      	cmp	r0, #0
  6c:	d1e6      	bne.n	3c <wc_DhAgree_Sync+0x3c>
  6e:	f20d 6324 	addw	r3, sp, #1572	@ 0x624
  72:	4622      	mov	r2, r4
  74:	a9c6      	add	r1, sp, #792	@ 0x318
  76:	a803      	add	r0, sp, #12
  78:	f7ff fffe 	bl	0 <sp_exptmod>
  7c:	b990      	cbnz	r0, a4 <wc_DhAgree_Sync+0xa4>
  7e:	2101      	movs	r1, #1
  80:	f20d 6024 	addw	r0, sp, #1572	@ 0x624
  84:	f7ff fffe 	bl	0 <sp_cmp_d>
  88:	b178      	cbz	r0, aa <wc_DhAgree_Sync+0xaa>
  8a:	4631      	mov	r1, r6
  8c:	f20d 6024 	addw	r0, sp, #1572	@ 0x624
  90:	f7ff fffe 	bl	0 <sp_to_unsigned_bin>
  94:	4604      	mov	r4, r0
  96:	b958      	cbnz	r0, b0 <wc_DhAgree_Sync+0xb0>
  98:	f20d 6024 	addw	r0, sp, #1572	@ 0x624
  9c:	f7ff fffe 	bl	0 <sp_unsigned_bin_size>
  a0:	6028      	str	r0, [r5, #0]
  a2:	e7cd      	b.n	40 <wc_DhAgree_Sync+0x40>
  a4:	f06f 046f 	mvn.w	r4, #111	@ 0x6f
  a8:	e7ca      	b.n	40 <wc_DhAgree_Sync+0x40>
  aa:	f06f 0402 	mvn.w	r4, #2
  ae:	e7c7      	b.n	40 <wc_DhAgree_Sync+0x40>
  b0:	f06f 0470 	mvn.w	r4, #112	@ 0x70
  b4:	e7c4      	b.n	40 <wc_DhAgree_Sync+0x40>
  b6:	f06f 0402 	mvn.w	r4, #2
  ba:	e7cb      	b.n	54 <wc_DhAgree_Sync+0x54>
  bc:	f06f 046d 	mvn.w	r4, #109	@ 0x6d
  c0:	e7c8      	b.n	54 <wc_DhAgree_Sync+0x54>

Disassembly of section .text._DhSetKey:

00000000 <_DhSetKey>:
   0:	e92d 4ff7 	stmdb	sp!, {r0, r1, r2, r4, r5, r6, r7, r8, r9, sl, fp, lr}
   4:	460c      	mov	r4, r1
   6:	e9dd 870c 	ldrd	r8, r7, [sp, #48]	@ 0x30
   a:	e9dd 9a0e 	ldrd	r9, sl, [sp, #56]	@ 0x38
   e:	4693      	mov	fp, r2
  10:	461e      	mov	r6, r3
  12:	4605      	mov	r5, r0
  14:	2800      	cmp	r0, #0
  16:	d063      	beq.n	e0 <_DhSetKey+0xe0>
  18:	2900      	cmp	r1, #0
  1a:	d061      	beq.n	e0 <_DhSetKey+0xe0>
  1c:	2b00      	cmp	r3, #0
  1e:	d05f      	beq.n	e0 <_DhSetKey+0xe0>
  20:	2a00      	cmp	r2, #0
  22:	d05d      	beq.n	e0 <_DhSetKey+0xe0>
  24:	f1b8 0f00 	cmp.w	r8, #0
  28:	d05a      	beq.n	e0 <_DhSetKey+0xe0>
  2a:	780b      	ldrb	r3, [r1, #0]
  2c:	b913      	cbnz	r3, 34 <_DhSetKey+0x34>
  2e:	f102 3bff 	add.w	fp, r2, #4294967295	@ 0xffffffff
  32:	3401      	adds	r4, #1
  34:	7833      	ldrb	r3, [r6, #0]
  36:	b913      	cbnz	r3, 3e <_DhSetKey+0x3e>
  38:	f108 38ff 	add.w	r8, r8, #4294967295	@ 0xffffffff
  3c:	3601      	adds	r6, #1
  3e:	b127      	cbz	r7, 4a <_DhSetKey+0x4a>
  40:	783b      	ldrb	r3, [r7, #0]
  42:	b913      	cbnz	r3, 4a <_DhSetKey+0x4a>
  44:	f109 39ff 	add.w	r9, r9, #4294967295	@ 0xffffffff
  48:	3701      	adds	r7, #1
  4a:	4628      	mov	r0, r5
  4c:	f7ff fffe 	bl	0 <sp_init>
  50:	2800      	cmp	r0, #0
  52:	d13f      	bne.n	d4 <_DhSetKey+0xd4>
  54:	465a      	mov	r2, fp
  56:	4621      	mov	r1, r4
  58:	4628      	mov	r0, r5
  5a:	f7ff fffe 	bl	0 <sp_read_unsigned_bin>
  5e:	2800      	cmp	r0, #0
  60:	d141      	bne.n	e6 <_DhSetKey+0xe6>
  62:	f1ba 0f00 	cmp.w	sl, #0
  66:	d115      	bne.n	94 <_DhSetKey+0x94>
  68:	9b10      	ldr	r3, [sp, #64]	@ 0x40
  6a:	f8cd a004 	str.w	sl, [sp, #4]
  6e:	aa01      	add	r2, sp, #4
  70:	2108      	movs	r1, #8
  72:	4628      	mov	r0, r5
  74:	b15b      	cbz	r3, 8e <_DhSetKey+0x8e>
  76:	f7ff fffe 	bl	0 <sp_prime_is_prime_ex>
  7a:	4604      	mov	r4, r0
  7c:	b918      	cbnz	r0, 86 <_DhSetKey+0x86>
  7e:	9b01      	ldr	r3, [sp, #4]
  80:	b943      	cbnz	r3, 94 <_DhSetKey+0x94>
  82:	f06f 04f2 	mvn.w	r4, #242	@ 0xf2
  86:	4628      	mov	r0, r5
  88:	f7ff fffe 	bl	0 <sp_clear>
  8c:	e01e      	b.n	cc <_DhSetKey+0xcc>
  8e:	f7ff fffe 	bl	0 <sp_prime_is_prime>
  92:	e7f2      	b.n	7a <_DhSetKey+0x7a>
  94:	f505 7b43 	add.w	fp, r5, #780	@ 0x30c
  98:	4658      	mov	r0, fp
  9a:	f7ff fffe 	bl	0 <sp_init>
  9e:	bb40      	cbnz	r0, f2 <_DhSetKey+0xf2>
  a0:	4642      	mov	r2, r8
  a2:	4631      	mov	r1, r6
  a4:	4658      	mov	r0, fp
  a6:	f7ff fffe 	bl	0 <sp_read_unsigned_bin>
  aa:	4604      	mov	r4, r0
  ac:	b9a8      	cbnz	r0, da <_DhSetKey+0xda>
  ae:	b16f      	cbz	r7, cc <_DhSetKey+0xcc>
  b0:	f505 66c3 	add.w	r6, r5, #1560	@ 0x618
  b4:	4630      	mov	r0, r6
  b6:	f7ff fffe 	bl	0 <sp_init>
  ba:	b9b8      	cbnz	r0, ec <_DhSetKey+0xec>
  bc:	464a      	mov	r2, r9
  be:	4639      	mov	r1, r7
  c0:	4630      	mov	r0, r6
  c2:	f7ff fffe 	bl	0 <sp_read_unsigned_bin>
  c6:	b988      	cbnz	r0, ec <_DhSetKey+0xec>
  c8:	f8c5 a928 	str.w	sl, [r5, #2344]	@ 0x928
  cc:	4620      	mov	r0, r4
  ce:	b003      	add	sp, #12
  d0:	e8bd 8ff0 	ldmia.w	sp!, {r4, r5, r6, r7, r8, r9, sl, fp, pc}
  d4:	f06f 046d 	mvn.w	r4, #109	@ 0x6d
  d8:	e7f8      	b.n	cc <_DhSetKey+0xcc>
  da:	f06f 049d 	mvn.w	r4, #157	@ 0x9d
  de:	e7d2      	b.n	86 <_DhSetKey+0x86>
  e0:	f06f 04ac 	mvn.w	r4, #172	@ 0xac
  e4:	e7f2      	b.n	cc <_DhSetKey+0xcc>
  e6:	f06f 049d 	mvn.w	r4, #157	@ 0x9d
  ea:	e7ef      	b.n	cc <_DhSetKey+0xcc>
  ec:	4658      	mov	r0, fp
  ee:	f7ff fffe 	bl	0 <sp_clear>
  f2:	f06f 046d 	mvn.w	r4, #109	@ 0x6d
  f6:	e7c6      	b.n	86 <_DhSetKey+0x86>

Disassembly of section .text.wc_InitDhKey_ex:

00000000 <wc_InitDhKey_ex>:
   0:	b513      	push	{r0, r1, r4, lr}
   2:	4604      	mov	r4, r0
   4:	b188      	cbz	r0, 2a <wc_InitDhKey_ex+0x2a>
   6:	2300      	movs	r3, #0
   8:	f8c0 1924 	str.w	r1, [r0, #2340]	@ 0x924
   c:	f8c0 3928 	str.w	r3, [r0, #2344]	@ 0x928
  10:	f500 62c3 	add.w	r2, r0, #1560	@ 0x618
  14:	e9cd 3300 	strd	r3, r3, [sp]
  18:	f500 7143 	add.w	r1, r0, #780	@ 0x30c
  1c:	f7ff fffe 	bl	0 <sp_init_multi>
  20:	b930      	cbnz	r0, 30 <wc_InitDhKey_ex+0x30>
  22:	f8c4 0928 	str.w	r0, [r4, #2344]	@ 0x928
  26:	b002      	add	sp, #8
  28:	bd10      	pop	{r4, pc}
  2a:	f06f 00ac 	mvn.w	r0, #172	@ 0xac
  2e:	e7fa      	b.n	26 <wc_InitDhKey_ex+0x26>
  30:	f06f 007c 	mvn.w	r0, #124	@ 0x7c
  34:	e7f7      	b.n	26 <wc_InitDhKey_ex+0x26>

Disassembly of section .text.wc_InitDhKey:

00000000 <wc_InitDhKey>:
   0:	f06f 0201 	mvn.w	r2, #1
   4:	2100      	movs	r1, #0
   6:	f7ff bffe 	b.w	0 <wc_InitDhKey>

Disassembly of section .text.wc_FreeDhKey:

00000000 <wc_FreeDhKey>:
   0:	b510      	push	{r4, lr}
   2:	4604      	mov	r4, r0
   4:	b148      	cbz	r0, 1a <wc_FreeDhKey+0x1a>
   6:	f7ff fffe 	bl	0 <sp_clear>
   a:	f504 7043 	add.w	r0, r4, #780	@ 0x30c
   e:	f7ff fffe 	bl	0 <sp_clear>
  12:	f504 60c3 	add.w	r0, r4, #1560	@ 0x618
  16:	f7ff fffe 	bl	0 <sp_clear>
  1a:	2000      	movs	r0, #0
  1c:	bd10      	pop	{r4, pc}

Disassembly of section .text.wc_DhCheckPubKey_ex:

00000000 <wc_DhCheckPubKey_ex>:
   0:	b513      	push	{r0, r1, r4, lr}
   2:	2400      	movs	r4, #0
   4:	9401      	str	r4, [sp, #4]
   6:	9c04      	ldr	r4, [sp, #16]
   8:	9400      	str	r4, [sp, #0]
   a:	f7ff fffe 	bl	0 <wc_DhCheckPubKey_ex>
   e:	b002      	add	sp, #8
  10:	bd10      	pop	{r4, pc}

Disassembly of section .text.wc_DhCheckPubKey:

00000000 <wc_DhCheckPubKey>:
   0:	b507      	push	{r0, r1, r2, lr}
   2:	2300      	movs	r3, #0
   4:	f04f 0c01 	mov.w	ip, #1
   8:	e9cd 3c00 	strd	r3, ip, [sp]
   c:	f7ff fffe 	bl	0 <wc_DhCheckPubKey>
  10:	b003      	add	sp, #12
  12:	f85d fb04 	ldr.w	pc, [sp], #4

Disassembly of section .text.wc_DhCheckPubValue:

00000000 <wc_DhCheckPubValue>:
   0:	b570      	push	{r4, r5, r6, lr}
   2:	2400      	movs	r4, #0
   4:	429c      	cmp	r4, r3
   6:	4615      	mov	r5, r2
   8:	d021      	beq.n	4e <wc_DhCheckPubValue+0x4e>
   a:	782e      	ldrb	r6, [r5, #0]
   c:	3201      	adds	r2, #1
   e:	b14e      	cbz	r6, 24 <wc_DhCheckPubValue+0x24>
  10:	1b1b      	subs	r3, r3, r4
  12:	2b01      	cmp	r3, #1
  14:	d101      	bne.n	1a <wc_DhCheckPubValue+0x1a>
  16:	2e01      	cmp	r6, #1
  18:	d019      	beq.n	4e <wc_DhCheckPubValue+0x4e>
  1a:	428b      	cmp	r3, r1
  1c:	d11a      	bne.n	54 <wc_DhCheckPubValue+0x54>
  1e:	2200      	movs	r2, #0
  20:	3b01      	subs	r3, #1
  22:	e002      	b.n	2a <wc_DhCheckPubValue+0x2a>
  24:	3401      	adds	r4, #1
  26:	e7ed      	b.n	4 <wc_DhCheckPubValue+0x4>
  28:	3201      	adds	r2, #1
  2a:	4293      	cmp	r3, r2
  2c:	5cac      	ldrb	r4, [r5, r2]
  2e:	5c81      	ldrb	r1, [r0, r2]
  30:	d907      	bls.n	42 <wc_DhCheckPubValue+0x42>
  32:	428c      	cmp	r4, r1
  34:	d0f8      	beq.n	28 <wc_DhCheckPubValue+0x28>
  36:	428c      	cmp	r4, r1
  38:	bf8c      	ite	hi
  3a:	f06f 0002 	mvnhi.w	r0, #2
  3e:	2000      	movls	r0, #0
  40:	bd70      	pop	{r4, r5, r6, pc}
  42:	d1f8      	bne.n	36 <wc_DhCheckPubValue+0x36>
  44:	428c      	cmp	r4, r1
  46:	d002      	beq.n	4e <wc_DhCheckPubValue+0x4e>
  48:	1e4b      	subs	r3, r1, #1
  4a:	429c      	cmp	r4, r3
  4c:	d1f3      	bne.n	36 <wc_DhCheckPubValue+0x36>
  4e:	f06f 0002 	mvn.w	r0, #2
  52:	e7f5      	b.n	40 <wc_DhCheckPubValue+0x40>
  54:	d8fb      	bhi.n	4e <wc_DhCheckPubValue+0x4e>
  56:	2000      	movs	r0, #0
  58:	e7f2      	b.n	40 <wc_DhCheckPubValue+0x40>

Disassembly of section .text.wc_DhCheckPrivKey_ex:

00000000 <wc_DhCheckPrivKey_ex>:
   0:	b5f0      	push	{r4, r5, r6, r7, lr}
   2:	460c      	mov	r4, r1
   4:	f2ad 6d24 	subw	sp, sp, #1572	@ 0x624
   8:	4617      	mov	r7, r2
   a:	461e      	mov	r6, r3
   c:	4605      	mov	r5, r0
   e:	2800      	cmp	r0, #0
  10:	d058      	beq.n	c4 <wc_DhCheckPrivKey_ex+0xc4>
  12:	2900      	cmp	r1, #0
  14:	d056      	beq.n	c4 <wc_DhCheckPrivKey_ex+0xc4>
  16:	2300      	movs	r3, #0
  18:	e9cd 3300 	strd	r3, r3, [sp]
  1c:	461a      	mov	r2, r3
  1e:	a9c5      	add	r1, sp, #788	@ 0x314
  20:	a802      	add	r0, sp, #8
  22:	f7ff fffe 	bl	0 <sp_init_multi>
  26:	2800      	cmp	r0, #0
  28:	d14f      	bne.n	ca <wc_DhCheckPrivKey_ex+0xca>
  2a:	4621      	mov	r1, r4
  2c:	463a      	mov	r2, r7
  2e:	a802      	add	r0, sp, #8
  30:	f7ff fffe 	bl	0 <sp_read_unsigned_bin>
  34:	4604      	mov	r4, r0
  36:	b158      	cbz	r0, 50 <wc_DhCheckPrivKey_ex+0x50>
  38:	f06f 046e 	mvn.w	r4, #110	@ 0x6e
  3c:	a802      	add	r0, sp, #8
  3e:	f7ff fffe 	bl	0 <sp_forcezero>
  42:	a8c5      	add	r0, sp, #788	@ 0x314
  44:	f7ff fffe 	bl	0 <sp_clear>
  48:	4620      	mov	r0, r4
  4a:	f20d 6d24 	addw	sp, sp, #1572	@ 0x624
  4e:	bdf0      	pop	{r4, r5, r6, r7, pc}
  50:	b326      	cbz	r6, 9c <wc_DhCheckPrivKey_ex+0x9c>
  52:	f8dd 2638 	ldr.w	r2, [sp, #1592]	@ 0x638
  56:	4631      	mov	r1, r6
  58:	a8c5      	add	r0, sp, #788	@ 0x314
  5a:	f7ff fffe 	bl	0 <sp_read_unsigned_bin>
  5e:	2800      	cmp	r0, #0
  60:	d1ea      	bne.n	38 <wc_DhCheckPrivKey_ex+0x38>
  62:	2100      	movs	r1, #0
  64:	a802      	add	r0, sp, #8
  66:	f7ff fffe 	bl	0 <sp_cmp_d>
  6a:	b328      	cbz	r0, b8 <wc_DhCheckPrivKey_ex+0xb8>
  6c:	9bc5      	ldr	r3, [sp, #788]	@ 0x314
  6e:	2b00      	cmp	r3, #0
  70:	d0e4      	beq.n	3c <wc_DhCheckPrivKey_ex+0x3c>
  72:	a9c5      	add	r1, sp, #788	@ 0x314
  74:	f505 60c3 	add.w	r0, r5, #1560	@ 0x618
  78:	f7ff fffe 	bl	0 <sp_copy>
  7c:	b9c8      	cbnz	r0, b2 <wc_DhCheckPrivKey_ex+0xb2>
  7e:	aac5      	add	r2, sp, #788	@ 0x314
  80:	2101      	movs	r1, #1
  82:	4610      	mov	r0, r2
  84:	f7ff fffe 	bl	0 <sp_sub_d>
  88:	b9c8      	cbnz	r0, be <wc_DhCheckPrivKey_ex+0xbe>
  8a:	a9c5      	add	r1, sp, #788	@ 0x314
  8c:	a802      	add	r0, sp, #8
  8e:	f7ff fffe 	bl	0 <sp_cmp>
  92:	2801      	cmp	r0, #1
  94:	bf08      	it	eq
  96:	f46f 7483 	mvneq.w	r4, #262	@ 0x106
  9a:	e7cf      	b.n	3c <wc_DhCheckPrivKey_ex+0x3c>
  9c:	f8d5 3618 	ldr.w	r3, [r5, #1560]	@ 0x618
  a0:	2b00      	cmp	r3, #0
  a2:	d0de      	beq.n	62 <wc_DhCheckPrivKey_ex+0x62>
  a4:	a9c5      	add	r1, sp, #788	@ 0x314
  a6:	f505 60c3 	add.w	r0, r5, #1560	@ 0x618
  aa:	f7ff fffe 	bl	0 <sp_copy>
  ae:	2800      	cmp	r0, #0
  b0:	d0d7      	beq.n	62 <wc_DhCheckPrivKey_ex+0x62>
  b2:	f06f 046d 	mvn.w	r4, #109	@ 0x6d
  b6:	e7c1      	b.n	3c <wc_DhCheckPrivKey_ex+0x3c>
  b8:	f06f 0477 	mvn.w	r4, #119	@ 0x77
  bc:	e7be      	b.n	3c <wc_DhCheckPrivKey_ex+0x3c>
  be:	f06f 0471 	mvn.w	r4, #113	@ 0x71
  c2:	e7bb      	b.n	3c <wc_DhCheckPrivKey_ex+0x3c>
  c4:	f06f 04ac 	mvn.w	r4, #172	@ 0xac
  c8:	e7be      	b.n	48 <wc_DhCheckPrivKey_ex+0x48>
  ca:	f06f 046d 	mvn.w	r4, #109	@ 0x6d
  ce:	e7bb      	b.n	48 <wc_DhCheckPrivKey_ex+0x48>

Disassembly of section .text.wc_DhCheckPrivKey:

00000000 <wc_DhCheckPrivKey>:
   0:	b507      	push	{r0, r1, r2, lr}
   2:	2300      	movs	r3, #0
   4:	9300      	str	r3, [sp, #0]
   6:	f7ff fffe 	bl	0 <wc_DhCheckPrivKey>
   a:	b003      	add	sp, #12
   c:	f85d fb04 	ldr.w	pc, [sp], #4

Disassembly of section .text.wc_DhCheckKeyPair:

00000000 <wc_DhCheckKeyPair>:
   0:	f7ff bffe 	b.w	0 <wc_DhCheckKeyPair>

Disassembly of section .text.wc_DhGenerateKeyPair:

00000000 <wc_DhGenerateKeyPair>:
   0:	e92d 4ff0 	stmdb	sp!, {r4, r5, r6, r7, r8, r9, sl, fp, lr}
   4:	ed2d 8b02 	vpush	{d8}
   8:	b083      	sub	sp, #12
   a:	e9dd 890e 	ldrd	r8, r9, [sp, #56]	@ 0x38
   e:	468a      	mov	sl, r1
  10:	4616      	mov	r6, r2
  12:	461f      	mov	r7, r3
  14:	4605      	mov	r5, r0
  16:	2800      	cmp	r0, #0
  18:	f000 80a5 	beq.w	166 <wc_DhGenerateKeyPair+0x166>
  1c:	2900      	cmp	r1, #0
  1e:	f000 80a2 	beq.w	166 <wc_DhGenerateKeyPair+0x166>
  22:	2a00      	cmp	r2, #0
  24:	f000 809f 	beq.w	166 <wc_DhGenerateKeyPair+0x166>
  28:	2b00      	cmp	r3, #0
  2a:	f000 809c 	beq.w	166 <wc_DhGenerateKeyPair+0x166>
  2e:	f1b8 0f00 	cmp.w	r8, #0
  32:	f000 8098 	beq.w	166 <wc_DhGenerateKeyPair+0x166>
  36:	f1b9 0f00 	cmp.w	r9, #0
  3a:	f000 8094 	beq.w	166 <wc_DhGenerateKeyPair+0x166>
  3e:	6803      	ldr	r3, [r0, #0]
  40:	b11b      	cbz	r3, 4a <wc_DhGenerateKeyPair+0x4a>
  42:	6883      	ldr	r3, [r0, #8]
  44:	07db      	lsls	r3, r3, #31
  46:	f140 8095 	bpl.w	174 <wc_DhGenerateKeyPair+0x174>
  4a:	f8d5 4618 	ldr.w	r4, [r5, #1560]	@ 0x618
  4e:	b1ac      	cbz	r4, 7c <wc_DhGenerateKeyPair+0x7c>
  50:	463b      	mov	r3, r7
  52:	4632      	mov	r2, r6
  54:	4651      	mov	r1, sl
  56:	4628      	mov	r0, r5
  58:	f7ff fffe 	bl	0 <wc_DhGenerateKeyPair>
  5c:	2800      	cmp	r0, #0
  5e:	f040 8084 	bne.w	16a <wc_DhGenerateKeyPair+0x16a>
  62:	f8cd 9038 	str.w	r9, [sp, #56]	@ 0x38
  66:	683a      	ldr	r2, [r7, #0]
  68:	4643      	mov	r3, r8
  6a:	4631      	mov	r1, r6
  6c:	4628      	mov	r0, r5
  6e:	b003      	add	sp, #12
  70:	ecbd 8b02 	vpop	{d8}
  74:	e8bd 4ff0 	ldmia.w	sp!, {r4, r5, r6, r7, r8, r9, sl, fp, lr}
  78:	f7ff bffe 	b.w	0 <wc_DhGenerateKeyPair>
  7c:	4628      	mov	r0, r5
  7e:	f7ff fffe 	bl	0 <sp_unsigned_bin_size>
  82:	f5b0 7f20 	cmp.w	r0, #640	@ 0x280
  86:	4683      	mov	fp, r0
  88:	d05f      	beq.n	14a <wc_DhGenerateKeyPair+0x14a>
  8a:	dc53      	bgt.n	134 <wc_DhGenerateKeyPair+0x134>
  8c:	f5b0 7fc0 	cmp.w	r0, #384	@ 0x180
  90:	d05d      	beq.n	14e <wc_DhGenerateKeyPair+0x14e>
  92:	dc1e      	bgt.n	d2 <wc_DhGenerateKeyPair+0xd2>
  94:	2880      	cmp	r0, #128	@ 0x80
  96:	d05c      	beq.n	152 <wc_DhGenerateKeyPair+0x152>
  98:	f5b0 7f80 	cmp.w	r0, #256	@ 0x100
  9c:	d05b      	beq.n	156 <wc_DhGenerateKeyPair+0x156>
  9e:	ea4f 00cb 	mov.w	r0, fp, lsl #3
  a2:	2804      	cmp	r0, #4
  a4:	d819      	bhi.n	da <wc_DhGenerateKeyPair+0xda>
  a6:	f3c4 049c 	ubfx	r4, r4, #2, #29
  aa:	3401      	adds	r4, #1
  ac:	455c      	cmp	r4, fp
  ae:	bf28      	it	cs
  b0:	465c      	movcs	r4, fp
  b2:	683b      	ldr	r3, [r7, #0]
  b4:	42a3      	cmp	r3, r4
  b6:	d360      	bcc.n	17a <wc_DhGenerateKeyPair+0x17a>
  b8:	4622      	mov	r2, r4
  ba:	4631      	mov	r1, r6
  bc:	4650      	mov	r0, sl
  be:	f7ff fffe 	bl	0 <wc_RNG_GenerateBlock>
  c2:	2800      	cmp	r0, #0
  c4:	d151      	bne.n	16a <wc_DhGenerateKeyPair+0x16a>
  c6:	7833      	ldrb	r3, [r6, #0]
  c8:	f043 030c 	orr.w	r3, r3, #12
  cc:	7033      	strb	r3, [r6, #0]
  ce:	603c      	str	r4, [r7, #0]
  d0:	e7c7      	b.n	62 <wc_DhGenerateKeyPair+0x62>
  d2:	f5b0 7f00 	cmp.w	r0, #512	@ 0x200
  d6:	d040      	beq.n	15a <wc_DhGenerateKeyPair+0x15a>
  d8:	00c0      	lsls	r0, r0, #3
  da:	f7ff fffe 	bl	0 <__aeabi_ui2d>
  de:	ec41 0b18 	vmov	d8, r0, r1
  e2:	ed9f 1b27 	vldr	d1, [pc, #156]	@ 180 <wc_DhGenerateKeyPair+0x180>
  e6:	eeb0 0a48 	vmov.f32	s0, s16
  ea:	eef0 0a68 	vmov.f32	s1, s17
  ee:	f7ff fffe 	bl	0 <pow>
  f2:	a328      	add	r3, pc, #160	@ (adr r3, 194 <wc_DhGenerateKeyPair+0x194>)
  f4:	e9d3 2300 	ldrd	r2, r3, [r3]
  f8:	ec51 0b10 	vmov	r0, r1, d0
  fc:	f7ff fffe 	bl	0 <__aeabi_dmul>
 100:	eeb0 0a48 	vmov.f32	s0, s16
 104:	eef0 0a68 	vmov.f32	s1, s17
 108:	e9cd 0100 	strd	r0, r1, [sp]
 10c:	f7ff fffe 	bl	0 <log>
 110:	ed9f 1b1d 	vldr	d1, [pc, #116]	@ 188 <wc_DhGenerateKeyPair+0x188>
 114:	f7ff fffe 	bl	0 <pow>
 118:	e9dd 0100 	ldrd	r0, r1, [sp]
 11c:	ec53 2b10 	vmov	r2, r3, d0
 120:	f7ff fffe 	bl	0 <__aeabi_dmul>
 124:	4b1a      	ldr	r3, [pc, #104]	@ (190 <wc_DhGenerateKeyPair+0x190>)
 126:	2200      	movs	r2, #0
 128:	f7ff fffe 	bl	0 <__aeabi_dsub>
 12c:	f7ff fffe 	bl	0 <__aeabi_d2uiz>
 130:	4604      	mov	r4, r0
 132:	e7b8      	b.n	a6 <wc_DhGenerateKeyPair+0xa6>
 134:	f5b0 7f60 	cmp.w	r0, #896	@ 0x380
 138:	d011      	beq.n	15e <wc_DhGenerateKeyPair+0x15e>
 13a:	f5b0 6f80 	cmp.w	r0, #1024	@ 0x400
 13e:	d010      	beq.n	162 <wc_DhGenerateKeyPair+0x162>
 140:	f5b0 7f40 	cmp.w	r0, #768	@ 0x300
 144:	d1ab      	bne.n	9e <wc_DhGenerateKeyPair+0x9e>
 146:	242e      	movs	r4, #46	@ 0x2e
 148:	e7b3      	b.n	b2 <wc_DhGenerateKeyPair+0xb2>
 14a:	242a      	movs	r4, #42	@ 0x2a
 14c:	e7b1      	b.n	b2 <wc_DhGenerateKeyPair+0xb2>
 14e:	2422      	movs	r4, #34	@ 0x22
 150:	e7af      	b.n	b2 <wc_DhGenerateKeyPair+0xb2>
 152:	2415      	movs	r4, #21
 154:	e7ad      	b.n	b2 <wc_DhGenerateKeyPair+0xb2>
 156:	241d      	movs	r4, #29
 158:	e7ab      	b.n	b2 <wc_DhGenerateKeyPair+0xb2>
 15a:	2427      	movs	r4, #39	@ 0x27
 15c:	e7a9      	b.n	b2 <wc_DhGenerateKeyPair+0xb2>
 15e:	2431      	movs	r4, #49	@ 0x31
 160:	e7a7      	b.n	b2 <wc_DhGenerateKeyPair+0xb2>
 162:	2434      	movs	r4, #52	@ 0x34
 164:	e7a5      	b.n	b2 <wc_DhGenerateKeyPair+0xb2>
 166:	f06f 00ac 	mvn.w	r0, #172	@ 0xac
 16a:	b003      	add	sp, #12
 16c:	ecbd 8b02 	vpop	{d8}
 170:	e8bd 8ff0 	ldmia.w	sp!, {r4, r5, r6, r7, r8, r9, sl, fp, pc}
 174:	f06f 0002 	mvn.w	r0, #2
 178:	e7f7      	b.n	16a <wc_DhGenerateKeyPair+0x16a>
 17a:	f06f 00e9 	mvn.w	r0, #233	@ 0xe9
 17e:	e7f4      	b.n	16a <wc_DhGenerateKeyPair+0x16a>
 180:	55555555 	.word	0x55555555
 184:	3fd55555 	.word	0x3fd55555
 188:	55555555 	.word	0x55555555
 18c:	3fe55555 	.word	0x3fe55555
 190:	40140000 	.word	0x40140000
 194:	33333333 	.word	0x33333333
 198:	40033333 	.word	0x40033333

Disassembly of section .text.wc_DhAgree:

00000000 <wc_DhAgree>:
   0:	b5f0      	push	{r4, r5, r6, r7, lr}
   2:	f8dd e01c 	ldr.w	lr, [sp, #28]
   6:	e9dd c705 	ldrd	ip, r7, [sp, #20]
   a:	b158      	cbz	r0, 24 <wc_DhAgree+0x24>
   c:	b151      	cbz	r1, 24 <wc_DhAgree+0x24>
   e:	b14a      	cbz	r2, 24 <wc_DhAgree+0x24>
  10:	b143      	cbz	r3, 24 <wc_DhAgree+0x24>
  12:	b13f      	cbz	r7, 24 <wc_DhAgree+0x24>
  14:	e9cd 7e06 	strd	r7, lr, [sp, #24]
  18:	f8cd c014 	str.w	ip, [sp, #20]
  1c:	e8bd 40f0 	ldmia.w	sp!, {r4, r5, r6, r7, lr}
  20:	f7ff bffe 	b.w	0 <wc_DhAgree>
  24:	f06f 00ac 	mvn.w	r0, #172	@ 0xac
  28:	bdf0      	pop	{r4, r5, r6, r7, pc}

Disassembly of section .text.wc_DhSetCheckKey:

00000000 <wc_DhSetCheckKey>:
   0:	f7ff bffe 	b.w	0 <wc_DhSetCheckKey>

Disassembly of section .text.wc_DhSetKey_ex:

00000000 <wc_DhSetKey_ex>:
   0:	b510      	push	{r4, lr}
   2:	b086      	sub	sp, #24
   4:	2400      	movs	r4, #0
   6:	e9cd 4403 	strd	r4, r4, [sp, #12]
   a:	9c0a      	ldr	r4, [sp, #40]	@ 0x28
   c:	9402      	str	r4, [sp, #8]
   e:	9c09      	ldr	r4, [sp, #36]	@ 0x24
  10:	9401      	str	r4, [sp, #4]
  12:	9c08      	ldr	r4, [sp, #32]
  14:	9400      	str	r4, [sp, #0]
  16:	f7ff fffe 	bl	0 <wc_DhSetKey_ex>
  1a:	b006      	add	sp, #24
  1c:	bd10      	pop	{r4, pc}

Disassembly of section .text.wc_DhSetKey:

00000000 <wc_DhSetKey>:
   0:	b530      	push	{r4, r5, lr}
   2:	b087      	sub	sp, #28
   4:	2400      	movs	r4, #0
   6:	2501      	movs	r5, #1
   8:	e9cd 5403 	strd	r5, r4, [sp, #12]
   c:	e9cd 4401 	strd	r4, r4, [sp, #4]
  10:	9c0a      	ldr	r4, [sp, #40]	@ 0x28
  12:	9400      	str	r4, [sp, #0]
  14:	f7ff fffe 	bl	0 <wc_DhSetKey>
  18:	b007      	add	sp, #28
  1a:	bd30      	pop	{r4, r5, pc}

Disassembly of section .text.wc_DhSetNamedKey:

00000000 <wc_DhSetNamedKey>:
   0:	b57f      	push	{r0, r1, r2, r3, r4, r5, r6, lr}
   2:	2300      	movs	r3, #0
   4:	2201      	movs	r2, #1
   6:	e9cd 2303 	strd	r2, r3, [sp, #12]
   a:	e9cd 3301 	strd	r3, r3, [sp, #4]
   e:	9300      	str	r3, [sp, #0]
  10:	461a      	mov	r2, r3
  12:	4619      	mov	r1, r3
  14:	f7ff fffe 	bl	0 <wc_DhSetNamedKey>
  18:	b007      	add	sp, #28
  1a:	f85d fb04 	ldr.w	pc, [sp], #4

Disassembly of section .text.wc_DhGetNamedKeyMinSize:

00000000 <wc_DhGetNamedKeyMinSize>:
   0:	2000      	movs	r0, #0
   2:	4770      	bx	lr

Disassembly of section .text.wc_DhCmpNamedKey:

00000000 <wc_DhCmpNamedKey>:
   0:	2000      	movs	r0, #0
   2:	4770      	bx	lr

Disassembly of section .text.wc_DhGetNamedKeyParamSize:

00000000 <wc_DhGetNamedKeyParamSize>:
   0:	b109      	cbz	r1, 6 <wc_DhGetNamedKeyParamSize+0x6>
   2:	2000      	movs	r0, #0
   4:	6008      	str	r0, [r1, #0]
   6:	b10a      	cbz	r2, c <wc_DhGetNamedKeyParamSize+0xc>
   8:	2100      	movs	r1, #0
   a:	6011      	str	r1, [r2, #0]
   c:	b10b      	cbz	r3, 12 <wc_DhGetNamedKeyParamSize+0x12>
   e:	2200      	movs	r2, #0
  10:	601a      	str	r2, [r3, #0]
  12:	2000      	movs	r0, #0
  14:	4770      	bx	lr

Disassembly of section .text.wc_DhCopyNamedKey:

00000000 <wc_DhCopyNamedKey>:
   0:	9900      	ldr	r1, [sp, #0]
   2:	9b02      	ldr	r3, [sp, #8]
   4:	b10a      	cbz	r2, a <wc_DhCopyNamedKey+0xa>
   6:	2000      	movs	r0, #0
   8:	6010      	str	r0, [r2, #0]
   a:	b109      	cbz	r1, 10 <wc_DhCopyNamedKey+0x10>
   c:	2200      	movs	r2, #0
   e:	600a      	str	r2, [r1, #0]
  10:	b10b      	cbz	r3, 16 <wc_DhCopyNamedKey+0x16>
  12:	2200      	movs	r2, #0
  14:	601a      	str	r2, [r3, #0]
  16:	2000      	movs	r0, #0
  18:	4770      	bx	lr

ecc.o:     file format elf32-littlearm


hmac.o:     file format elf32-littlearm


Disassembly of section .text.HmacKeyInnerHash:

00000000 <HmacKeyInnerHash>:
   0:	b510      	push	{r4, lr}
   2:	f890 3114 	ldrb.w	r3, [r0, #276]	@ 0x114
   6:	2b04      	cmp	r3, #4
   8:	4604      	mov	r4, r0
   a:	d006      	beq.n	1a <HmacKeyInnerHash+0x1a>
   c:	2b06      	cmp	r3, #6
   e:	d00c      	beq.n	2a <HmacKeyInnerHash+0x2a>
  10:	2301      	movs	r3, #1
  12:	f884 3115 	strb.w	r3, [r4, #277]	@ 0x115
  16:	2000      	movs	r0, #0
  18:	e006      	b.n	28 <HmacKeyInnerHash+0x28>
  1a:	2240      	movs	r2, #64	@ 0x40
  1c:	f100 0170 	add.w	r1, r0, #112	@ 0x70
  20:	f7ff fffe 	bl	0 <wc_ShaUpdate>
  24:	2800      	cmp	r0, #0
  26:	d0f3      	beq.n	10 <HmacKeyInnerHash+0x10>
  28:	bd10      	pop	{r4, pc}
  2a:	2240      	movs	r2, #64	@ 0x40
  2c:	f100 0170 	add.w	r1, r0, #112	@ 0x70
  30:	f7ff fffe 	bl	0 <wc_Sha256Update>
  34:	e7f6      	b.n	24 <HmacKeyInnerHash+0x24>

Disassembly of section .text.wc_HmacSizeByType:

00000000 <wc_HmacSizeByType>:
   0:	1ec3      	subs	r3, r0, #3
   2:	2b05      	cmp	r3, #5
   4:	d807      	bhi.n	16 <wc_HmacSizeByType+0x16>
   6:	2804      	cmp	r0, #4
   8:	d008      	beq.n	1c <wc_HmacSizeByType+0x1c>
   a:	2806      	cmp	r0, #6
   c:	bf14      	ite	ne
   e:	f06f 00ac 	mvnne.w	r0, #172	@ 0xac
  12:	2020      	moveq	r0, #32
  14:	4770      	bx	lr
  16:	f06f 00ac 	mvn.w	r0, #172	@ 0xac
  1a:	4770      	bx	lr
  1c:	2014      	movs	r0, #20
  1e:	4770      	bx	lr

Disassembly of section .text._InitHmac:

00000000 <_InitHmac>:
   0:	2904      	cmp	r1, #4
   2:	b538      	push	{r3, r4, r5, lr}
   4:	4605      	mov	r5, r0
   6:	4614      	mov	r4, r2
   8:	d006      	beq.n	18 <_InitHmac+0x18>
   a:	2906      	cmp	r1, #6
   c:	d00a      	beq.n	24 <_InitHmac+0x24>
   e:	f06f 00ac 	mvn.w	r0, #172	@ 0xac
  12:	f8c5 4110 	str.w	r4, [r5, #272]	@ 0x110
  16:	bd38      	pop	{r3, r4, r5, pc}
  18:	f06f 0201 	mvn.w	r2, #1
  1c:	4621      	mov	r1, r4
  1e:	f7ff fffe 	bl	0 <wc_InitSha_ex>
  22:	e7f6      	b.n	12 <_InitHmac+0x12>
  24:	f06f 0201 	mvn.w	r2, #1
  28:	4621      	mov	r1, r4
  2a:	f7ff fffe 	bl	0 <wc_InitSha256_ex>
  2e:	e7f0      	b.n	12 <_InitHmac+0x12>

Disassembly of section .text.wc_HmacUpdate:

00000000 <wc_HmacUpdate>:
   0:	b570      	push	{r4, r5, r6, lr}
   2:	460d      	mov	r5, r1
   4:	4616      	mov	r6, r2
   6:	4604      	mov	r4, r0
   8:	b300      	cbz	r0, 4c <wc_HmacUpdate+0x4c>
   a:	b901      	cbnz	r1, e <wc_HmacUpdate+0xe>
   c:	b9f2      	cbnz	r2, 4c <wc_HmacUpdate+0x4c>
   e:	f894 3115 	ldrb.w	r3, [r4, #277]	@ 0x115
  12:	b13b      	cbz	r3, 24 <wc_HmacUpdate+0x24>
  14:	f894 3114 	ldrb.w	r3, [r4, #276]	@ 0x114
  18:	2b04      	cmp	r3, #4
  1a:	d009      	beq.n	30 <wc_HmacUpdate+0x30>
  1c:	2b06      	cmp	r3, #6
  1e:	d00e      	beq.n	3e <wc_HmacUpdate+0x3e>
  20:	2000      	movs	r0, #0
  22:	bd70      	pop	{r4, r5, r6, pc}
  24:	4620      	mov	r0, r4
  26:	f7ff fffe 	bl	0 <wc_HmacUpdate>
  2a:	2800      	cmp	r0, #0
  2c:	d0f2      	beq.n	14 <wc_HmacUpdate+0x14>
  2e:	e7f8      	b.n	22 <wc_HmacUpdate+0x22>
  30:	4632      	mov	r2, r6
  32:	4629      	mov	r1, r5
  34:	4620      	mov	r0, r4
  36:	e8bd 4070 	ldmia.w	sp!, {r4, r5, r6, lr}
  3a:	f7ff bffe 	b.w	0 <wc_ShaUpdate>
  3e:	4632      	mov	r2, r6
  40:	4629      	mov	r1, r5
  42:	4620      	mov	r0, r4
  44:	e8bd 4070 	ldmia.w	sp!, {r4, r5, r6, lr}
  48:	f7ff bffe 	b.w	0 <wc_Sha256Update>
  4c:	f06f 00ac 	mvn.w	r0, #172	@ 0xac
  50:	e7e7      	b.n	22 <wc_HmacUpdate+0x22>

Disassembly of section .text.wc_HmacFinal:

00000000 <wc_HmacFinal>:
   0:	b570      	push	{r4, r5, r6, lr}
   2:	460d      	mov	r5, r1
   4:	4604      	mov	r4, r0
   6:	b148      	cbz	r0, 1c <wc_HmacFinal+0x1c>
   8:	b141      	cbz	r1, 1c <wc_HmacFinal+0x1c>
   a:	f890 3115 	ldrb.w	r3, [r0, #277]	@ 0x115
   e:	b143      	cbz	r3, 22 <wc_HmacFinal+0x22>
  10:	f894 3114 	ldrb.w	r3, [r4, #276]	@ 0x114
  14:	2b04      	cmp	r3, #4
  16:	d009      	beq.n	2c <wc_HmacFinal+0x2c>
  18:	2b06      	cmp	r3, #6
  1a:	d027      	beq.n	6c <wc_HmacFinal+0x6c>
  1c:	f06f 00ac 	mvn.w	r0, #172	@ 0xac
  20:	bd70      	pop	{r4, r5, r6, pc}
  22:	f7ff fffe 	bl	0 <wc_HmacFinal>
  26:	2800      	cmp	r0, #0
  28:	d0f2      	beq.n	10 <wc_HmacFinal+0x10>
  2a:	e7f9      	b.n	20 <wc_HmacFinal+0x20>
  2c:	f104 06f0 	add.w	r6, r4, #240	@ 0xf0
  30:	4631      	mov	r1, r6
  32:	4620      	mov	r0, r4
  34:	f7ff fffe 	bl	0 <wc_ShaFinal>
  38:	2800      	cmp	r0, #0
  3a:	d1f1      	bne.n	20 <wc_HmacFinal+0x20>
  3c:	2240      	movs	r2, #64	@ 0x40
  3e:	f104 01b0 	add.w	r1, r4, #176	@ 0xb0
  42:	4620      	mov	r0, r4
  44:	f7ff fffe 	bl	0 <wc_ShaUpdate>
  48:	2800      	cmp	r0, #0
  4a:	d1e9      	bne.n	20 <wc_HmacFinal+0x20>
  4c:	2214      	movs	r2, #20
  4e:	4631      	mov	r1, r6
  50:	4620      	mov	r0, r4
  52:	f7ff fffe 	bl	0 <wc_ShaUpdate>
  56:	2800      	cmp	r0, #0
  58:	d1e2      	bne.n	20 <wc_HmacFinal+0x20>
  5a:	4629      	mov	r1, r5
  5c:	4620      	mov	r0, r4
  5e:	f7ff fffe 	bl	0 <wc_ShaFinal>
  62:	2800      	cmp	r0, #0
  64:	d1dc      	bne.n	20 <wc_HmacFinal+0x20>
  66:	f884 0115 	strb.w	r0, [r4, #277]	@ 0x115
  6a:	e7d9      	b.n	20 <wc_HmacFinal+0x20>
  6c:	f104 06f0 	add.w	r6, r4, #240	@ 0xf0
  70:	4631      	mov	r1, r6
  72:	4620      	mov	r0, r4
  74:	f7ff fffe 	bl	0 <wc_Sha256Final>
  78:	2800      	cmp	r0, #0
  7a:	d1d1      	bne.n	20 <wc_HmacFinal+0x20>
  7c:	2240      	movs	r2, #64	@ 0x40
  7e:	f104 01b0 	add.w	r1, r4, #176	@ 0xb0
  82:	4620      	mov	r0, r4
  84:	f7ff fffe 	bl	0 <wc_Sha256Update>
  88:	2800      	cmp	r0, #0
  8a:	d1c9      	bne.n	20 <wc_HmacFinal+0x20>
  8c:	2220      	movs	r2, #32
  8e:	4631      	mov	r1, r6
  90:	4620      	mov	r0, r4
  92:	f7ff fffe 	bl	0 <wc_Sha256Update>
  96:	2800      	cmp	r0, #0
  98:	d1c2      	bne.n	20 <wc_HmacFinal+0x20>
  9a:	4629      	mov	r1, r5
  9c:	4620      	mov	r0, r4
  9e:	f7ff fffe 	bl	0 <wc_Sha256Final>
  a2:	e7de      	b.n	62 <wc_HmacFinal+0x62>

Disassembly of section .text.wc_HmacInit:

00000000 <wc_HmacInit>:
   0:	b538      	push	{r3, r4, r5, lr}
   2:	460d      	mov	r5, r1
   4:	4604      	mov	r4, r0
   6:	b150      	cbz	r0, 1e <wc_HmacInit+0x1e>
   8:	f44f 728c 	mov.w	r2, #280	@ 0x118
   c:	2100      	movs	r1, #0
   e:	f7ff fffe 	bl	0 <memset>
  12:	2000      	movs	r0, #0
  14:	f884 0114 	strb.w	r0, [r4, #276]	@ 0x114
  18:	f8c4 5110 	str.w	r5, [r4, #272]	@ 0x110
  1c:	bd38      	pop	{r3, r4, r5, pc}
  1e:	f06f 00ac 	mvn.w	r0, #172	@ 0xac
  22:	e7fb      	b.n	1c <wc_HmacInit+0x1c>

Disassembly of section .text.wc_HmacFree:

00000000 <wc_HmacFree>:
   0:	b510      	push	{r4, lr}
   2:	4604      	mov	r4, r0
   4:	b168      	cbz	r0, 22 <wc_HmacFree+0x22>
   6:	f890 3114 	ldrb.w	r3, [r0, #276]	@ 0x114
   a:	2b04      	cmp	r3, #4
   c:	d00a      	beq.n	24 <wc_HmacFree+0x24>
   e:	2b06      	cmp	r3, #6
  10:	d00b      	beq.n	2a <wc_HmacFree+0x2a>
  12:	f504 738c 	add.w	r3, r4, #280	@ 0x118
  16:	2100      	movs	r1, #0
  18:	4622      	mov	r2, r4
  1a:	3401      	adds	r4, #1
  1c:	429c      	cmp	r4, r3
  1e:	7011      	strb	r1, [r2, #0]
  20:	d1fa      	bne.n	18 <wc_HmacFree+0x18>
  22:	bd10      	pop	{r4, pc}
  24:	f7ff fffe 	bl	0 <wc_ShaFree>
  28:	e7f3      	b.n	12 <wc_HmacFree+0x12>
  2a:	f7ff fffe 	bl	0 <wc_Sha256Free>
  2e:	e7f0      	b.n	12 <wc_HmacFree+0x12>

Disassembly of section .text.wc_HmacSetKey_ex:

00000000 <wc_HmacSetKey_ex>:
   0:	e92d 41f0 	stmdb	sp!, {r4, r5, r6, r7, r8, lr}
   4:	9f06      	ldr	r7, [sp, #24]
   6:	460e      	mov	r6, r1
   8:	4690      	mov	r8, r2
   a:	461d      	mov	r5, r3
   c:	4604      	mov	r4, r0
   e:	b320      	cbz	r0, 5a <wc_HmacSetKey_ex+0x5a>
  10:	b902      	cbnz	r2, 14 <wc_HmacSetKey_ex+0x14>
  12:	bb13      	cbnz	r3, 5a <wc_HmacSetKey_ex+0x5a>
  14:	1ef3      	subs	r3, r6, #3
  16:	2b05      	cmp	r3, #5
  18:	d903      	bls.n	22 <wc_HmacSetKey_ex+0x22>
  1a:	f1a6 030a 	sub.w	r3, r6, #10
  1e:	2b03      	cmp	r3, #3
  20:	d81b      	bhi.n	5a <wc_HmacSetKey_ex+0x5a>
  22:	f894 3114 	ldrb.w	r3, [r4, #276]	@ 0x114
  26:	b113      	cbz	r3, 2e <wc_HmacSetKey_ex+0x2e>
  28:	4620      	mov	r0, r4
  2a:	f7ff fffe 	bl	0 <wc_HmacSetKey_ex>
  2e:	2200      	movs	r2, #0
  30:	f884 6114 	strb.w	r6, [r4, #276]	@ 0x114
  34:	4631      	mov	r1, r6
  36:	f884 2115 	strb.w	r2, [r4, #277]	@ 0x115
  3a:	4620      	mov	r0, r4
  3c:	f7ff fffe 	bl	0 <wc_HmacSetKey_ex>
  40:	4606      	mov	r6, r0
  42:	b960      	cbnz	r0, 5e <wc_HmacSetKey_ex+0x5e>
  44:	b90f      	cbnz	r7, 4a <wc_HmacSetKey_ex+0x4a>
  46:	2d0d      	cmp	r5, #13
  48:	d949      	bls.n	de <wc_HmacSetKey_ex+0xde>
  4a:	f894 3114 	ldrb.w	r3, [r4, #276]	@ 0x114
  4e:	2b04      	cmp	r3, #4
  50:	f104 0770 	add.w	r7, r4, #112	@ 0x70
  54:	d006      	beq.n	64 <wc_HmacSetKey_ex+0x64>
  56:	2b06      	cmp	r3, #6
  58:	d032      	beq.n	c0 <wc_HmacSetKey_ex+0xc0>
  5a:	f06f 06ac 	mvn.w	r6, #172	@ 0xac
  5e:	4630      	mov	r0, r6
  60:	e8bd 81f0 	ldmia.w	sp!, {r4, r5, r6, r7, r8, pc}
  64:	2d40      	cmp	r5, #64	@ 0x40
  66:	d818      	bhi.n	9a <wc_HmacSetKey_ex+0x9a>
  68:	f1b8 0f00 	cmp.w	r8, #0
  6c:	d004      	beq.n	78 <wc_HmacSetKey_ex+0x78>
  6e:	462a      	mov	r2, r5
  70:	4641      	mov	r1, r8
  72:	4638      	mov	r0, r7
  74:	f7ff fffe 	bl	0 <memcpy>
  78:	2d40      	cmp	r5, #64	@ 0x40
  7a:	d11a      	bne.n	b2 <wc_HmacSetKey_ex+0xb2>
  7c:	f104 036f 	add.w	r3, r4, #111	@ 0x6f
  80:	34af      	adds	r4, #175	@ 0xaf
  82:	f813 2f01 	ldrb.w	r2, [r3, #1]!
  86:	f082 015c 	eor.w	r1, r2, #92	@ 0x5c
  8a:	42a3      	cmp	r3, r4
  8c:	f082 0236 	eor.w	r2, r2, #54	@ 0x36
  90:	f883 1040 	strb.w	r1, [r3, #64]	@ 0x40
  94:	701a      	strb	r2, [r3, #0]
  96:	d1f4      	bne.n	82 <wc_HmacSetKey_ex+0x82>
  98:	e7e1      	b.n	5e <wc_HmacSetKey_ex+0x5e>
  9a:	462a      	mov	r2, r5
  9c:	4641      	mov	r1, r8
  9e:	4620      	mov	r0, r4
  a0:	f7ff fffe 	bl	0 <wc_ShaUpdate>
  a4:	b9f0      	cbnz	r0, e4 <wc_HmacSetKey_ex+0xe4>
  a6:	4639      	mov	r1, r7
  a8:	4620      	mov	r0, r4
  aa:	f7ff fffe 	bl	0 <wc_ShaFinal>
  ae:	b9c8      	cbnz	r0, e4 <wc_HmacSetKey_ex+0xe4>
  b0:	2514      	movs	r5, #20
  b2:	f1c5 0240 	rsb	r2, r5, #64	@ 0x40
  b6:	2100      	movs	r1, #0
  b8:	1978      	adds	r0, r7, r5
  ba:	f7ff fffe 	bl	0 <memset>
  be:	e7dd      	b.n	7c <wc_HmacSetKey_ex+0x7c>
  c0:	2d40      	cmp	r5, #64	@ 0x40
  c2:	d9d1      	bls.n	68 <wc_HmacSetKey_ex+0x68>
  c4:	462a      	mov	r2, r5
  c6:	4641      	mov	r1, r8
  c8:	4620      	mov	r0, r4
  ca:	f7ff fffe 	bl	0 <wc_Sha256Update>
  ce:	b948      	cbnz	r0, e4 <wc_HmacSetKey_ex+0xe4>
  d0:	4639      	mov	r1, r7
  d2:	4620      	mov	r0, r4
  d4:	f7ff fffe 	bl	0 <wc_Sha256Final>
  d8:	b920      	cbnz	r0, e4 <wc_HmacSetKey_ex+0xe4>
  da:	2520      	movs	r5, #32
  dc:	e7e9      	b.n	b2 <wc_HmacSetKey_ex+0xb2>
  de:	f06f 06c7 	mvn.w	r6, #199	@ 0xc7
  e2:	e7bc      	b.n	5e <wc_HmacSetKey_ex+0x5e>
  e4:	4606      	mov	r6, r0
  e6:	e7ba      	b.n	5e <wc_HmacSetKey_ex+0x5e>

Disassembly of section .text.wc_HmacSetKey:

00000000 <wc_HmacSetKey>:
   0:	b513      	push	{r0, r1, r4, lr}
   2:	2401      	movs	r4, #1
   4:	9400      	str	r4, [sp, #0]
   6:	f7ff fffe 	bl	0 <wc_HmacSetKey>
   a:	b002      	add	sp, #8
   c:	bd10      	pop	{r4, pc}

Disassembly of section .text.wolfSSL_GetHmacMaxSize:

00000000 <wolfSSL_GetHmacMaxSize>:
   0:	2020      	movs	r0, #32
   2:	4770      	bx	lr

kdf.o:     file format elf32-littlearm


random.o:     file format elf32-littlearm


Disassembly of section .text.ForceZero:

00000000 <ForceZero>:
   0:	4401      	add	r1, r0
   2:	2200      	movs	r2, #0
   4:	4603      	mov	r3, r0
   6:	3001      	adds	r0, #1
   8:	4288      	cmp	r0, r1
   a:	701a      	strb	r2, [r3, #0]
   c:	d1fa      	bne.n	4 <ForceZero+0x4>
   e:	4770      	bx	lr

Disassembly of section .text.ConstantCompare:

00000000 <ConstantCompare>:
   0:	b570      	push	{r4, r5, r6, lr}
   2:	4604      	mov	r4, r0
   4:	2000      	movs	r0, #0
   6:	4603      	mov	r3, r0
   8:	4293      	cmp	r3, r2
   a:	d100      	bne.n	e <ConstantCompare+0xe>
   c:	bd70      	pop	{r4, r5, r6, pc}
   e:	5ce5      	ldrb	r5, [r4, r3]
  10:	5cce      	ldrb	r6, [r1, r3]
  12:	4075      	eors	r5, r6
  14:	4328      	orrs	r0, r5
  16:	3301      	adds	r3, #1
  18:	e7f6      	b.n	8 <ConstantCompare+0x8>

Disassembly of section .text.Hash_DRBG_Uninstantiate:

00000000 <Hash_DRBG_Uninstantiate>:
   0:	b510      	push	{r4, lr}
   2:	2178      	movs	r1, #120	@ 0x78
   4:	4604      	mov	r4, r0
   6:	f7ff fffe 	bl	0 <Hash_DRBG_Uninstantiate>
   a:	1e63      	subs	r3, r4, #1
   c:	2000      	movs	r0, #0
   e:	3477      	adds	r4, #119	@ 0x77
  10:	f813 2f01 	ldrb.w	r2, [r3, #1]!
  14:	42a3      	cmp	r3, r4
  16:	ea40 0002 	orr.w	r0, r0, r2
  1a:	d1f9      	bne.n	10 <Hash_DRBG_Uninstantiate+0x10>
  1c:	3800      	subs	r0, #0
  1e:	bf18      	it	ne
  20:	2001      	movne	r0, #1
  22:	bd10      	pop	{r4, pc}

Disassembly of section .text.array_add.part.0.constprop.0:

00000000 <array_add.part.0.constprop.0>:
   0:	b5f0      	push	{r4, r5, r6, r7, lr}
   2:	2300      	movs	r3, #0
   4:	f100 0537 	add.w	r5, r0, #55	@ 0x37
   8:	188c      	adds	r4, r1, r2
   a:	f814 7d01 	ldrb.w	r7, [r4, #-1]!
   e:	f815 6d01 	ldrb.w	r6, [r5, #-1]!
  12:	443e      	add	r6, r7
  14:	4433      	add	r3, r6
  16:	428c      	cmp	r4, r1
  18:	702b      	strb	r3, [r5, #0]
  1a:	f3c3 230f 	ubfx	r3, r3, #8, #16
  1e:	d1f4      	bne.n	a <array_add.part.0.constprop.0+0xa>
  20:	f1c2 0236 	rsb	r2, r2, #54	@ 0x36
  24:	4402      	add	r2, r0
  26:	1a11      	subs	r1, r2, r0
  28:	2900      	cmp	r1, #0
  2a:	da00      	bge.n	2e <array_add.part.0.constprop.0+0x2e>
  2c:	bdf0      	pop	{r4, r5, r6, r7, pc}
  2e:	7811      	ldrb	r1, [r2, #0]
  30:	440b      	add	r3, r1
  32:	b29b      	uxth	r3, r3
  34:	f802 3901 	strb.w	r3, [r2], #-1
  38:	0a1b      	lsrs	r3, r3, #8
  3a:	e7f4      	b.n	26 <array_add.part.0.constprop.0+0x26>

Disassembly of section .text.Hash_DRBG_Generate:

00000000 <Hash_DRBG_Generate>:
   0:	e92d 4ff0 	stmdb	sp!, {r4, r5, r6, r7, r8, r9, sl, fp, lr}
   4:	4689      	mov	r9, r1
   6:	b0b7      	sub	sp, #220	@ 0xdc
   8:	4614      	mov	r4, r2
   a:	4605      	mov	r5, r0
   c:	2800      	cmp	r0, #0
   e:	f000 809f 	beq.w	150 <Hash_DRBG_Generate+0x150>
  12:	6807      	ldr	r7, [r0, #0]
  14:	4b50      	ldr	r3, [pc, #320]	@ (158 <Hash_DRBG_Generate+0x158>)
  16:	429f      	cmp	r7, r3
  18:	f000 809c 	beq.w	154 <Hash_DRBG_Generate+0x154>
  1c:	2a01      	cmp	r2, #1
  1e:	bf38      	it	cc
  20:	2401      	movcc	r4, #1
  22:	f014 0a1f 	ands.w	sl, r4, #31
  26:	bf18      	it	ne
  28:	f04f 0a01 	movne.w	sl, #1
  2c:	2303      	movs	r3, #3
  2e:	f100 0804 	add.w	r8, r0, #4
  32:	ae0c      	add	r6, sp, #48	@ 0x30
  34:	f88d 300b 	strb.w	r3, [sp, #11]
  38:	2237      	movs	r2, #55	@ 0x37
  3a:	eb0a 1354 	add.w	r3, sl, r4, lsr #5
  3e:	4641      	mov	r1, r8
  40:	4630      	mov	r0, r6
  42:	9703      	str	r7, [sp, #12]
  44:	9301      	str	r3, [sp, #4]
  46:	f7ff fffe 	bl	0 <memcpy>
  4a:	f04f 0b00 	mov.w	fp, #0
  4e:	f04f 0a01 	mov.w	sl, #1
  52:	9b01      	ldr	r3, [sp, #4]
  54:	455b      	cmp	r3, fp
  56:	d140      	bne.n	da <Hash_DRBG_Generate+0xda>
  58:	2137      	movs	r1, #55	@ 0x37
  5a:	4630      	mov	r0, r6
  5c:	f7ff fffe 	bl	0 <Hash_DRBG_Generate>
  60:	f1ba 0f00 	cmp.w	sl, #0
  64:	d172      	bne.n	14c <Hash_DRBG_Generate+0x14c>
  66:	a81a      	add	r0, sp, #104	@ 0x68
  68:	f7ff fffe 	bl	0 <wc_InitSha256>
  6c:	4604      	mov	r4, r0
  6e:	b998      	cbnz	r0, 98 <Hash_DRBG_Generate+0x98>
  70:	2201      	movs	r2, #1
  72:	f10d 010b 	add.w	r1, sp, #11
  76:	a81a      	add	r0, sp, #104	@ 0x68
  78:	f7ff fffe 	bl	0 <wc_Sha256Update>
  7c:	4604      	mov	r4, r0
  7e:	b958      	cbnz	r0, 98 <Hash_DRBG_Generate+0x98>
  80:	2237      	movs	r2, #55	@ 0x37
  82:	4641      	mov	r1, r8
  84:	a81a      	add	r0, sp, #104	@ 0x68
  86:	f7ff fffe 	bl	0 <wc_Sha256Update>
  8a:	4604      	mov	r4, r0
  8c:	b920      	cbnz	r0, 98 <Hash_DRBG_Generate+0x98>
  8e:	4631      	mov	r1, r6
  90:	a81a      	add	r0, sp, #104	@ 0x68
  92:	f7ff fffe 	bl	0 <wc_Sha256Final>
  96:	4604      	mov	r4, r0
  98:	a81a      	add	r0, sp, #104	@ 0x68
  9a:	f7ff fffe 	bl	0 <wc_Sha256Free>
  9e:	b97c      	cbnz	r4, c0 <Hash_DRBG_Generate+0xc0>
  a0:	2220      	movs	r2, #32
  a2:	4631      	mov	r1, r6
  a4:	4640      	mov	r0, r8
  a6:	f7ff fffe 	bl	0 <Hash_DRBG_Generate>
  aa:	2237      	movs	r2, #55	@ 0x37
  ac:	f105 013b 	add.w	r1, r5, #59	@ 0x3b
  b0:	f7ff fffe 	bl	0 <Hash_DRBG_Generate>
  b4:	ba3f      	rev	r7, r7
  b6:	2204      	movs	r2, #4
  b8:	a903      	add	r1, sp, #12
  ba:	9703      	str	r7, [sp, #12]
  bc:	f7ff fffe 	bl	0 <Hash_DRBG_Generate>
  c0:	682b      	ldr	r3, [r5, #0]
  c2:	3301      	adds	r3, #1
  c4:	602b      	str	r3, [r5, #0]
  c6:	4630      	mov	r0, r6
  c8:	2120      	movs	r1, #32
  ca:	f7ff fffe 	bl	0 <Hash_DRBG_Generate>
  ce:	1e20      	subs	r0, r4, #0
  d0:	bf18      	it	ne
  d2:	2001      	movne	r0, #1
  d4:	b037      	add	sp, #220	@ 0xdc
  d6:	e8bd 8ff0 	ldmia.w	sp!, {r4, r5, r6, r7, r8, r9, sl, fp, pc}
  da:	a81a      	add	r0, sp, #104	@ 0x68
  dc:	f7ff fffe 	bl	0 <wc_InitSha256>
  e0:	4682      	mov	sl, r0
  e2:	b958      	cbnz	r0, fc <Hash_DRBG_Generate+0xfc>
  e4:	2237      	movs	r2, #55	@ 0x37
  e6:	4631      	mov	r1, r6
  e8:	a81a      	add	r0, sp, #104	@ 0x68
  ea:	f7ff fffe 	bl	0 <wc_Sha256Update>
  ee:	4682      	mov	sl, r0
  f0:	b920      	cbnz	r0, fc <Hash_DRBG_Generate+0xfc>
  f2:	a904      	add	r1, sp, #16
  f4:	a81a      	add	r0, sp, #104	@ 0x68
  f6:	f7ff fffe 	bl	0 <wc_Sha256Final>
  fa:	4682      	mov	sl, r0
  fc:	a81a      	add	r0, sp, #104	@ 0x68
  fe:	f7ff fffe 	bl	0 <wc_Sha256Free>
 102:	f1ba 0f00 	cmp.w	sl, #0
 106:	d1a7      	bne.n	58 <Hash_DRBG_Generate+0x58>
 108:	f1b9 0f00 	cmp.w	r9, #0
 10c:	d014      	beq.n	138 <Hash_DRBG_Generate+0x138>
 10e:	b1dc      	cbz	r4, 148 <Hash_DRBG_Generate+0x148>
 110:	2c1f      	cmp	r4, #31
 112:	d914      	bls.n	13e <Hash_DRBG_Generate+0x13e>
 114:	a904      	add	r1, sp, #16
 116:	4648      	mov	r0, r9
 118:	2220      	movs	r2, #32
 11a:	f7ff fffe 	bl	0 <memcpy>
 11e:	3c20      	subs	r4, #32
 120:	f109 0920 	add.w	r9, r9, #32
 124:	f10d 0167 	add.w	r1, sp, #103	@ 0x67
 128:	f811 2d01 	ldrb.w	r2, [r1, #-1]!
 12c:	3201      	adds	r2, #1
 12e:	b2d2      	uxtb	r2, r2
 130:	700a      	strb	r2, [r1, #0]
 132:	b90a      	cbnz	r2, 138 <Hash_DRBG_Generate+0x138>
 134:	428e      	cmp	r6, r1
 136:	d1f7      	bne.n	128 <Hash_DRBG_Generate+0x128>
 138:	f10b 0b01 	add.w	fp, fp, #1
 13c:	e789      	b.n	52 <Hash_DRBG_Generate+0x52>
 13e:	4622      	mov	r2, r4
 140:	a904      	add	r1, sp, #16
 142:	4648      	mov	r0, r9
 144:	f7ff fffe 	bl	0 <memcpy>
 148:	2400      	movs	r4, #0
 14a:	e7f5      	b.n	138 <Hash_DRBG_Generate+0x138>
 14c:	2401      	movs	r4, #1
 14e:	e7ba      	b.n	c6 <Hash_DRBG_Generate+0xc6>
 150:	2001      	movs	r0, #1
 152:	e7bf      	b.n	d4 <Hash_DRBG_Generate+0xd4>
 154:	2002      	movs	r0, #2
 156:	e7bd      	b.n	d4 <Hash_DRBG_Generate+0xd4>
 158:	000f4240 	.word	0x000f4240

Disassembly of section .text.Hash_df.constprop.0:

00000000 <Hash_df.constprop.0>:
   0:	e92d 47f0 	stmdb	sp!, {r4, r5, r6, r7, r8, r9, sl, lr}
   4:	b0a8      	sub	sp, #160	@ 0xa0
   6:	e9dd 8931 	ldrd	r8, r9, [sp, #196]	@ 0xc4
   a:	460d      	mov	r5, r1
   c:	461f      	mov	r7, r3
   e:	f88d 2007 	strb.w	r2, [sp, #7]
  12:	2401      	movs	r4, #1
  14:	2800      	cmp	r0, #0
  16:	d06c      	beq.n	f2 <Hash_df.constprop.0+0xf2>
  18:	4b37      	ldr	r3, [pc, #220]	@ (f8 <Hash_df.constprop.0+0xf8>)
  1a:	9303      	str	r3, [sp, #12]
  1c:	f88d 400b 	strb.w	r4, [sp, #11]
  20:	f04f 0a02 	mov.w	sl, #2
  24:	2637      	movs	r6, #55	@ 0x37
  26:	a80c      	add	r0, sp, #48	@ 0x30
  28:	f7ff fffe 	bl	0 <wc_InitSha256>
  2c:	4604      	mov	r4, r0
  2e:	bb70      	cbnz	r0, 8e <Hash_df.constprop.0+0x8e>
  30:	2201      	movs	r2, #1
  32:	f10d 010b 	add.w	r1, sp, #11
  36:	a80c      	add	r0, sp, #48	@ 0x30
  38:	f7ff fffe 	bl	0 <wc_Sha256Update>
  3c:	4604      	mov	r4, r0
  3e:	b9b0      	cbnz	r0, 6e <Hash_df.constprop.0+0x6e>
  40:	f89d 300b 	ldrb.w	r3, [sp, #11]
  44:	2204      	movs	r2, #4
  46:	3301      	adds	r3, #1
  48:	a903      	add	r1, sp, #12
  4a:	a80c      	add	r0, sp, #48	@ 0x30
  4c:	f88d 300b 	strb.w	r3, [sp, #11]
  50:	f7ff fffe 	bl	0 <wc_Sha256Update>
  54:	4604      	mov	r4, r0
  56:	b950      	cbnz	r0, 6e <Hash_df.constprop.0+0x6e>
  58:	f89d 3007 	ldrb.w	r3, [sp, #7]
  5c:	2b04      	cmp	r3, #4
  5e:	d123      	bne.n	a8 <Hash_df.constprop.0+0xa8>
  60:	9a30      	ldr	r2, [sp, #192]	@ 0xc0
  62:	4639      	mov	r1, r7
  64:	a80c      	add	r0, sp, #48	@ 0x30
  66:	f7ff fffe 	bl	0 <wc_Sha256Update>
  6a:	4604      	mov	r4, r0
  6c:	b330      	cbz	r0, bc <Hash_df.constprop.0+0xbc>
  6e:	a80c      	add	r0, sp, #48	@ 0x30
  70:	f7ff fffe 	bl	0 <wc_Sha256Free>
  74:	b944      	cbnz	r4, 88 <Hash_df.constprop.0+0x88>
  76:	2e20      	cmp	r6, #32
  78:	d935      	bls.n	e6 <Hash_df.constprop.0+0xe6>
  7a:	4628      	mov	r0, r5
  7c:	2220      	movs	r2, #32
  7e:	a904      	add	r1, sp, #16
  80:	f7ff fffe 	bl	0 <memcpy>
  84:	3e20      	subs	r6, #32
  86:	3520      	adds	r5, #32
  88:	f1ba 0f01 	cmp.w	sl, #1
  8c:	d109      	bne.n	a2 <Hash_df.constprop.0+0xa2>
  8e:	a804      	add	r0, sp, #16
  90:	2120      	movs	r1, #32
  92:	f7ff fffe 	bl	0 <Hash_df.constprop.0>
  96:	1e20      	subs	r0, r4, #0
  98:	bf18      	it	ne
  9a:	2001      	movne	r0, #1
  9c:	b028      	add	sp, #160	@ 0xa0
  9e:	e8bd 87f0 	ldmia.w	sp!, {r4, r5, r6, r7, r8, r9, sl, pc}
  a2:	f04f 0a01 	mov.w	sl, #1
  a6:	e7be      	b.n	26 <Hash_df.constprop.0+0x26>
  a8:	2201      	movs	r2, #1
  aa:	f10d 0107 	add.w	r1, sp, #7
  ae:	a80c      	add	r0, sp, #48	@ 0x30
  b0:	f7ff fffe 	bl	0 <wc_Sha256Update>
  b4:	4604      	mov	r4, r0
  b6:	2800      	cmp	r0, #0
  b8:	d1d9      	bne.n	6e <Hash_df.constprop.0+0x6e>
  ba:	e7d1      	b.n	60 <Hash_df.constprop.0+0x60>
  bc:	f1b8 0f00 	cmp.w	r8, #0
  c0:	d105      	bne.n	ce <Hash_df.constprop.0+0xce>
  c2:	a904      	add	r1, sp, #16
  c4:	a80c      	add	r0, sp, #48	@ 0x30
  c6:	f7ff fffe 	bl	0 <wc_Sha256Final>
  ca:	4604      	mov	r4, r0
  cc:	e7cf      	b.n	6e <Hash_df.constprop.0+0x6e>
  ce:	f1b9 0f00 	cmp.w	r9, #0
  d2:	d0f6      	beq.n	c2 <Hash_df.constprop.0+0xc2>
  d4:	464a      	mov	r2, r9
  d6:	4641      	mov	r1, r8
  d8:	a80c      	add	r0, sp, #48	@ 0x30
  da:	f7ff fffe 	bl	0 <wc_Sha256Update>
  de:	4604      	mov	r4, r0
  e0:	2800      	cmp	r0, #0
  e2:	d1c4      	bne.n	6e <Hash_df.constprop.0+0x6e>
  e4:	e7ed      	b.n	c2 <Hash_df.constprop.0+0xc2>
  e6:	4632      	mov	r2, r6
  e8:	a904      	add	r1, sp, #16
  ea:	4628      	mov	r0, r5
  ec:	f7ff fffe 	bl	0 <memcpy>
  f0:	e7ca      	b.n	88 <Hash_df.constprop.0+0x88>
  f2:	4620      	mov	r0, r4
  f4:	e7d2      	b.n	9c <Hash_df.constprop.0+0x9c>
  f6:	bf00      	nop
  f8:	b8010000 	.word	0xb8010000

Disassembly of section .text.Hash_DRBG_Reseed.part.0:

00000000 <Hash_DRBG_Reseed.part.0>:
   0:	b5f0      	push	{r4, r5, r6, r7, lr}
   2:	b093      	sub	sp, #76	@ 0x4c
   4:	4605      	mov	r5, r0
   6:	460c      	mov	r4, r1
   8:	4616      	mov	r6, r2
   a:	2100      	movs	r1, #0
   c:	2237      	movs	r2, #55	@ 0x37
   e:	a804      	add	r0, sp, #16
  10:	f7ff fffe 	bl	0 <memset>
  14:	1d2f      	adds	r7, r5, #4
  16:	e9cd 4601 	strd	r4, r6, [sp, #4]
  1a:	2637      	movs	r6, #55	@ 0x37
  1c:	9600      	str	r6, [sp, #0]
  1e:	463b      	mov	r3, r7
  20:	2201      	movs	r2, #1
  22:	a904      	add	r1, sp, #16
  24:	4628      	mov	r0, r5
  26:	f7ff fffe 	bl	0 <Hash_DRBG_Reseed.part.0>
  2a:	4604      	mov	r4, r0
  2c:	b9b0      	cbnz	r0, 5c <Hash_DRBG_Reseed.part.0+0x5c>
  2e:	4632      	mov	r2, r6
  30:	a904      	add	r1, sp, #16
  32:	4638      	mov	r0, r7
  34:	f7ff fffe 	bl	0 <memcpy>
  38:	4631      	mov	r1, r6
  3a:	a804      	add	r0, sp, #16
  3c:	f7ff fffe 	bl	0 <Hash_DRBG_Reseed.part.0>
  40:	e9cd 4401 	strd	r4, r4, [sp, #4]
  44:	4622      	mov	r2, r4
  46:	9600      	str	r6, [sp, #0]
  48:	463b      	mov	r3, r7
  4a:	f105 013b 	add.w	r1, r5, #59	@ 0x3b
  4e:	4628      	mov	r0, r5
  50:	f7ff fffe 	bl	0 <Hash_DRBG_Reseed.part.0>
  54:	4604      	mov	r4, r0
  56:	b908      	cbnz	r0, 5c <Hash_DRBG_Reseed.part.0+0x5c>
  58:	2301      	movs	r3, #1
  5a:	602b      	str	r3, [r5, #0]
  5c:	4620      	mov	r0, r4
  5e:	b013      	add	sp, #76	@ 0x4c
  60:	bdf0      	pop	{r4, r5, r6, r7, pc}

Disassembly of section .text.Hash_DRBG_Instantiate.isra.0:

00000000 <Hash_DRBG_Instantiate.isra.0>:
   0:	e92d 41ff 	stmdb	sp!, {r0, r1, r2, r3, r4, r5, r6, r7, r8, lr}
   4:	4604      	mov	r4, r0
   6:	460d      	mov	r5, r1
   8:	4616      	mov	r6, r2
   a:	2100      	movs	r1, #0
   c:	2278      	movs	r2, #120	@ 0x78
   e:	461f      	mov	r7, r3
  10:	f7ff fffe 	bl	0 <memset>
  14:	9b0b      	ldr	r3, [sp, #44]	@ 0x2c
  16:	6763      	str	r3, [r4, #116]	@ 0x74
  18:	9b0a      	ldr	r3, [sp, #40]	@ 0x28
  1a:	9600      	str	r6, [sp, #0]
  1c:	f104 0804 	add.w	r8, r4, #4
  20:	e9cd 7301 	strd	r7, r3, [sp, #4]
  24:	2204      	movs	r2, #4
  26:	462b      	mov	r3, r5
  28:	4641      	mov	r1, r8
  2a:	4620      	mov	r0, r4
  2c:	f7ff fffe 	bl	0 <Hash_DRBG_Instantiate.isra.0>
  30:	4602      	mov	r2, r0
  32:	b118      	cbz	r0, 3c <Hash_DRBG_Instantiate.isra.0+0x3c>
  34:	2001      	movs	r0, #1
  36:	b004      	add	sp, #16
  38:	e8bd 81f0 	ldmia.w	sp!, {r4, r5, r6, r7, r8, pc}
  3c:	2337      	movs	r3, #55	@ 0x37
  3e:	e9cd 0001 	strd	r0, r0, [sp, #4]
  42:	9300      	str	r3, [sp, #0]
  44:	f104 013b 	add.w	r1, r4, #59	@ 0x3b
  48:	4643      	mov	r3, r8
  4a:	4620      	mov	r0, r4
  4c:	f7ff fffe 	bl	0 <Hash_DRBG_Instantiate.isra.0>
  50:	2800      	cmp	r0, #0
  52:	d1ef      	bne.n	34 <Hash_DRBG_Instantiate.isra.0+0x34>
  54:	2301      	movs	r3, #1
  56:	6023      	str	r3, [r4, #0]
  58:	e7ed      	b.n	36 <Hash_DRBG_Instantiate.isra.0+0x36>

Disassembly of section .text.wc_RNG_DRBG_Reseed:

00000000 <wc_RNG_DRBG_Reseed>:
   0:	b120      	cbz	r0, c <wc_RNG_DRBG_Reseed+0xc>
   2:	b119      	cbz	r1, c <wc_RNG_DRBG_Reseed+0xc>
   4:	6880      	ldr	r0, [r0, #8]
   6:	b120      	cbz	r0, 12 <wc_RNG_DRBG_Reseed+0x12>
   8:	f7ff bffe 	b.w	0 <wc_RNG_DRBG_Reseed>
   c:	f06f 00ac 	mvn.w	r0, #172	@ 0xac
  10:	4770      	bx	lr
  12:	2001      	movs	r0, #1
  14:	4770      	bx	lr

Disassembly of section .text.wc_RNG_TestSeed:

00000000 <wc_RNG_TestSeed>:
   0:	e92d 41f0 	stmdb	sp!, {r4, r5, r6, r7, r8, lr}
   4:	f1a1 0804 	sub.w	r8, r1, #4
   8:	4642      	mov	r2, r8
   a:	2a04      	cmp	r2, #4
   c:	f04f 0400 	mov.w	r4, #0
  10:	4605      	mov	r5, r0
  12:	460e      	mov	r6, r1
  14:	bf28      	it	cs
  16:	2204      	movcs	r2, #4
  18:	4627      	mov	r7, r4
  1a:	45a0      	cmp	r8, r4
  1c:	d802      	bhi.n	24 <wc_RNG_TestSeed+0x24>
  1e:	4638      	mov	r0, r7
  20:	e8bd 81f0 	ldmia.w	sp!, {r4, r5, r6, r7, r8, pc}
  24:	18a1      	adds	r1, r4, r2
  26:	1928      	adds	r0, r5, r4
  28:	4429      	add	r1, r5
  2a:	f7ff fffe 	bl	0 <wc_RNG_TestSeed>
  2e:	3404      	adds	r4, #4
  30:	2800      	cmp	r0, #0
  32:	eba6 0204 	sub.w	r2, r6, r4
  36:	bf08      	it	eq
  38:	2703      	moveq	r7, #3
  3a:	2a04      	cmp	r2, #4
  3c:	bf28      	it	cs
  3e:	2204      	movcs	r2, #4
  40:	e7eb      	b.n	1a <wc_RNG_TestSeed+0x1a>

Disassembly of section .text.wc_FreeRng:

00000000 <wc_FreeRng>:
   0:	b510      	push	{r4, lr}
   2:	4604      	mov	r4, r0
   4:	b168      	cbz	r0, 22 <wc_FreeRng+0x22>
   6:	6880      	ldr	r0, [r0, #8]
   8:	b138      	cbz	r0, 1a <wc_FreeRng+0x1a>
   a:	f7ff fffe 	bl	0 <wc_FreeRng>
   e:	2300      	movs	r3, #0
  10:	2800      	cmp	r0, #0
  12:	bf18      	it	ne
  14:	f06f 00c6 	mvnne.w	r0, #198	@ 0xc6
  18:	60a3      	str	r3, [r4, #8]
  1a:	2300      	movs	r3, #0
  1c:	f884 3084 	strb.w	r3, [r4, #132]	@ 0x84
  20:	bd10      	pop	{r4, pc}
  22:	f06f 00ac 	mvn.w	r0, #172	@ 0xac
  26:	e7fb      	b.n	20 <wc_FreeRng+0x20>

Disassembly of section .text.wc_rng_free:

00000000 <wc_rng_free>:
   0:	b510      	push	{r4, lr}
   2:	4604      	mov	r4, r0
   4:	b138      	cbz	r0, 16 <wc_rng_free+0x16>
   6:	f7ff fffe 	bl	0 <wc_rng_free>
   a:	4620      	mov	r0, r4
   c:	2188      	movs	r1, #136	@ 0x88
   e:	e8bd 4010 	ldmia.w	sp!, {r4, lr}
  12:	f7ff bffe 	b.w	0 <wc_rng_free>
  16:	bd10      	pop	{r4, pc}

Disassembly of section .text.wc_RNG_HealthTest_ex:

00000000 <wc_RNG_HealthTest_ex>:
   0:	b570      	push	{r4, r5, r6, lr}
   2:	b0a0      	sub	sp, #128	@ 0x80
   4:	4604      	mov	r4, r0
   6:	9e25      	ldr	r6, [sp, #148]	@ 0x94
   8:	9d27      	ldr	r5, [sp, #156]	@ 0x9c
   a:	4608      	mov	r0, r1
   c:	4619      	mov	r1, r3
   e:	2b00      	cmp	r3, #0
  10:	d037      	beq.n	82 <wc_RNG_HealthTest_ex+0x82>
  12:	2d00      	cmp	r5, #0
  14:	d035      	beq.n	82 <wc_RNG_HealthTest_ex+0x82>
  16:	b10c      	cbz	r4, 1c <wc_RNG_HealthTest_ex+0x1c>
  18:	2e00      	cmp	r6, #0
  1a:	d032      	beq.n	82 <wc_RNG_HealthTest_ex+0x82>
  1c:	9b28      	ldr	r3, [sp, #160]	@ 0xa0
  1e:	2b80      	cmp	r3, #128	@ 0x80
  20:	d004      	beq.n	2c <wc_RNG_HealthTest_ex+0x2c>
  22:	f04f 34ff 	mov.w	r4, #4294967295	@ 0xffffffff
  26:	4620      	mov	r0, r4
  28:	b020      	add	sp, #128	@ 0x80
  2a:	bd70      	pop	{r4, r5, r6, pc}
  2c:	9b29      	ldr	r3, [sp, #164]	@ 0xa4
  2e:	e9cd 2300 	strd	r2, r3, [sp]
  32:	4603      	mov	r3, r0
  34:	9a24      	ldr	r2, [sp, #144]	@ 0x90
  36:	a802      	add	r0, sp, #8
  38:	f7ff fffe 	bl	0 <wc_RNG_HealthTest_ex>
  3c:	b138      	cbz	r0, 4e <wc_RNG_HealthTest_ex+0x4e>
  3e:	f04f 34ff 	mov.w	r4, #4294967295	@ 0xffffffff
  42:	a802      	add	r0, sp, #8
  44:	f7ff fffe 	bl	0 <wc_RNG_HealthTest_ex>
  48:	2800      	cmp	r0, #0
  4a:	d0ec      	beq.n	26 <wc_RNG_HealthTest_ex+0x26>
  4c:	e7e9      	b.n	22 <wc_RNG_HealthTest_ex+0x22>
  4e:	b984      	cbnz	r4, 72 <wc_RNG_HealthTest_ex+0x72>
  50:	2280      	movs	r2, #128	@ 0x80
  52:	4629      	mov	r1, r5
  54:	a802      	add	r0, sp, #8
  56:	f7ff fffe 	bl	0 <wc_RNG_HealthTest_ex>
  5a:	2800      	cmp	r0, #0
  5c:	d1ef      	bne.n	3e <wc_RNG_HealthTest_ex+0x3e>
  5e:	2280      	movs	r2, #128	@ 0x80
  60:	4629      	mov	r1, r5
  62:	a802      	add	r0, sp, #8
  64:	f7ff fffe 	bl	0 <wc_RNG_HealthTest_ex>
  68:	1e04      	subs	r4, r0, #0
  6a:	bf18      	it	ne
  6c:	2401      	movne	r4, #1
  6e:	4264      	negs	r4, r4
  70:	e7e7      	b.n	42 <wc_RNG_HealthTest_ex+0x42>
  72:	9a26      	ldr	r2, [sp, #152]	@ 0x98
  74:	4631      	mov	r1, r6
  76:	a802      	add	r0, sp, #8
  78:	f7ff fffe 	bl	0 <wc_RNG_HealthTest_ex>
  7c:	2800      	cmp	r0, #0
  7e:	d0e7      	beq.n	50 <wc_RNG_HealthTest_ex+0x50>
  80:	e7dd      	b.n	3e <wc_RNG_HealthTest_ex+0x3e>
  82:	f06f 04ac 	mvn.w	r4, #172	@ 0xac
  86:	e7ce      	b.n	26 <wc_RNG_HealthTest_ex+0x26>

Disassembly of section .text.wc_RNG_HealthTest:

00000000 <wc_RNG_HealthTest>:
   0:	b530      	push	{r4, r5, lr}
   2:	b089      	sub	sp, #36	@ 0x24
   4:	4614      	mov	r4, r2
   6:	f06f 0501 	mvn.w	r5, #1
   a:	2200      	movs	r2, #0
   c:	e9cd 2505 	strd	r2, r5, [sp, #20]
  10:	9d0e      	ldr	r5, [sp, #56]	@ 0x38
  12:	9504      	str	r5, [sp, #16]
  14:	9d0d      	ldr	r5, [sp, #52]	@ 0x34
  16:	9503      	str	r5, [sp, #12]
  18:	9d0c      	ldr	r5, [sp, #48]	@ 0x30
  1a:	9400      	str	r4, [sp, #0]
  1c:	e9cd 3501 	strd	r3, r5, [sp, #4]
  20:	460b      	mov	r3, r1
  22:	4611      	mov	r1, r2
  24:	f7ff fffe 	bl	0 <wc_RNG_HealthTest>
  28:	b009      	add	sp, #36	@ 0x24
  2a:	bd30      	pop	{r4, r5, pc}

Disassembly of section .text.wc_GenerateSeed:

00000000 <wc_GenerateSeed>:
   0:	e92d 41f0 	stmdb	sp!, {r4, r5, r6, r7, r8, lr}
   4:	460e      	mov	r6, r1
   6:	4615      	mov	r5, r2
   8:	2400      	movs	r4, #0
   a:	42ac      	cmp	r4, r5
   c:	d302      	bcc.n	14 <wc_GenerateSeed+0x14>
   e:	2000      	movs	r0, #0
  10:	e8bd 81f0 	ldmia.w	sp!, {r4, r5, r6, r7, r8, pc}
  14:	1d27      	adds	r7, r4, #4
  16:	42af      	cmp	r7, r5
  18:	eb06 0804 	add.w	r8, r6, r4
  1c:	d802      	bhi.n	24 <wc_GenerateSeed+0x24>
  1e:	f018 0f03 	tst.w	r8, #3
  22:	d006      	beq.n	32 <wc_GenerateSeed+0x32>
  24:	f7ff fffe 	bl	0 <my_rng_seed_gen>
  28:	1c67      	adds	r7, r4, #1
  2a:	f888 0000 	strb.w	r0, [r8]
  2e:	463c      	mov	r4, r7
  30:	e7eb      	b.n	a <wc_GenerateSeed+0xa>
  32:	f7ff fffe 	bl	0 <my_rng_seed_gen>
  36:	f8c8 0000 	str.w	r0, [r8]
  3a:	e7f8      	b.n	2e <wc_GenerateSeed+0x2e>

Disassembly of section .text._InitRng:

00000000 <_InitRng>:
   0:	e92d 47f0 	stmdb	sp!, {r4, r5, r6, r7, r8, r9, sl, lr}
   4:	b0a8      	sub	sp, #160	@ 0xa0
   6:	4688      	mov	r8, r1
   8:	f8dd a0c0 	ldr.w	sl, [sp, #192]	@ 0xc0
   c:	4616      	mov	r6, r2
   e:	461c      	mov	r4, r3
  10:	4605      	mov	r5, r0
  12:	2800      	cmp	r0, #0
  14:	d076      	beq.n	104 <_InitRng+0x104>
  16:	b909      	cbnz	r1, 1c <_InitRng+0x1c>
  18:	2a00      	cmp	r2, #0
  1a:	d173      	bne.n	104 <_InitRng+0x104>
  1c:	2200      	movs	r2, #0
  1e:	ab08      	add	r3, sp, #32
  20:	606c      	str	r4, [r5, #4]
  22:	60aa      	str	r2, [r5, #8]
  24:	f885 2084 	strb.w	r2, [r5, #132]	@ 0x84
  28:	f04f 0980 	mov.w	r9, #128	@ 0x80
  2c:	e9cd 2302 	strd	r2, r3, [sp, #8]
  30:	2330      	movs	r3, #48	@ 0x30
  32:	4296      	cmp	r6, r2
  34:	9300      	str	r3, [sp, #0]
  36:	e9cd 4a05 	strd	r4, sl, [sp, #20]
  3a:	4b34      	ldr	r3, [pc, #208]	@ (10c <_InitRng+0x10c>)
  3c:	f8cd 9010 	str.w	r9, [sp, #16]
  40:	9201      	str	r2, [sp, #4]
  42:	4611      	mov	r1, r2
  44:	4610      	mov	r0, r2
  46:	bf0c      	ite	eq
  48:	2734      	moveq	r7, #52	@ 0x34
  4a:	2724      	movne	r7, #36	@ 0x24
  4c:	f7ff fffe 	bl	0 <_InitRng>
  50:	2800      	cmp	r0, #0
  52:	d149      	bne.n	e8 <_InitRng+0xe8>
  54:	492e      	ldr	r1, [pc, #184]	@ (110 <_InitRng+0x110>)
  56:	464a      	mov	r2, r9
  58:	a808      	add	r0, sp, #32
  5a:	f7ff fffe 	bl	0 <_InitRng>
  5e:	2800      	cmp	r0, #0
  60:	d142      	bne.n	e8 <_InitRng+0xe8>
  62:	ab08      	add	r3, sp, #32
  64:	e9cd 0302 	strd	r0, r3, [sp, #8]
  68:	2320      	movs	r3, #32
  6a:	9300      	str	r3, [sp, #0]
  6c:	4b27      	ldr	r3, [pc, #156]	@ (10c <_InitRng+0x10c>)
  6e:	f8cd 9010 	str.w	r9, [sp, #16]
  72:	e9cd 4a05 	strd	r4, sl, [sp, #20]
  76:	9001      	str	r0, [sp, #4]
  78:	2210      	movs	r2, #16
  7a:	f103 0120 	add.w	r1, r3, #32
  7e:	f7ff fffe 	bl	0 <_InitRng>
  82:	bb88      	cbnz	r0, e8 <_InitRng+0xe8>
  84:	4922      	ldr	r1, [pc, #136]	@ (110 <_InitRng+0x110>)
  86:	464a      	mov	r2, r9
  88:	a808      	add	r0, sp, #32
  8a:	f7ff fffe 	bl	0 <_InitRng>
  8e:	bb58      	cbnz	r0, e8 <_InitRng+0xe8>
  90:	f105 030c 	add.w	r3, r5, #12
  94:	60ab      	str	r3, [r5, #8]
  96:	463a      	mov	r2, r7
  98:	a908      	add	r1, sp, #32
  9a:	4628      	mov	r0, r5
  9c:	f7ff fffe 	bl	0 <_InitRng>
  a0:	b9f0      	cbnz	r0, e0 <_InitRng+0xe0>
  a2:	4639      	mov	r1, r7
  a4:	a808      	add	r0, sp, #32
  a6:	f7ff fffe 	bl	0 <_InitRng>
  aa:	4604      	mov	r4, r0
  ac:	b950      	cbnz	r0, c4 <_InitRng+0xc4>
  ae:	686b      	ldr	r3, [r5, #4]
  b0:	e9cd 6300 	strd	r6, r3, [sp]
  b4:	1f3a      	subs	r2, r7, #4
  b6:	68a8      	ldr	r0, [r5, #8]
  b8:	4643      	mov	r3, r8
  ba:	a909      	add	r1, sp, #36	@ 0x24
  bc:	f7ff fffe 	bl	0 <_InitRng>
  c0:	4604      	mov	r4, r0
  c2:	b108      	cbz	r0, c8 <_InitRng+0xc8>
  c4:	2300      	movs	r3, #0
  c6:	60ab      	str	r3, [r5, #8]
  c8:	4639      	mov	r1, r7
  ca:	a808      	add	r0, sp, #32
  cc:	f7ff fffe 	bl	0 <_InitRng>
  d0:	b944      	cbnz	r4, e4 <_InitRng+0xe4>
  d2:	2301      	movs	r3, #1
  d4:	f885 3084 	strb.w	r3, [r5, #132]	@ 0x84
  d8:	4620      	mov	r0, r4
  da:	b028      	add	sp, #160	@ 0xa0
  dc:	e8bd 87f0 	ldmia.w	sp!, {r4, r5, r6, r7, r8, r9, sl, pc}
  e0:	2401      	movs	r4, #1
  e2:	e7ef      	b.n	c4 <_InitRng+0xc4>
  e4:	2c03      	cmp	r4, #3
  e6:	d105      	bne.n	f4 <_InitRng+0xf4>
  e8:	2303      	movs	r3, #3
  ea:	f885 3084 	strb.w	r3, [r5, #132]	@ 0x84
  ee:	f06f 04d0 	mvn.w	r4, #208	@ 0xd0
  f2:	e7f1      	b.n	d8 <_InitRng+0xd8>
  f4:	2302      	movs	r3, #2
  f6:	2c01      	cmp	r4, #1
  f8:	f885 3084 	strb.w	r3, [r5, #132]	@ 0x84
  fc:	d1ec      	bne.n	d8 <_InitRng+0xd8>
  fe:	f06f 04c6 	mvn.w	r4, #198	@ 0xc6
 102:	e7e9      	b.n	d8 <_InitRng+0xd8>
 104:	f06f 04ac 	mvn.w	r4, #172	@ 0xac
 108:	e7e6      	b.n	d8 <_InitRng+0xd8>
 10a:	bf00      	nop
	...

Disassembly of section .text.wc_rng_new:

00000000 <wc_rng_new>:
   0:	b508      	push	{r3, lr}
   2:	4b04      	ldr	r3, [pc, #16]	@ (14 <wc_rng_new+0x14>)
   4:	4904      	ldr	r1, [pc, #16]	@ (18 <wc_rng_new+0x18>)
   6:	681b      	ldr	r3, [r3, #0]
   8:	68d8      	ldr	r0, [r3, #12]
   a:	f7ff fffe 	bl	0 <fprintf>
   e:	2000      	movs	r0, #0
  10:	bd08      	pop	{r3, pc}
  12:	bf00      	nop
	...

Disassembly of section .text.wc_rng_new_ex:

00000000 <wc_rng_new_ex>:
   0:	4b06      	ldr	r3, [pc, #24]	@ (1c <wc_rng_new_ex+0x1c>)
   2:	4907      	ldr	r1, [pc, #28]	@ (20 <wc_rng_new_ex+0x20>)
   4:	681b      	ldr	r3, [r3, #0]
   6:	b510      	push	{r4, lr}
   8:	4604      	mov	r4, r0
   a:	68d8      	ldr	r0, [r3, #12]
   c:	f7ff fffe 	bl	0 <fprintf>
  10:	2300      	movs	r3, #0
  12:	6023      	str	r3, [r4, #0]
  14:	f06f 007c 	mvn.w	r0, #124	@ 0x7c
  18:	bd10      	pop	{r4, pc}
  1a:	bf00      	nop
	...

Disassembly of section .text.wc_InitRng:

00000000 <wc_InitRng>:
   0:	b507      	push	{r0, r1, r2, lr}
   2:	f06f 0301 	mvn.w	r3, #1
   6:	9300      	str	r3, [sp, #0]
   8:	2300      	movs	r3, #0
   a:	461a      	mov	r2, r3
   c:	4619      	mov	r1, r3
   e:	f7ff fffe 	bl	0 <wc_InitRng>
  12:	b003      	add	sp, #12
  14:	f85d fb04 	ldr.w	pc, [sp], #4

Disassembly of section .text.wc_InitRng_ex:

00000000 <wc_InitRng_ex>:
   0:	b507      	push	{r0, r1, r2, lr}
   2:	9200      	str	r2, [sp, #0]
   4:	2200      	movs	r2, #0
   6:	460b      	mov	r3, r1
   8:	4611      	mov	r1, r2
   a:	f7ff fffe 	bl	0 <wc_InitRng_ex>
   e:	b003      	add	sp, #12
  10:	f85d fb04 	ldr.w	pc, [sp], #4

Disassembly of section .text.wc_InitRngNonce:

00000000 <wc_InitRngNonce>:
   0:	b507      	push	{r0, r1, r2, lr}
   2:	f06f 0301 	mvn.w	r3, #1
   6:	9300      	str	r3, [sp, #0]
   8:	2300      	movs	r3, #0
   a:	f7ff fffe 	bl	0 <wc_InitRngNonce>
   e:	b003      	add	sp, #12
  10:	f85d fb04 	ldr.w	pc, [sp], #4

Disassembly of section .text.wc_InitRngNonce_ex:

00000000 <wc_InitRngNonce_ex>:
   0:	f7ff bffe 	b.w	0 <wc_InitRngNonce_ex>

Disassembly of section .text.wc_RNG_GenerateBlock:

00000000 <wc_RNG_GenerateBlock>:
   0:	e92d 43f0 	stmdb	sp!, {r4, r5, r6, r7, r8, r9, lr}
   4:	4688      	mov	r8, r1
   6:	b0a9      	sub	sp, #164	@ 0xa4
   8:	4617      	mov	r7, r2
   a:	4605      	mov	r5, r0
   c:	2800      	cmp	r0, #0
   e:	d061      	beq.n	d4 <wc_RNG_GenerateBlock+0xd4>
  10:	2900      	cmp	r1, #0
  12:	d05f      	beq.n	d4 <wc_RNG_GenerateBlock+0xd4>
  14:	b91a      	cbnz	r2, 1e <wc_RNG_GenerateBlock+0x1e>
  16:	2000      	movs	r0, #0
  18:	b029      	add	sp, #164	@ 0xa4
  1a:	e8bd 83f0 	ldmia.w	sp!, {r4, r5, r6, r7, r8, r9, pc}
  1e:	f5b2 3f80 	cmp.w	r2, #65536	@ 0x10000
  22:	d857      	bhi.n	d4 <wc_RNG_GenerateBlock+0xd4>
  24:	f890 9084 	ldrb.w	r9, [r0, #132]	@ 0x84
  28:	f1b9 0f01 	cmp.w	r9, #1
  2c:	d002      	beq.n	34 <wc_RNG_GenerateBlock+0x34>
  2e:	f06f 00c6 	mvn.w	r0, #198	@ 0xc6
  32:	e7f1      	b.n	18 <wc_RNG_GenerateBlock+0x18>
  34:	6880      	ldr	r0, [r0, #8]
  36:	f7ff fffe 	bl	0 <wc_RNG_GenerateBlock>
  3a:	2802      	cmp	r0, #2
  3c:	4604      	mov	r4, r0
  3e:	d139      	bne.n	b4 <wc_RNG_GenerateBlock+0xb4>
  40:	f06f 0301 	mvn.w	r3, #1
  44:	9306      	str	r3, [sp, #24]
  46:	686b      	ldr	r3, [r5, #4]
  48:	9305      	str	r3, [sp, #20]
  4a:	2320      	movs	r3, #32
  4c:	9302      	str	r3, [sp, #8]
  4e:	4b23      	ldr	r3, [pc, #140]	@ (dc <wc_RNG_GenerateBlock+0xdc>)
  50:	9301      	str	r3, [sp, #4]
  52:	2480      	movs	r4, #128	@ 0x80
  54:	2330      	movs	r3, #48	@ 0x30
  56:	ae08      	add	r6, sp, #32
  58:	2200      	movs	r2, #0
  5a:	9300      	str	r3, [sp, #0]
  5c:	9404      	str	r4, [sp, #16]
  5e:	4b20      	ldr	r3, [pc, #128]	@ (e0 <wc_RNG_GenerateBlock+0xe0>)
  60:	9603      	str	r6, [sp, #12]
  62:	4611      	mov	r1, r2
  64:	4648      	mov	r0, r9
  66:	f7ff fffe 	bl	0 <wc_RNG_GenerateBlock>
  6a:	bb38      	cbnz	r0, bc <wc_RNG_GenerateBlock+0xbc>
  6c:	491d      	ldr	r1, [pc, #116]	@ (e4 <wc_RNG_GenerateBlock+0xe4>)
  6e:	4622      	mov	r2, r4
  70:	4630      	mov	r0, r6
  72:	f7ff fffe 	bl	0 <wc_RNG_GenerateBlock>
  76:	bb08      	cbnz	r0, bc <wc_RNG_GenerateBlock+0xbc>
  78:	2224      	movs	r2, #36	@ 0x24
  7a:	4631      	mov	r1, r6
  7c:	4628      	mov	r0, r5
  7e:	f7ff fffe 	bl	0 <wc_RNG_GenerateBlock>
  82:	bb08      	cbnz	r0, c8 <wc_RNG_GenerateBlock+0xc8>
  84:	2124      	movs	r1, #36	@ 0x24
  86:	4630      	mov	r0, r6
  88:	f7ff fffe 	bl	0 <wc_RNG_GenerateBlock>
  8c:	4604      	mov	r4, r0
  8e:	b968      	cbnz	r0, ac <wc_RNG_GenerateBlock+0xac>
  90:	68a8      	ldr	r0, [r5, #8]
  92:	b1c8      	cbz	r0, c8 <wc_RNG_GenerateBlock+0xc8>
  94:	2220      	movs	r2, #32
  96:	a909      	add	r1, sp, #36	@ 0x24
  98:	f7ff fffe 	bl	0 <wc_RNG_GenerateBlock>
  9c:	4604      	mov	r4, r0
  9e:	b928      	cbnz	r0, ac <wc_RNG_GenerateBlock+0xac>
  a0:	68a8      	ldr	r0, [r5, #8]
  a2:	463a      	mov	r2, r7
  a4:	4641      	mov	r1, r8
  a6:	f7ff fffe 	bl	0 <wc_RNG_GenerateBlock>
  aa:	4604      	mov	r4, r0
  ac:	2124      	movs	r1, #36	@ 0x24
  ae:	4630      	mov	r0, r6
  b0:	f7ff fffe 	bl	0 <wc_RNG_GenerateBlock>
  b4:	2c00      	cmp	r4, #0
  b6:	d0ae      	beq.n	16 <wc_RNG_GenerateBlock+0x16>
  b8:	2c03      	cmp	r4, #3
  ba:	d107      	bne.n	cc <wc_RNG_GenerateBlock+0xcc>
  bc:	2303      	movs	r3, #3
  be:	f885 3084 	strb.w	r3, [r5, #132]	@ 0x84
  c2:	f06f 00d0 	mvn.w	r0, #208	@ 0xd0
  c6:	e7a7      	b.n	18 <wc_RNG_GenerateBlock+0x18>
  c8:	2401      	movs	r4, #1
  ca:	e7ef      	b.n	ac <wc_RNG_GenerateBlock+0xac>
  cc:	2302      	movs	r3, #2
  ce:	f885 3084 	strb.w	r3, [r5, #132]	@ 0x84
  d2:	e7ac      	b.n	2e <wc_RNG_GenerateBlock+0x2e>
  d4:	f06f 00ac 	mvn.w	r0, #172	@ 0xac
  d8:	e79e      	b.n	18 <wc_RNG_GenerateBlock+0x18>
  da:	bf00      	nop
	...

Disassembly of section .text.wc_RNG_GenerateByte:

00000000 <wc_RNG_GenerateByte>:
   0:	2201      	movs	r2, #1
   2:	f7ff bffe 	b.w	0 <wc_RNG_GenerateByte>

rsa.o:     file format elf32-littlearm


Disassembly of section .text.xorbuf:

00000000 <xorbuf>:
   0:	ea81 0300 	eor.w	r3, r1, r0
   4:	079b      	lsls	r3, r3, #30
   6:	b5f0      	push	{r4, r5, r6, r7, lr}
   8:	d10c      	bne.n	24 <xorbuf+0x24>
   a:	f000 0403 	and.w	r4, r0, #3
   e:	b104      	cbz	r4, 12 <xorbuf+0x12>
  10:	b96a      	cbnz	r2, 2e <xorbuf+0x2e>
  12:	f022 0503 	bic.w	r5, r2, #3
  16:	194e      	adds	r6, r1, r5
  18:	4603      	mov	r3, r0
  1a:	42b1      	cmp	r1, r6
  1c:	d110      	bne.n	40 <xorbuf+0x40>
  1e:	4428      	add	r0, r5
  20:	f002 0203 	and.w	r2, r2, #3
  24:	3901      	subs	r1, #1
  26:	4402      	add	r2, r0
  28:	4290      	cmp	r0, r2
  2a:	d111      	bne.n	50 <xorbuf+0x50>
  2c:	bdf0      	pop	{r4, r5, r6, r7, pc}
  2e:	f810 3b01 	ldrb.w	r3, [r0], #1
  32:	f811 5b01 	ldrb.w	r5, [r1], #1
  36:	406b      	eors	r3, r5
  38:	f800 3c01 	strb.w	r3, [r0, #-1]
  3c:	3a01      	subs	r2, #1
  3e:	e7e6      	b.n	e <xorbuf+0xe>
  40:	f853 4b04 	ldr.w	r4, [r3], #4
  44:	f851 7b04 	ldr.w	r7, [r1], #4
  48:	407c      	eors	r4, r7
  4a:	f843 4c04 	str.w	r4, [r3, #-4]
  4e:	e7e4      	b.n	1a <xorbuf+0x1a>
  50:	7803      	ldrb	r3, [r0, #0]
  52:	f811 4f01 	ldrb.w	r4, [r1, #1]!
  56:	4063      	eors	r3, r4
  58:	f800 3b01 	strb.w	r3, [r0], #1
  5c:	e7e4      	b.n	28 <xorbuf+0x28>

Disassembly of section .text.RsaMGF1.isra.0:

00000000 <RsaMGF1.isra.0>:
   0:	e92d 4ff0 	stmdb	sp!, {r4, r5, r6, r7, r8, r9, sl, fp, lr}
   4:	b0f1      	sub	sp, #452	@ 0x1c4
   6:	e9cd 0103 	strd	r0, r1, [sp, #12]
   a:	4617      	mov	r7, r2
   c:	9305      	str	r3, [sp, #20]
   e:	f7ff fffe 	bl	0 <wc_HashGetDigestSize>
  12:	2224      	movs	r2, #36	@ 0x24
  14:	4604      	mov	r4, r0
  16:	2100      	movs	r1, #0
  18:	a807      	add	r0, sp, #28
  1a:	f7ff fffe 	bl	0 <memset>
  1e:	2c00      	cmp	r4, #0
  20:	db3b      	blt.n	9a <RsaMGF1.isra.0+0x9a>
  22:	f107 0804 	add.w	r8, r7, #4
  26:	f1b8 0f24 	cmp.w	r8, #36	@ 0x24
  2a:	9402      	str	r4, [sp, #8]
  2c:	d801      	bhi.n	32 <RsaMGF1.isra.0+0x32>
  2e:	2c24      	cmp	r4, #36	@ 0x24
  30:	d909      	bls.n	46 <RsaMGF1.isra.0+0x46>
  32:	4544      	cmp	r4, r8
  34:	bf38      	it	cc
  36:	4644      	movcc	r4, r8
  38:	f5b4 7fc0 	cmp.w	r4, #384	@ 0x180
  3c:	46a1      	mov	r9, r4
  3e:	d904      	bls.n	4a <RsaMGF1.isra.0+0x4a>
  40:	f06f 04ac 	mvn.w	r4, #172	@ 0xac
  44:	e029      	b.n	9a <RsaMGF1.isra.0+0x9a>
  46:	f04f 0924 	mov.w	r9, #36	@ 0x24
  4a:	2500      	movs	r5, #0
  4c:	f10d 0b40 	add.w	fp, sp, #64	@ 0x40
  50:	462e      	mov	r6, r5
  52:	eb0b 0a07 	add.w	sl, fp, r7
  56:	9904      	ldr	r1, [sp, #16]
  58:	463a      	mov	r2, r7
  5a:	4658      	mov	r0, fp
  5c:	f7ff fffe 	bl	0 <memcpy>
  60:	0e32      	lsrs	r2, r6, #24
  62:	f80b 2007 	strb.w	r2, [fp, r7]
  66:	0c32      	lsrs	r2, r6, #16
  68:	f88a 2001 	strb.w	r2, [sl, #1]
  6c:	0a32      	lsrs	r2, r6, #8
  6e:	f88a 2002 	strb.w	r2, [sl, #2]
  72:	f88a 6003 	strb.w	r6, [sl, #3]
  76:	9803      	ldr	r0, [sp, #12]
  78:	f8cd 9000 	str.w	r9, [sp]
  7c:	465b      	mov	r3, fp
  7e:	4642      	mov	r2, r8
  80:	4659      	mov	r1, fp
  82:	f7ff fffe 	bl	0 <wc_Hash>
  86:	4604      	mov	r4, r0
  88:	b938      	cbnz	r0, 9a <RsaMGF1.isra.0+0x9a>
  8a:	9b02      	ldr	r3, [sp, #8]
  8c:	465a      	mov	r2, fp
  8e:	18e9      	adds	r1, r5, r3
  90:	428d      	cmp	r5, r1
  92:	d00c      	beq.n	ae <RsaMGF1.isra.0+0xae>
  94:	9b7a      	ldr	r3, [sp, #488]	@ 0x1e8
  96:	42ab      	cmp	r3, r5
  98:	d803      	bhi.n	a2 <RsaMGF1.isra.0+0xa2>
  9a:	4620      	mov	r0, r4
  9c:	b071      	add	sp, #452	@ 0x1c4
  9e:	e8bd 8ff0 	ldmia.w	sp!, {r4, r5, r6, r7, r8, r9, sl, fp, pc}
  a2:	9b05      	ldr	r3, [sp, #20]
  a4:	f812 0b01 	ldrb.w	r0, [r2], #1
  a8:	5558      	strb	r0, [r3, r5]
  aa:	3501      	adds	r5, #1
  ac:	e7f0      	b.n	90 <RsaMGF1.isra.0+0x90>
  ae:	9b7a      	ldr	r3, [sp, #488]	@ 0x1e8
  b0:	42ab      	cmp	r3, r5
  b2:	f106 0601 	add.w	r6, r6, #1
  b6:	d8ce      	bhi.n	56 <RsaMGF1.isra.0+0x56>
  b8:	e7ef      	b.n	9a <RsaMGF1.isra.0+0x9a>

Disassembly of section .text.RsaMGF.isra.0:

00000000 <RsaMGF.isra.0>:
   0:	b410      	push	{r4}
   2:	2801      	cmp	r0, #1
   4:	9c01      	ldr	r4, [sp, #4]
   6:	d007      	beq.n	18 <RsaMGF.isra.0+0x18>
   8:	281a      	cmp	r0, #26
   a:	d108      	bne.n	1e <RsaMGF.isra.0+0x1e>
   c:	9401      	str	r4, [sp, #4]
   e:	2004      	movs	r0, #4
  10:	f85d 4b04 	ldr.w	r4, [sp], #4
  14:	f7ff bffe 	b.w	0 <RsaMGF.isra.0>
  18:	9401      	str	r4, [sp, #4]
  1a:	2006      	movs	r0, #6
  1c:	e7f8      	b.n	10 <RsaMGF.isra.0+0x10>
  1e:	f06f 00ac 	mvn.w	r0, #172	@ 0xac
  22:	f85d 4b04 	ldr.w	r4, [sp], #4
  26:	4770      	bx	lr

Disassembly of section .text.RsaUnPad_PSS.isra.0:

00000000 <RsaUnPad_PSS.isra.0>:
   0:	e92d 47f0 	stmdb	sp!, {r4, r5, r6, r7, r8, r9, sl, lr}
   4:	b0e2      	sub	sp, #392	@ 0x188
   6:	f5b1 7fc0 	cmp.w	r1, #384	@ 0x180
   a:	4604      	mov	r4, r0
   c:	f8dd 81ac 	ldr.w	r8, [sp, #428]	@ 0x1ac
  10:	460f      	mov	r7, r1
  12:	4691      	mov	r9, r2
  14:	4618      	mov	r0, r3
  16:	d863      	bhi.n	e0 <RsaUnPad_PSS.isra.0+0xe0>
  18:	f7ff fffe 	bl	0 <wc_HashGetDigestSize>
  1c:	1e06      	subs	r6, r0, #0
  1e:	db62      	blt.n	e6 <RsaUnPad_PSS.isra.0+0xe6>
  20:	9b6c      	ldr	r3, [sp, #432]	@ 0x1b0
  22:	7822      	ldrb	r2, [r4, #0]
  24:	3b01      	subs	r3, #1
  26:	f003 0a07 	and.w	sl, r3, #7
  2a:	23ff      	movs	r3, #255	@ 0xff
  2c:	fa03 f30a 	lsl.w	r3, r3, sl
  30:	421a      	tst	r2, r3
  32:	d15d      	bne.n	f0 <RsaUnPad_PSS.isra.0+0xf0>
  34:	f1ba 0f00 	cmp.w	sl, #0
  38:	d101      	bne.n	3e <RsaUnPad_PSS.isra.0+0x3e>
  3a:	3401      	adds	r4, #1
  3c:	3f01      	subs	r7, #1
  3e:	1e7d      	subs	r5, r7, #1
  40:	1bad      	subs	r5, r5, r6
  42:	d452      	bmi.n	ea <RsaUnPad_PSS.isra.0+0xea>
  44:	f1b8 3fff 	cmp.w	r8, #4294967295	@ 0xffffffff
  48:	d044      	beq.n	d4 <RsaUnPad_PSS.isra.0+0xd4>
  4a:	4546      	cmp	r6, r8
  4c:	da05      	bge.n	5a <RsaUnPad_PSS.isra.0+0x5a>
  4e:	f06f 03f9 	mvn.w	r3, #249	@ 0xf9
  52:	4618      	mov	r0, r3
  54:	b062      	add	sp, #392	@ 0x188
  56:	e8bd 87f0 	ldmia.w	sp!, {r4, r5, r6, r7, r8, r9, sl, pc}
  5a:	f1b8 3fff 	cmp.w	r8, #4294967295	@ 0xffffffff
  5e:	dbf6      	blt.n	4e <RsaUnPad_PSS.isra.0+0x4e>
  60:	4545      	cmp	r5, r8
  62:	ddf4      	ble.n	4e <RsaUnPad_PSS.isra.0+0x4e>
  64:	4427      	add	r7, r4
  66:	f817 3c01 	ldrb.w	r3, [r7, #-1]
  6a:	2bbc      	cmp	r3, #188	@ 0xbc
  6c:	d140      	bne.n	f0 <RsaUnPad_PSS.isra.0+0xf0>
  6e:	ab02      	add	r3, sp, #8
  70:	986a      	ldr	r0, [sp, #424]	@ 0x1a8
  72:	9500      	str	r5, [sp, #0]
  74:	4632      	mov	r2, r6
  76:	1961      	adds	r1, r4, r5
  78:	f7ff fffe 	bl	0 <RsaUnPad_PSS.isra.0>
  7c:	4603      	mov	r3, r0
  7e:	2800      	cmp	r0, #0
  80:	d1e7      	bne.n	52 <RsaUnPad_PSS.isra.0+0x52>
  82:	2201      	movs	r2, #1
  84:	f89d 1008 	ldrb.w	r1, [sp, #8]
  88:	fa02 f20a 	lsl.w	r2, r2, sl
  8c:	3a01      	subs	r2, #1
  8e:	4011      	ands	r1, r2
  90:	f88d 1008 	strb.w	r1, [sp, #8]
  94:	7821      	ldrb	r1, [r4, #0]
  96:	f105 3cff 	add.w	ip, r5, #4294967295	@ 0xffffffff
  9a:	400a      	ands	r2, r1
  9c:	7022      	strb	r2, [r4, #0]
  9e:	46a6      	mov	lr, r4
  a0:	aa02      	add	r2, sp, #8
  a2:	ebac 0c08 	sub.w	ip, ip, r8
  a6:	4563      	cmp	r3, ip
  a8:	4611      	mov	r1, r2
  aa:	4670      	mov	r0, lr
  ac:	f812 ab01 	ldrb.w	sl, [r2], #1
  b0:	f81e 7b01 	ldrb.w	r7, [lr], #1
  b4:	db10      	blt.n	d8 <RsaUnPad_PSS.isra.0+0xd8>
  b6:	f087 0701 	eor.w	r7, r7, #1
  ba:	4557      	cmp	r7, sl
  bc:	d1c7      	bne.n	4e <RsaUnPad_PSS.isra.0+0x4e>
  be:	1aea      	subs	r2, r5, r3
  c0:	eba5 0508 	sub.w	r5, r5, r8
  c4:	442c      	add	r4, r5
  c6:	f7ff fffe 	bl	0 <RsaUnPad_PSS.isra.0>
  ca:	f8c9 4000 	str.w	r4, [r9]
  ce:	eb06 0308 	add.w	r3, r6, r8
  d2:	e7be      	b.n	52 <RsaUnPad_PSS.isra.0+0x52>
  d4:	46b0      	mov	r8, r6
  d6:	e7c3      	b.n	60 <RsaUnPad_PSS.isra.0+0x60>
  d8:	45ba      	cmp	sl, r7
  da:	d1b8      	bne.n	4e <RsaUnPad_PSS.isra.0+0x4e>
  dc:	3301      	adds	r3, #1
  de:	e7e2      	b.n	a6 <RsaUnPad_PSS.isra.0+0xa6>
  e0:	f06f 037c 	mvn.w	r3, #124	@ 0x7c
  e4:	e7b5      	b.n	52 <RsaUnPad_PSS.isra.0+0x52>
  e6:	4633      	mov	r3, r6
  e8:	e7b3      	b.n	52 <RsaUnPad_PSS.isra.0+0x52>
  ea:	f06f 03e9 	mvn.w	r3, #233	@ 0xe9
  ee:	e7b0      	b.n	52 <RsaUnPad_PSS.isra.0+0x52>
  f0:	f06f 03c0 	mvn.w	r3, #192	@ 0xc0
  f4:	e7ad      	b.n	52 <RsaUnPad_PSS.isra.0+0x52>

Disassembly of section .text.RsaUnPad_OAEP.isra.0:

00000000 <RsaUnPad_OAEP.isra.0>:
   0:	e92d 4ff0 	stmdb	sp!, {r4, r5, r6, r7, r8, r9, sl, fp, lr}
   4:	b0f1      	sub	sp, #452	@ 0x1c4
   6:	4607      	mov	r7, r0
   8:	9302      	str	r3, [sp, #8]
   a:	9b7b      	ldr	r3, [sp, #492]	@ 0x1ec
   c:	9204      	str	r2, [sp, #16]
   e:	4688      	mov	r8, r1
  10:	b91b      	cbnz	r3, 1a <RsaUnPad_OAEP.isra.0+0x1a>
  12:	9b7c      	ldr	r3, [sp, #496]	@ 0x1f0
  14:	2b00      	cmp	r3, #0
  16:	f040 8085 	bne.w	124 <RsaUnPad_OAEP.isra.0+0x124>
  1a:	9802      	ldr	r0, [sp, #8]
  1c:	f7ff fffe 	bl	0 <wc_HashGetDigestSize>
  20:	1e05      	subs	r5, r0, #0
  22:	f2c0 8082 	blt.w	12a <RsaUnPad_OAEP.isra.0+0x12a>
  26:	1c6e      	adds	r6, r5, #1
  28:	0073      	lsls	r3, r6, #1
  2a:	ebb8 0f46 	cmp.w	r8, r6, lsl #1
  2e:	46ab      	mov	fp, r5
  30:	9303      	str	r3, [sp, #12]
  32:	d37a      	bcc.n	12a <RsaUnPad_OAEP.isra.0+0x12a>
  34:	f108 39ff 	add.w	r9, r8, #4294967295	@ 0xffffffff
  38:	4642      	mov	r2, r8
  3a:	2100      	movs	r1, #0
  3c:	a80e      	add	r0, sp, #56	@ 0x38
  3e:	443e      	add	r6, r7
  40:	eba9 0a05 	sub.w	sl, r9, r5
  44:	f7ff fffe 	bl	0 <memset>
  48:	987a      	ldr	r0, [sp, #488]	@ 0x1e8
  4a:	9500      	str	r5, [sp, #0]
  4c:	ab0e      	add	r3, sp, #56	@ 0x38
  4e:	4652      	mov	r2, sl
  50:	4631      	mov	r1, r6
  52:	f7ff fffe 	bl	0 <RsaUnPad_OAEP.isra.0>
  56:	4604      	mov	r4, r0
  58:	b9c8      	cbnz	r0, 8e <RsaUnPad_OAEP.isra.0+0x8e>
  5a:	462a      	mov	r2, r5
  5c:	1c79      	adds	r1, r7, #1
  5e:	a80e      	add	r0, sp, #56	@ 0x38
  60:	f7ff fffe 	bl	0 <RsaUnPad_OAEP.isra.0>
  64:	ab0e      	add	r3, sp, #56	@ 0x38
  66:	442b      	add	r3, r5
  68:	987a      	ldr	r0, [sp, #488]	@ 0x1e8
  6a:	f8cd a000 	str.w	sl, [sp]
  6e:	462a      	mov	r2, r5
  70:	a90e      	add	r1, sp, #56	@ 0x38
  72:	9305      	str	r3, [sp, #20]
  74:	f7ff fffe 	bl	0 <RsaUnPad_OAEP.isra.0>
  78:	9b05      	ldr	r3, [sp, #20]
  7a:	4604      	mov	r4, r0
  7c:	b158      	cbz	r0, 96 <RsaUnPad_OAEP.isra.0+0x96>
  7e:	ab0e      	add	r3, sp, #56	@ 0x38
  80:	2200      	movs	r2, #0
  82:	e001      	b.n	88 <RsaUnPad_OAEP.isra.0+0x88>
  84:	f803 2b01 	strb.w	r2, [r3], #1
  88:	f1bb 0b01 	subs.w	fp, fp, #1
  8c:	d2fa      	bcs.n	84 <RsaUnPad_OAEP.isra.0+0x84>
  8e:	4620      	mov	r0, r4
  90:	b071      	add	sp, #452	@ 0x1c4
  92:	e8bd 8ff0 	ldmia.w	sp!, {r4, r5, r6, r7, r8, r9, sl, fp, pc}
  96:	4652      	mov	r2, sl
  98:	4619      	mov	r1, r3
  9a:	4630      	mov	r0, r6
  9c:	f7ff fffe 	bl	0 <RsaUnPad_OAEP.isra.0>
  a0:	4642      	mov	r2, r8
  a2:	ab0e      	add	r3, sp, #56	@ 0x38
  a4:	3a01      	subs	r2, #1
  a6:	d22b      	bcs.n	100 <RsaUnPad_OAEP.isra.0+0x100>
  a8:	9b03      	ldr	r3, [sp, #12]
  aa:	f103 3aff 	add.w	sl, r3, #4294967295	@ 0xffffffff
  ae:	4652      	mov	r2, sl
  b0:	2101      	movs	r1, #1
  b2:	454a      	cmp	r2, r9
  b4:	d327      	bcc.n	106 <RsaUnPad_OAEP.isra.0+0x106>
  b6:	e9dd 127b 	ldrd	r1, r2, [sp, #492]	@ 0x1ec
  ba:	9802      	ldr	r0, [sp, #8]
  bc:	9500      	str	r5, [sp, #0]
  be:	ab06      	add	r3, sp, #24
  c0:	f7ff fffe 	bl	0 <wc_Hash>
  c4:	4604      	mov	r4, r0
  c6:	2800      	cmp	r0, #0
  c8:	d1e1      	bne.n	8e <RsaUnPad_OAEP.isra.0+0x8e>
  ca:	ab06      	add	r3, sp, #24
  cc:	4435      	add	r5, r6
  ce:	42b5      	cmp	r5, r6
  d0:	d121      	bne.n	116 <RsaUnPad_OAEP.isra.0+0x116>
  d2:	f817 200a 	ldrb.w	r2, [r7, sl]
  d6:	783b      	ldrb	r3, [r7, #0]
  d8:	f082 0201 	eor.w	r2, r2, #1
  dc:	4422      	add	r2, r4
  de:	4413      	add	r3, r2
  e0:	3b01      	subs	r3, #1
  e2:	17db      	asrs	r3, r3, #31
  e4:	f10a 0a01 	add.w	sl, sl, #1
  e8:	ea28 0403 	bic.w	r4, r8, r3
  ec:	ea0a 0a03 	and.w	sl, sl, r3
  f0:	ea44 040a 	orr.w	r4, r4, sl
  f4:	9b04      	ldr	r3, [sp, #16]
  f6:	4427      	add	r7, r4
  f8:	601f      	str	r7, [r3, #0]
  fa:	eba8 0404 	sub.w	r4, r8, r4
  fe:	e7c6      	b.n	8e <RsaUnPad_OAEP.isra.0+0x8e>
 100:	f803 4b01 	strb.w	r4, [r3], #1
 104:	e7ce      	b.n	a4 <RsaUnPad_OAEP.isra.0+0xa4>
 106:	5cbb      	ldrb	r3, [r7, r2]
 108:	425b      	negs	r3, r3
 10a:	17db      	asrs	r3, r3, #31
 10c:	3301      	adds	r3, #1
 10e:	4019      	ands	r1, r3
 110:	448a      	add	sl, r1
 112:	3201      	adds	r2, #1
 114:	e7cd      	b.n	b2 <RsaUnPad_OAEP.isra.0+0xb2>
 116:	f816 2b01 	ldrb.w	r2, [r6], #1
 11a:	f813 1b01 	ldrb.w	r1, [r3], #1
 11e:	404a      	eors	r2, r1
 120:	4314      	orrs	r4, r2
 122:	e7d4      	b.n	ce <RsaUnPad_OAEP.isra.0+0xce>
 124:	f06f 0483 	mvn.w	r4, #131	@ 0x83
 128:	e7b1      	b.n	8e <RsaUnPad_OAEP.isra.0+0x8e>
 12a:	f06f 04ac 	mvn.w	r4, #172	@ 0xac
 12e:	e7ae      	b.n	8e <RsaUnPad_OAEP.isra.0+0x8e>

Disassembly of section .text.wc_InitRsaKey_ex:

00000000 <wc_InitRsaKey_ex>:
   0:	b538      	push	{r3, r4, r5, lr}
   2:	460d      	mov	r5, r1
   4:	4604      	mov	r4, r0
   6:	b318      	cbz	r0, 50 <wc_InitRsaKey_ex+0x50>
   8:	f44f 62c6 	mov.w	r2, #1584	@ 0x630
   c:	2100      	movs	r1, #0
   e:	f7ff fffe 	bl	0 <memset>
  12:	f04f 33ff 	mov.w	r3, #4294967295	@ 0xffffffff
  16:	f8c4 3620 	str.w	r3, [r4, #1568]	@ 0x620
  1a:	2300      	movs	r3, #0
  1c:	f8c4 5618 	str.w	r5, [r4, #1560]	@ 0x618
  20:	f8c4 3624 	str.w	r3, [r4, #1572]	@ 0x624
  24:	f8c4 361c 	str.w	r3, [r4, #1564]	@ 0x61c
  28:	f8c4 3628 	str.w	r3, [r4, #1576]	@ 0x628
  2c:	f8c4 362c 	str.w	r3, [r4, #1580]	@ 0x62c
  30:	4620      	mov	r0, r4
  32:	f7ff fffe 	bl	0 <sp_init>
  36:	4605      	mov	r5, r0
  38:	b940      	cbnz	r0, 4c <wc_InitRsaKey_ex+0x4c>
  3a:	f504 7043 	add.w	r0, r4, #780	@ 0x30c
  3e:	f7ff fffe 	bl	0 <sp_init>
  42:	4605      	mov	r5, r0
  44:	b110      	cbz	r0, 4c <wc_InitRsaKey_ex+0x4c>
  46:	4620      	mov	r0, r4
  48:	f7ff fffe 	bl	0 <sp_clear>
  4c:	4628      	mov	r0, r5
  4e:	bd38      	pop	{r3, r4, r5, pc}
  50:	f06f 05ac 	mvn.w	r5, #172	@ 0xac
  54:	e7fa      	b.n	4c <wc_InitRsaKey_ex+0x4c>

Disassembly of section .text.wc_InitRsaKey:

00000000 <wc_InitRsaKey>:
   0:	f06f 0201 	mvn.w	r2, #1
   4:	f7ff bffe 	b.w	0 <wc_InitRsaKey>

Disassembly of section .text.wc_FreeRsaKey:

00000000 <wc_FreeRsaKey>:
   0:	b510      	push	{r4, lr}
   2:	4604      	mov	r4, r0
   4:	b140      	cbz	r0, 18 <wc_FreeRsaKey+0x18>
   6:	f500 7043 	add.w	r0, r0, #780	@ 0x30c
   a:	f7ff fffe 	bl	0 <sp_clear>
   e:	4620      	mov	r0, r4
  10:	f7ff fffe 	bl	0 <sp_clear>
  14:	2000      	movs	r0, #0
  16:	bd10      	pop	{r4, pc}
  18:	f06f 00ac 	mvn.w	r0, #172	@ 0xac
  1c:	e7fb      	b.n	16 <wc_FreeRsaKey+0x16>

Disassembly of section .text.wc_RsaUnPad_ex:

00000000 <wc_RsaUnPad_ex>:
   0:	e92d 4ff0 	stmdb	sp!, {r4, r5, r6, r7, r8, r9, sl, fp, lr}
   4:	f8dd c024 	ldr.w	ip, [sp, #36]	@ 0x24
   8:	f8dd 903c 	ldr.w	r9, [sp, #60]	@ 0x3c
   c:	f1bc 0f01 	cmp.w	ip, #1
  10:	461f      	mov	r7, r3
  12:	e9dd ea0b 	ldrd	lr, sl, [sp, #44]	@ 0x2c
  16:	e9dd b80d 	ldrd	fp, r8, [sp, #52]	@ 0x34
  1a:	f89d 3028 	ldrb.w	r3, [sp, #40]	@ 0x28
  1e:	4605      	mov	r5, r0
  20:	460c      	mov	r4, r1
  22:	4616      	mov	r6, r2
  24:	d025      	beq.n	72 <wc_RsaUnPad_ex+0x72>
  26:	f1bc 0f02 	cmp.w	ip, #2
  2a:	d02a      	beq.n	82 <wc_RsaUnPad_ex+0x82>
  2c:	f1bc 0f00 	cmp.w	ip, #0
  30:	d132      	bne.n	98 <wc_RsaUnPad_ex+0x98>
  32:	b372      	cbz	r2, 92 <wc_RsaUnPad_ex+0x92>
  34:	1e8a      	subs	r2, r1, #2
  36:	f64f 73fd 	movw	r3, #65533	@ 0xfffd
  3a:	429a      	cmp	r2, r3
  3c:	d829      	bhi.n	92 <wc_RsaUnPad_ex+0x92>
  3e:	2f01      	cmp	r7, #1
  40:	d127      	bne.n	92 <wc_RsaUnPad_ex+0x92>
  42:	7803      	ldrb	r3, [r0, #0]
  44:	bb43      	cbnz	r3, 98 <wc_RsaUnPad_ex+0x98>
  46:	7843      	ldrb	r3, [r0, #1]
  48:	2b01      	cmp	r3, #1
  4a:	d125      	bne.n	98 <wc_RsaUnPad_ex+0x98>
  4c:	2302      	movs	r3, #2
  4e:	429c      	cmp	r4, r3
  50:	461a      	mov	r2, r3
  52:	d904      	bls.n	5e <wc_RsaUnPad_ex+0x5e>
  54:	5caa      	ldrb	r2, [r5, r2]
  56:	3301      	adds	r3, #1
  58:	2aff      	cmp	r2, #255	@ 0xff
  5a:	b29b      	uxth	r3, r3
  5c:	d0f7      	beq.n	4e <wc_RsaUnPad_ex+0x4e>
  5e:	2b0a      	cmp	r3, #10
  60:	d91a      	bls.n	98 <wc_RsaUnPad_ex+0x98>
  62:	441d      	add	r5, r3
  64:	f815 2c01 	ldrb.w	r2, [r5, #-1]
  68:	b9b2      	cbnz	r2, 98 <wc_RsaUnPad_ex+0x98>
  6a:	6035      	str	r5, [r6, #0]
  6c:	1ae0      	subs	r0, r4, r3
  6e:	e8bd 8ff0 	ldmia.w	sp!, {r4, r5, r6, r7, r8, r9, sl, fp, pc}
  72:	e9cd ab0a 	strd	sl, fp, [sp, #40]	@ 0x28
  76:	f8cd e024 	str.w	lr, [sp, #36]	@ 0x24
  7a:	e8bd 4ff0 	ldmia.w	sp!, {r4, r5, r6, r7, r8, r9, sl, fp, lr}
  7e:	f7ff bffe 	b.w	0 <wc_RsaUnPad_ex>
  82:	e9cd 890a 	strd	r8, r9, [sp, #40]	@ 0x28
  86:	f8cd e024 	str.w	lr, [sp, #36]	@ 0x24
  8a:	e8bd 4ff0 	ldmia.w	sp!, {r4, r5, r6, r7, r8, r9, sl, fp, lr}
  8e:	f7ff bffe 	b.w	0 <wc_RsaUnPad_ex>
  92:	f06f 00ac 	mvn.w	r0, #172	@ 0xac
  96:	e7ea      	b.n	6e <wc_RsaUnPad_ex+0x6e>
  98:	f06f 00c8 	mvn.w	r0, #200	@ 0xc8
  9c:	e7e7      	b.n	6e <wc_RsaUnPad_ex+0x6e>

Disassembly of section .text.wc_hash2mgf:

00000000 <wc_hash2mgf>:
   0:	2804      	cmp	r0, #4
   2:	d003      	beq.n	c <wc_hash2mgf+0xc>
   4:	1f83      	subs	r3, r0, #6
   6:	4258      	negs	r0, r3
   8:	4158      	adcs	r0, r3
   a:	4770      	bx	lr
   c:	201a      	movs	r0, #26
   e:	4770      	bx	lr

Disassembly of section .text.wc_RsaPSS_CheckPadding_ex2:

00000000 <wc_RsaPSS_CheckPadding_ex2>:
   0:	e92d 43f0 	stmdb	sp!, {r4, r5, r6, r7, r8, r9, lr}
   4:	b095      	sub	sp, #84	@ 0x54
   6:	460c      	mov	r4, r1
   8:	f89d 9070 	ldrb.w	r9, [sp, #112]	@ 0x70
   c:	9d1d      	ldr	r5, [sp, #116]	@ 0x74
   e:	4617      	mov	r7, r2
  10:	461e      	mov	r6, r3
  12:	4680      	mov	r8, r0
  14:	b920      	cbnz	r0, 20 <wc_RsaPSS_CheckPadding_ex2+0x20>
  16:	f06f 00ac 	mvn.w	r0, #172	@ 0xac
  1a:	b015      	add	sp, #84	@ 0x54
  1c:	e8bd 83f0 	ldmia.w	sp!, {r4, r5, r6, r7, r8, r9, pc}
  20:	2a00      	cmp	r2, #0
  22:	d0f8      	beq.n	16 <wc_RsaPSS_CheckPadding_ex2+0x16>
  24:	4648      	mov	r0, r9
  26:	f7ff fffe 	bl	0 <wc_HashGetDigestSize>
  2a:	42a0      	cmp	r0, r4
  2c:	d1f3      	bne.n	16 <wc_RsaPSS_CheckPadding_ex2+0x16>
  2e:	1c6a      	adds	r2, r5, #1
  30:	d006      	beq.n	40 <wc_RsaPSS_CheckPadding_ex2+0x40>
  32:	4285      	cmp	r5, r0
  34:	dc01      	bgt.n	3a <wc_RsaPSS_CheckPadding_ex2+0x3a>
  36:	1c6b      	adds	r3, r5, #1
  38:	da03      	bge.n	42 <wc_RsaPSS_CheckPadding_ex2+0x42>
  3a:	f06f 00f9 	mvn.w	r0, #249	@ 0xf9
  3e:	e7ec      	b.n	1a <wc_RsaPSS_CheckPadding_ex2+0x1a>
  40:	4625      	mov	r5, r4
  42:	1963      	adds	r3, r4, r5
  44:	d2f9      	bcs.n	3a <wc_RsaPSS_CheckPadding_ex2+0x3a>
  46:	42b3      	cmp	r3, r6
  48:	d1f7      	bne.n	3a <wc_RsaPSS_CheckPadding_ex2+0x3a>
  4a:	3608      	adds	r6, #8
  4c:	2e48      	cmp	r6, #72	@ 0x48
  4e:	d825      	bhi.n	9c <wc_RsaPSS_CheckPadding_ex2+0x9c>
  50:	2208      	movs	r2, #8
  52:	2100      	movs	r1, #0
  54:	eb0d 0002 	add.w	r0, sp, r2
  58:	f7ff fffe 	bl	0 <memset>
  5c:	4622      	mov	r2, r4
  5e:	4641      	mov	r1, r8
  60:	a804      	add	r0, sp, #16
  62:	f7ff fffe 	bl	0 <memcpy>
  66:	ab02      	add	r3, sp, #8
  68:	f104 0008 	add.w	r0, r4, #8
  6c:	462a      	mov	r2, r5
  6e:	4639      	mov	r1, r7
  70:	4418      	add	r0, r3
  72:	f7ff fffe 	bl	0 <memcpy>
  76:	ab02      	add	r3, sp, #8
  78:	9400      	str	r4, [sp, #0]
  7a:	4632      	mov	r2, r6
  7c:	4619      	mov	r1, r3
  7e:	4648      	mov	r0, r9
  80:	f7ff fffe 	bl	0 <wc_Hash>
  84:	2800      	cmp	r0, #0
  86:	d1c8      	bne.n	1a <wc_RsaPSS_CheckPadding_ex2+0x1a>
  88:	4622      	mov	r2, r4
  8a:	1979      	adds	r1, r7, r5
  8c:	a802      	add	r0, sp, #8
  8e:	f7ff fffe 	bl	0 <memcmp>
  92:	2800      	cmp	r0, #0
  94:	bf18      	it	ne
  96:	f06f 00c0 	mvnne.w	r0, #192	@ 0xc0
  9a:	e7be      	b.n	1a <wc_RsaPSS_CheckPadding_ex2+0x1a>
  9c:	f06f 0083 	mvn.w	r0, #131	@ 0x83
  a0:	e7bb      	b.n	1a <wc_RsaPSS_CheckPadding_ex2+0x1a>

Disassembly of section .text.wc_RsaPSS_CheckPadding_ex:

00000000 <wc_RsaPSS_CheckPadding_ex>:
   0:	b51f      	push	{r0, r1, r2, r3, r4, lr}
   2:	2400      	movs	r4, #0
   4:	9403      	str	r4, [sp, #12]
   6:	9c08      	ldr	r4, [sp, #32]
   8:	9402      	str	r4, [sp, #8]
   a:	9c07      	ldr	r4, [sp, #28]
   c:	9401      	str	r4, [sp, #4]
   e:	f89d 4018 	ldrb.w	r4, [sp, #24]
  12:	9400      	str	r4, [sp, #0]
  14:	f7ff fffe 	bl	0 <wc_RsaPSS_CheckPadding_ex>
  18:	b004      	add	sp, #16
  1a:	bd10      	pop	{r4, pc}

Disassembly of section .text.wc_RsaPSS_CheckPadding:

00000000 <wc_RsaPSS_CheckPadding>:
   0:	b51f      	push	{r0, r1, r2, r3, r4, lr}
   2:	f04f 0c00 	mov.w	ip, #0
   6:	f04f 34ff 	mov.w	r4, #4294967295	@ 0xffffffff
   a:	e9cd 4c01 	strd	r4, ip, [sp, #4]
   e:	f89d 4018 	ldrb.w	r4, [sp, #24]
  12:	9400      	str	r4, [sp, #0]
  14:	f7ff fffe 	bl	0 <wc_RsaPSS_CheckPadding>
  18:	b004      	add	sp, #16
  1a:	bd10      	pop	{r4, pc}

Disassembly of section .text.wc_RsaEncryptSize:

00000000 <wc_RsaEncryptSize>:
   0:	b108      	cbz	r0, 6 <wc_RsaEncryptSize+0x6>
   2:	f7ff bffe 	b.w	0 <sp_unsigned_bin_size>
   6:	f06f 00ac 	mvn.w	r0, #172	@ 0xac
   a:	4770      	bx	lr

Disassembly of section .text.wc_RsaFunction_ex.isra.0:

00000000 <wc_RsaFunction_ex.isra.0>:
   0:	e92d 4ff0 	stmdb	sp!, {r4, r5, r6, r7, r8, r9, sl, fp, lr}
   4:	b083      	sub	sp, #12
   6:	af00      	add	r7, sp, #0
   8:	4681      	mov	r9, r0
   a:	6b7c      	ldr	r4, [r7, #52]	@ 0x34
   c:	460e      	mov	r6, r1
   e:	4690      	mov	r8, r2
  10:	461d      	mov	r5, r3
  12:	2c00      	cmp	r4, #0
  14:	d07a      	beq.n	10c <wc_RsaFunction_ex.isra.0+0x10c>
  16:	2800      	cmp	r0, #0
  18:	d078      	beq.n	10c <wc_RsaFunction_ex.isra.0+0x10c>
  1a:	2900      	cmp	r1, #0
  1c:	d076      	beq.n	10c <wc_RsaFunction_ex.isra.0+0x10c>
  1e:	2a00      	cmp	r2, #0
  20:	d074      	beq.n	10c <wc_RsaFunction_ex.isra.0+0x10c>
  22:	2b00      	cmp	r3, #0
  24:	d072      	beq.n	10c <wc_RsaFunction_ex.isra.0+0x10c>
  26:	681b      	ldr	r3, [r3, #0]
  28:	2b00      	cmp	r3, #0
  2a:	d06f      	beq.n	10c <wc_RsaFunction_ex.isra.0+0x10c>
  2c:	6b3b      	ldr	r3, [r7, #48]	@ 0x30
  2e:	3301      	adds	r3, #1
  30:	d06c      	beq.n	10c <wc_RsaFunction_ex.isra.0+0x10c>
  32:	4620      	mov	r0, r4
  34:	f7ff fffe 	bl	0 <wc_RsaFunction_ex.isra.0>
  38:	1e03      	subs	r3, r0, #0
  3a:	db56      	blt.n	ea <wc_RsaFunction_ex.isra.0+0xea>
  3c:	429e      	cmp	r6, r3
  3e:	d85c      	bhi.n	fa <wc_RsaFunction_ex.isra.0+0xfa>
  40:	682a      	ldr	r2, [r5, #0]
  42:	4293      	cmp	r3, r2
  44:	d85c      	bhi.n	100 <wc_RsaFunction_ex.isra.0+0x100>
  46:	6822      	ldr	r2, [r4, #0]
  48:	b112      	cbz	r2, 50 <wc_RsaFunction_ex.isra.0+0x50>
  4a:	68a2      	ldr	r2, [r4, #8]
  4c:	07d2      	lsls	r2, r2, #31
  4e:	d55a      	bpl.n	106 <wc_RsaFunction_ex.isra.0+0x106>
  50:	602b      	str	r3, [r5, #0]
  52:	6822      	ldr	r2, [r4, #0]
  54:	f032 4278 	bics.w	r2, r2, #4160749568	@ 0xf8000000
  58:	bf1a      	itte	ne
  5a:	00d2      	lslne	r2, r2, #3
  5c:	320c      	addne	r2, #12
  5e:	220c      	moveq	r2, #12
  60:	1dd3      	adds	r3, r2, #7
  62:	f023 0307 	bic.w	r3, r3, #7
  66:	46ea      	mov	sl, sp
  68:	ebad 0d03 	sub.w	sp, sp, r3
  6c:	2100      	movs	r1, #0
  6e:	4668      	mov	r0, sp
  70:	f7ff fffe 	bl	0 <memset>
  74:	6821      	ldr	r1, [r4, #0]
  76:	f021 4178 	bic.w	r1, r1, #4160749568	@ 0xf8000000
  7a:	0049      	lsls	r1, r1, #1
  7c:	3101      	adds	r1, #1
  7e:	4668      	mov	r0, sp
  80:	46eb      	mov	fp, sp
  82:	f7ff fffe 	bl	0 <sp_init_size>
  86:	bb20      	cbnz	r0, d2 <wc_RsaFunction_ex.isra.0+0xd2>
  88:	4632      	mov	r2, r6
  8a:	4649      	mov	r1, r9
  8c:	4668      	mov	r0, sp
  8e:	f7ff fffe 	bl	0 <sp_read_unsigned_bin>
  92:	bb08      	cbnz	r0, d8 <wc_RsaFunction_ex.isra.0+0xd8>
  94:	6b3b      	ldr	r3, [r7, #48]	@ 0x30
  96:	2b01      	cmp	r3, #1
  98:	d821      	bhi.n	de <wc_RsaFunction_ex.isra.0+0xde>
  9a:	466b      	mov	r3, sp
  9c:	4622      	mov	r2, r4
  9e:	f504 7143 	add.w	r1, r4, #780	@ 0x30c
  a2:	4668      	mov	r0, sp
  a4:	f7ff fffe 	bl	0 <sp_exptmod_nct>
  a8:	b9e0      	cbnz	r0, e4 <wc_RsaFunction_ex.isra.0+0xe4>
  aa:	682a      	ldr	r2, [r5, #0]
  ac:	4641      	mov	r1, r8
  ae:	4668      	mov	r0, sp
  b0:	f7ff fffe 	bl	0 <sp_to_unsigned_bin_len_ct>
  b4:	1e03      	subs	r3, r0, #0
  b6:	bf18      	it	ne
  b8:	f06f 0370 	mvnne.w	r3, #112	@ 0x70
  bc:	4658      	mov	r0, fp
  be:	607b      	str	r3, [r7, #4]
  c0:	f7ff fffe 	bl	0 <sp_forcezero>
  c4:	687b      	ldr	r3, [r7, #4]
  c6:	46d5      	mov	sp, sl
  c8:	b193      	cbz	r3, f0 <wc_RsaFunction_ex.isra.0+0xf0>
  ca:	2200      	movs	r2, #0
  cc:	f8c4 2624 	str.w	r2, [r4, #1572]	@ 0x624
  d0:	e00e      	b.n	f0 <wc_RsaFunction_ex.isra.0+0xf0>
  d2:	f06f 036d 	mvn.w	r3, #109	@ 0x6d
  d6:	e7f1      	b.n	bc <wc_RsaFunction_ex.isra.0+0xbc>
  d8:	f06f 036e 	mvn.w	r3, #110	@ 0x6e
  dc:	e7ee      	b.n	bc <wc_RsaFunction_ex.isra.0+0xbc>
  de:	f06f 0381 	mvn.w	r3, #129	@ 0x81
  e2:	e7eb      	b.n	bc <wc_RsaFunction_ex.isra.0+0xbc>
  e4:	f06f 036f 	mvn.w	r3, #111	@ 0x6f
  e8:	e7e8      	b.n	bc <wc_RsaFunction_ex.isra.0+0xbc>
  ea:	f113 0f6c 	cmn.w	r3, #108	@ 0x6c
  ee:	d1ec      	bne.n	ca <wc_RsaFunction_ex.isra.0+0xca>
  f0:	4618      	mov	r0, r3
  f2:	370c      	adds	r7, #12
  f4:	46bd      	mov	sp, r7
  f6:	e8bd 8ff0 	ldmia.w	sp!, {r4, r5, r6, r7, r8, r9, sl, fp, pc}
  fa:	f06f 03ac 	mvn.w	r3, #172	@ 0xac
  fe:	e7e4      	b.n	ca <wc_RsaFunction_ex.isra.0+0xca>
 100:	f06f 0382 	mvn.w	r3, #130	@ 0x82
 104:	e7e1      	b.n	ca <wc_RsaFunction_ex.isra.0+0xca>
 106:	f06f 0302 	mvn.w	r3, #2
 10a:	e7de      	b.n	ca <wc_RsaFunction_ex.isra.0+0xca>
 10c:	f06f 03ac 	mvn.w	r3, #172	@ 0xac
 110:	e7ee      	b.n	f0 <wc_RsaFunction_ex.isra.0+0xf0>

Disassembly of section .text.RsaPrivateDecryptEx.constprop.0.isra.0:

00000000 <RsaPrivateDecryptEx.constprop.0.isra.0>:
   0:	e92d 41f0 	stmdb	sp!, {r4, r5, r6, r7, r8, lr}
   4:	b08a      	sub	sp, #40	@ 0x28
   6:	461f      	mov	r7, r3
   8:	2300      	movs	r3, #0
   a:	e9dd 8510 	ldrd	r8, r5, [sp, #64]	@ 0x40
   e:	4616      	mov	r6, r2
  10:	9309      	str	r3, [sp, #36]	@ 0x24
  12:	2800      	cmp	r0, #0
  14:	d06f      	beq.n	f6 <RsaPrivateDecryptEx.constprop.0.isra.0+0xf6>
  16:	2900      	cmp	r1, #0
  18:	d06d      	beq.n	f6 <RsaPrivateDecryptEx.constprop.0.isra.0+0xf6>
  1a:	2a00      	cmp	r2, #0
  1c:	d06b      	beq.n	f6 <RsaPrivateDecryptEx.constprop.0.isra.0+0xf6>
  1e:	2d00      	cmp	r5, #0
  20:	d069      	beq.n	f6 <RsaPrivateDecryptEx.constprop.0.isra.0+0xf6>
  22:	f8d5 3624 	ldr.w	r3, [r5, #1572]	@ 0x624
  26:	2b06      	cmp	r3, #6
  28:	d805      	bhi.n	36 <RsaPrivateDecryptEx.constprop.0.isra.0+0x36>
  2a:	e8df f003 	tbb	[pc, r3]
  2e:	040a      	.short	0x040a
  30:	1c0f0404 	.word	0x1c0f0404
  34:	61          	.byte	0x61
  35:	00          	.byte	0x00
  36:	f06f 04bf 	mvn.w	r4, #191	@ 0xbf
  3a:	2300      	movs	r3, #0
  3c:	f8c5 3624 	str.w	r3, [r5, #1572]	@ 0x624
  40:	e048      	b.n	d4 <RsaPrivateDecryptEx.constprop.0.isra.0+0xd4>
  42:	2304      	movs	r3, #4
  44:	f8c5 1628 	str.w	r1, [r5, #1576]	@ 0x628
  48:	f8c5 3624 	str.w	r3, [r5, #1572]	@ 0x624
  4c:	2301      	movs	r3, #1
  4e:	9300      	str	r3, [sp, #0]
  50:	9501      	str	r5, [sp, #4]
  52:	f505 63c5 	add.w	r3, r5, #1576	@ 0x628
  56:	4632      	mov	r2, r6
  58:	f7ff fffe 	bl	0 <RsaPrivateDecryptEx.constprop.0.isra.0>
  5c:	1e04      	subs	r4, r0, #0
  5e:	db31      	blt.n	c4 <RsaPrivateDecryptEx.constprop.0.isra.0+0xc4>
  60:	2305      	movs	r3, #5
  62:	f8c5 3624 	str.w	r3, [r5, #1572]	@ 0x624
  66:	4628      	mov	r0, r5
  68:	f8d5 4628 	ldr.w	r4, [r5, #1576]	@ 0x628
  6c:	f7ff fffe 	bl	0 <sp_count_bits>
  70:	f8d5 3618 	ldr.w	r3, [r5, #1560]	@ 0x618
  74:	e9cd 0306 	strd	r0, r3, [sp, #24]
  78:	9b15      	ldr	r3, [sp, #84]	@ 0x54
  7a:	9305      	str	r3, [sp, #20]
  7c:	2300      	movs	r3, #0
  7e:	e9cd 3303 	strd	r3, r3, [sp, #12]
  82:	9b14      	ldr	r3, [sp, #80]	@ 0x50
  84:	9302      	str	r3, [sp, #8]
  86:	f89d 304c 	ldrb.w	r3, [sp, #76]	@ 0x4c
  8a:	9301      	str	r3, [sp, #4]
  8c:	9b12      	ldr	r3, [sp, #72]	@ 0x48
  8e:	9300      	str	r3, [sp, #0]
  90:	4621      	mov	r1, r4
  92:	2301      	movs	r3, #1
  94:	aa09      	add	r2, sp, #36	@ 0x24
  96:	4630      	mov	r0, r6
  98:	f7ff fffe 	bl	0 <RsaPrivateDecryptEx.constprop.0.isra.0>
  9c:	42b8      	cmp	r0, r7
  9e:	4604      	mov	r4, r0
  a0:	dc0d      	bgt.n	be <RsaPrivateDecryptEx.constprop.0.isra.0+0xbe>
  a2:	2800      	cmp	r0, #0
  a4:	db1d      	blt.n	e2 <RsaPrivateDecryptEx.constprop.0.isra.0+0xe2>
  a6:	9909      	ldr	r1, [sp, #36]	@ 0x24
  a8:	2900      	cmp	r1, #0
  aa:	d0c6      	beq.n	3a <RsaPrivateDecryptEx.constprop.0.isra.0+0x3a>
  ac:	f1b8 0f00 	cmp.w	r8, #0
  b0:	d114      	bne.n	dc <RsaPrivateDecryptEx.constprop.0.isra.0+0xdc>
  b2:	4602      	mov	r2, r0
  b4:	4630      	mov	r0, r6
  b6:	f7ff fffe 	bl	0 <memcpy>
  ba:	42a7      	cmp	r7, r4
  bc:	d2bd      	bcs.n	3a <RsaPrivateDecryptEx.constprop.0.isra.0+0x3a>
  be:	f06f 0482 	mvn.w	r4, #130	@ 0x82
  c2:	e7ba      	b.n	3a <RsaPrivateDecryptEx.constprop.0.isra.0+0x3a>
  c4:	f114 0f6c 	cmn.w	r4, #108	@ 0x6c
  c8:	d1b7      	bne.n	3a <RsaPrivateDecryptEx.constprop.0.isra.0+0x3a>
  ca:	2305      	movs	r3, #5
  cc:	f8c5 3624 	str.w	r3, [r5, #1572]	@ 0x624
  d0:	f06f 046b 	mvn.w	r4, #107	@ 0x6b
  d4:	4620      	mov	r0, r4
  d6:	b00a      	add	sp, #40	@ 0x28
  d8:	e8bd 81f0 	ldmia.w	sp!, {r4, r5, r6, r7, r8, pc}
  dc:	f8c8 1000 	str.w	r1, [r8]
  e0:	e7eb      	b.n	ba <RsaPrivateDecryptEx.constprop.0.isra.0+0xba>
  e2:	2306      	movs	r3, #6
  e4:	f110 0f6c 	cmn.w	r0, #108	@ 0x6c
  e8:	f8c5 3624 	str.w	r3, [r5, #1572]	@ 0x624
  ec:	d1a5      	bne.n	3a <RsaPrivateDecryptEx.constprop.0.isra.0+0x3a>
  ee:	e7ef      	b.n	d0 <RsaPrivateDecryptEx.constprop.0.isra.0+0xd0>
  f0:	f06f 0481 	mvn.w	r4, #129	@ 0x81
  f4:	e7a1      	b.n	3a <RsaPrivateDecryptEx.constprop.0.isra.0+0x3a>
  f6:	f06f 04ac 	mvn.w	r4, #172	@ 0xac
  fa:	e7eb      	b.n	d4 <RsaPrivateDecryptEx.constprop.0.isra.0+0xd4>

Disassembly of section .text.wc_RsaSSL_VerifyInline:

00000000 <wc_RsaSSL_VerifyInline>:
   0:	b510      	push	{r4, lr}
   2:	2400      	movs	r4, #0
   4:	b086      	sub	sp, #24
   6:	e9cd 2300 	strd	r2, r3, [sp]
   a:	e9cd 4404 	strd	r4, r4, [sp, #16]
   e:	e9cd 4402 	strd	r4, r4, [sp, #8]
  12:	460b      	mov	r3, r1
  14:	4602      	mov	r2, r0
  16:	f7ff fffe 	bl	0 <wc_RsaSSL_VerifyInline>
  1a:	b006      	add	sp, #24
  1c:	bd10      	pop	{r4, pc}

Disassembly of section .text.wc_RsaPSS_VerifyInline_ex:

00000000 <wc_RsaPSS_VerifyInline_ex>:
   0:	b510      	push	{r4, lr}
   2:	b086      	sub	sp, #24
   4:	9c09      	ldr	r4, [sp, #36]	@ 0x24
   6:	9405      	str	r4, [sp, #20]
   8:	9c08      	ldr	r4, [sp, #32]
   a:	e9cd 3403 	strd	r3, r4, [sp, #12]
   e:	2302      	movs	r3, #2
  10:	9302      	str	r3, [sp, #8]
  12:	9b0a      	ldr	r3, [sp, #40]	@ 0x28
  14:	e9cd 2300 	strd	r2, r3, [sp]
  18:	460b      	mov	r3, r1
  1a:	4602      	mov	r2, r0
  1c:	f7ff fffe 	bl	0 <wc_RsaPSS_VerifyInline_ex>
  20:	b006      	add	sp, #24
  22:	bd10      	pop	{r4, pc}

Disassembly of section .text.wc_RsaPSS_VerifyInline:

00000000 <wc_RsaPSS_VerifyInline>:
   0:	b51f      	push	{r0, r1, r2, r3, r4, lr}
   2:	9c07      	ldr	r4, [sp, #28]
   4:	9402      	str	r4, [sp, #8]
   6:	f04f 34ff 	mov.w	r4, #4294967295	@ 0xffffffff
   a:	9401      	str	r4, [sp, #4]
   c:	9c06      	ldr	r4, [sp, #24]
   e:	9400      	str	r4, [sp, #0]
  10:	f7ff fffe 	bl	0 <wc_RsaPSS_VerifyInline>
  14:	b004      	add	sp, #16
  16:	bd10      	pop	{r4, pc}

Disassembly of section .text.wc_RsaPSS_VerifyCheckInline:

00000000 <wc_RsaPSS_VerifyCheckInline>:
   0:	e92d 43f0 	stmdb	sp!, {r4, r5, r6, r7, r8, r9, lr}
   4:	b085      	sub	sp, #20
   6:	4604      	mov	r4, r0
   8:	f89d 8034 	ldrb.w	r8, [sp, #52]	@ 0x34
   c:	9d0c      	ldr	r5, [sp, #48]	@ 0x30
   e:	4640      	mov	r0, r8
  10:	4616      	mov	r6, r2
  12:	4689      	mov	r9, r1
  14:	461f      	mov	r7, r3
  16:	f7ff fffe 	bl	0 <wc_HashGetDigestSize>
  1a:	1e02      	subs	r2, r0, #0
  1c:	db20      	blt.n	60 <wc_RsaPSS_VerifyCheckInline+0x60>
  1e:	4295      	cmp	r5, r2
  20:	d11e      	bne.n	60 <wc_RsaPSS_VerifyCheckInline+0x60>
  22:	9b0f      	ldr	r3, [sp, #60]	@ 0x3c
  24:	e9cd 5301 	strd	r5, r3, [sp, #4]
  28:	9b0e      	ldr	r3, [sp, #56]	@ 0x38
  2a:	9300      	str	r3, [sp, #0]
  2c:	4620      	mov	r0, r4
  2e:	4643      	mov	r3, r8
  30:	4632      	mov	r2, r6
  32:	4649      	mov	r1, r9
  34:	f7ff fffe 	bl	0 <wc_RsaPSS_VerifyCheckInline>
  38:	1e04      	subs	r4, r0, #0
  3a:	dc03      	bgt.n	44 <wc_RsaPSS_VerifyCheckInline+0x44>
  3c:	4620      	mov	r0, r4
  3e:	b005      	add	sp, #20
  40:	e8bd 83f0 	ldmia.w	sp!, {r4, r5, r6, r7, r8, r9, pc}
  44:	2300      	movs	r3, #0
  46:	e9cd 5301 	strd	r5, r3, [sp, #4]
  4a:	f8cd 8000 	str.w	r8, [sp]
  4e:	6832      	ldr	r2, [r6, #0]
  50:	4623      	mov	r3, r4
  52:	4629      	mov	r1, r5
  54:	4638      	mov	r0, r7
  56:	f7ff fffe 	bl	0 <wc_RsaPSS_VerifyCheckInline>
  5a:	2800      	cmp	r0, #0
  5c:	d0ee      	beq.n	3c <wc_RsaPSS_VerifyCheckInline+0x3c>
  5e:	e7ee      	b.n	3e <wc_RsaPSS_VerifyCheckInline+0x3e>
  60:	f06f 00ac 	mvn.w	r0, #172	@ 0xac
  64:	e7eb      	b.n	3e <wc_RsaPSS_VerifyCheckInline+0x3e>

Disassembly of section .text.wc_RsaPSS_Verify_ex:

00000000 <wc_RsaPSS_Verify_ex>:
   0:	b510      	push	{r4, lr}
   2:	b086      	sub	sp, #24
   4:	9c0a      	ldr	r4, [sp, #40]	@ 0x28
   6:	9405      	str	r4, [sp, #20]
   8:	9c09      	ldr	r4, [sp, #36]	@ 0x24
   a:	9404      	str	r4, [sp, #16]
   c:	f89d 4020 	ldrb.w	r4, [sp, #32]
  10:	9403      	str	r4, [sp, #12]
  12:	2402      	movs	r4, #2
  14:	9402      	str	r4, [sp, #8]
  16:	9c0b      	ldr	r4, [sp, #44]	@ 0x2c
  18:	9401      	str	r4, [sp, #4]
  1a:	2400      	movs	r4, #0
  1c:	9400      	str	r4, [sp, #0]
  1e:	f7ff fffe 	bl	0 <wc_RsaPSS_Verify_ex>
  22:	b006      	add	sp, #24
  24:	bd10      	pop	{r4, pc}

Disassembly of section .text.wc_RsaPSS_Verify:

00000000 <wc_RsaPSS_Verify>:
   0:	b51f      	push	{r0, r1, r2, r3, r4, lr}
   2:	9c08      	ldr	r4, [sp, #32]
   4:	9403      	str	r4, [sp, #12]
   6:	f04f 34ff 	mov.w	r4, #4294967295	@ 0xffffffff
   a:	9402      	str	r4, [sp, #8]
   c:	9c07      	ldr	r4, [sp, #28]
   e:	9401      	str	r4, [sp, #4]
  10:	f89d 4018 	ldrb.w	r4, [sp, #24]
  14:	9400      	str	r4, [sp, #0]
  16:	f7ff fffe 	bl	0 <wc_RsaPSS_Verify>
  1a:	b004      	add	sp, #16
  1c:	bd10      	pop	{r4, pc}

Disassembly of section .text.wc_RsaPSS_VerifyCheck:

00000000 <wc_RsaPSS_VerifyCheck>:
   0:	e92d 43f0 	stmdb	sp!, {r4, r5, r6, r7, r8, r9, lr}
   4:	b085      	sub	sp, #20
   6:	4605      	mov	r5, r0
   8:	f89d 7038 	ldrb.w	r7, [sp, #56]	@ 0x38
   c:	4638      	mov	r0, r7
   e:	4688      	mov	r8, r1
  10:	4616      	mov	r6, r2
  12:	4699      	mov	r9, r3
  14:	f7ff fffe 	bl	0 <wc_HashGetDigestSize>
  18:	1e04      	subs	r4, r0, #0
  1a:	db1d      	blt.n	58 <wc_RsaPSS_VerifyCheck+0x58>
  1c:	9b0d      	ldr	r3, [sp, #52]	@ 0x34
  1e:	42a3      	cmp	r3, r4
  20:	d11e      	bne.n	60 <wc_RsaPSS_VerifyCheck+0x60>
  22:	9b10      	ldr	r3, [sp, #64]	@ 0x40
  24:	e9cd 4302 	strd	r4, r3, [sp, #8]
  28:	9b0f      	ldr	r3, [sp, #60]	@ 0x3c
  2a:	4628      	mov	r0, r5
  2c:	e9cd 7300 	strd	r7, r3, [sp]
  30:	4632      	mov	r2, r6
  32:	464b      	mov	r3, r9
  34:	4641      	mov	r1, r8
  36:	f7ff fffe 	bl	0 <wc_RsaPSS_VerifyCheck>
  3a:	1e05      	subs	r5, r0, #0
  3c:	dd0b      	ble.n	56 <wc_RsaPSS_VerifyCheck+0x56>
  3e:	2300      	movs	r3, #0
  40:	e9cd 4301 	strd	r4, r3, [sp, #4]
  44:	4621      	mov	r1, r4
  46:	980c      	ldr	r0, [sp, #48]	@ 0x30
  48:	9700      	str	r7, [sp, #0]
  4a:	462b      	mov	r3, r5
  4c:	4632      	mov	r2, r6
  4e:	f7ff fffe 	bl	0 <wc_RsaPSS_VerifyCheck>
  52:	4604      	mov	r4, r0
  54:	b900      	cbnz	r0, 58 <wc_RsaPSS_VerifyCheck+0x58>
  56:	462c      	mov	r4, r5
  58:	4620      	mov	r0, r4
  5a:	b005      	add	sp, #20
  5c:	e8bd 83f0 	ldmia.w	sp!, {r4, r5, r6, r7, r8, r9, pc}
  60:	f06f 04ac 	mvn.w	r4, #172	@ 0xac
  64:	e7f8      	b.n	58 <wc_RsaPSS_VerifyCheck+0x58>

Disassembly of section .text.wc_RsaFunction:

00000000 <wc_RsaFunction>:
   0:	f7ff bffe 	b.w	0 <wc_RsaFunction>

Disassembly of section .text.wc_RsaSetRNG:

00000000 <wc_RsaSetRNG>:
   0:	b120      	cbz	r0, c <wc_RsaSetRNG+0xc>
   2:	b119      	cbz	r1, c <wc_RsaSetRNG+0xc>
   4:	f8c0 162c 	str.w	r1, [r0, #1580]	@ 0x62c
   8:	2000      	movs	r0, #0
   a:	4770      	bx	lr
   c:	f06f 00ac 	mvn.w	r0, #172	@ 0xac
  10:	4770      	bx	lr

sha.o:     file format elf32-littlearm


Disassembly of section .text.ByteReverseWords:

00000000 <ByteReverseWords>:
   0:	b510      	push	{r4, lr}
   2:	0892      	lsrs	r2, r2, #2
   4:	2300      	movs	r3, #0
   6:	f851 4023 	ldr.w	r4, [r1, r3, lsl #2]
   a:	ba24      	rev	r4, r4
   c:	f840 4023 	str.w	r4, [r0, r3, lsl #2]
  10:	3301      	adds	r3, #1
  12:	429a      	cmp	r2, r3
  14:	d1f7      	bne.n	6 <ByteReverseWords+0x6>
  16:	bd10      	pop	{r4, pc}

Disassembly of section .text.Transform:

00000000 <Transform>:
   0:	e92d 4ff0 	stmdb	sp!, {r4, r5, r6, r7, r8, r9, sl, fp, lr}
   4:	b09b      	sub	sp, #108	@ 0x6c
   6:	6cc3      	ldr	r3, [r0, #76]	@ 0x4c
   8:	930f      	str	r3, [sp, #60]	@ 0x3c
   a:	6d03      	ldr	r3, [r0, #80]	@ 0x50
   c:	9303      	str	r3, [sp, #12]
   e:	6d43      	ldr	r3, [r0, #84]	@ 0x54
  10:	9306      	str	r3, [sp, #24]
  12:	6d83      	ldr	r3, [r0, #88]	@ 0x58
  14:	9310      	str	r3, [sp, #64]	@ 0x40
  16:	6dc3      	ldr	r3, [r0, #92]	@ 0x5c
  18:	9312      	str	r3, [sp, #72]	@ 0x48
  1a:	680b      	ldr	r3, [r1, #0]
  1c:	9307      	str	r3, [sp, #28]
  1e:	9a07      	ldr	r2, [sp, #28]
  20:	4bd4      	ldr	r3, [pc, #848]	@ (374 <Transform+0x374>)
  22:	9c10      	ldr	r4, [sp, #64]	@ 0x40
  24:	9d10      	ldr	r5, [sp, #64]	@ 0x40
  26:	f8d1 e008 	ldr.w	lr, [r1, #8]
  2a:	e9cd 1001 	strd	r1, r0, [sp, #4]
  2e:	18d0      	adds	r0, r2, r3
  30:	9a12      	ldr	r2, [sp, #72]	@ 0x48
  32:	4410      	add	r0, r2
  34:	9a0f      	ldr	r2, [sp, #60]	@ 0x3c
  36:	eb00 60f2 	add.w	r0, r0, r2, ror #27
  3a:	9a06      	ldr	r2, [sp, #24]
  3c:	4062      	eors	r2, r4
  3e:	9c03      	ldr	r4, [sp, #12]
  40:	4022      	ands	r2, r4
  42:	9c10      	ldr	r4, [sp, #64]	@ 0x40
  44:	4062      	eors	r2, r4
  46:	4402      	add	r2, r0
  48:	6848      	ldr	r0, [r1, #4]
  4a:	9c03      	ldr	r4, [sp, #12]
  4c:	9008      	str	r0, [sp, #32]
  4e:	9806      	ldr	r0, [sp, #24]
  50:	ea80 00b4 	eor.w	r0, r0, r4, ror #2
  54:	9c0f      	ldr	r4, [sp, #60]	@ 0x3c
  56:	4020      	ands	r0, r4
  58:	9c06      	ldr	r4, [sp, #24]
  5a:	4060      	eors	r0, r4
  5c:	9c08      	ldr	r4, [sp, #32]
  5e:	441c      	add	r4, r3
  60:	442c      	add	r4, r5
  62:	4420      	add	r0, r4
  64:	9c0f      	ldr	r4, [sp, #60]	@ 0x3c
  66:	9d03      	ldr	r5, [sp, #12]
  68:	9e03      	ldr	r6, [sp, #12]
  6a:	f8d1 800c 	ldr.w	r8, [r1, #12]
  6e:	9f06      	ldr	r7, [sp, #24]
  70:	9903      	ldr	r1, [sp, #12]
  72:	ea4f 04b4 	mov.w	r4, r4, ror #2
  76:	ea84 05b5 	eor.w	r5, r4, r5, ror #2
  7a:	4015      	ands	r5, r2
  7c:	ea85 05b6 	eor.w	r5, r5, r6, ror #2
  80:	eb0e 0603 	add.w	r6, lr, r3
  84:	443e      	add	r6, r7
  86:	eb08 0703 	add.w	r7, r8, r3
  8a:	eb00 60f2 	add.w	r0, r0, r2, ror #27
  8e:	eb07 07b1 	add.w	r7, r7, r1, ror #2
  92:	4435      	add	r5, r6
  94:	9901      	ldr	r1, [sp, #4]
  96:	ea84 06b2 	eor.w	r6, r4, r2, ror #2
  9a:	4006      	ands	r6, r0
  9c:	eb05 65f0 	add.w	r5, r5, r0, ror #27
  a0:	f8d1 9010 	ldr.w	r9, [r1, #16]
  a4:	f8d1 a014 	ldr.w	sl, [r1, #20]
  a8:	f8d1 b018 	ldr.w	fp, [r1, #24]
  ac:	69c9      	ldr	r1, [r1, #28]
  ae:	9111      	str	r1, [sp, #68]	@ 0x44
  b0:	ea4f 00b0 	mov.w	r0, r0, ror #2
  b4:	4066      	eors	r6, r4
  b6:	443e      	add	r6, r7
  b8:	ea80 07b2 	eor.w	r7, r0, r2, ror #2
  bc:	eb09 0c03 	add.w	ip, r9, r3
  c0:	402f      	ands	r7, r5
  c2:	44a4      	add	ip, r4
  c4:	ea87 07b2 	eor.w	r7, r7, r2, ror #2
  c8:	eb06 66f5 	add.w	r6, r6, r5, ror #27
  cc:	ea80 04b5 	eor.w	r4, r0, r5, ror #2
  d0:	4467      	add	r7, ip
  d2:	eb07 67f6 	add.w	r7, r7, r6, ror #27
  d6:	eb0a 0c03 	add.w	ip, sl, r3
  da:	4034      	ands	r4, r6
  dc:	ea4f 06b6 	mov.w	r6, r6, ror #2
  e0:	eb0c 0cb2 	add.w	ip, ip, r2, ror #2
  e4:	4044      	eors	r4, r0
  e6:	ea86 02b5 	eor.w	r2, r6, r5, ror #2
  ea:	4464      	add	r4, ip
  ec:	403a      	ands	r2, r7
  ee:	eb0b 0c03 	add.w	ip, fp, r3
  f2:	4484      	add	ip, r0
  f4:	ea82 02b5 	eor.w	r2, r2, r5, ror #2
  f8:	4462      	add	r2, ip
  fa:	eb01 0c03 	add.w	ip, r1, r3
  fe:	9901      	ldr	r1, [sp, #4]
 100:	eb04 64f7 	add.w	r4, r4, r7, ror #27
 104:	ea86 00b7 	eor.w	r0, r6, r7, ror #2
 108:	6a09      	ldr	r1, [r1, #32]
 10a:	910a      	str	r1, [sp, #40]	@ 0x28
 10c:	4020      	ands	r0, r4
 10e:	eb0c 0cb5 	add.w	ip, ip, r5, ror #2
 112:	4070      	eors	r0, r6
 114:	eb02 62f4 	add.w	r2, r2, r4, ror #27
 118:	4460      	add	r0, ip
 11a:	ea4f 04b4 	mov.w	r4, r4, ror #2
 11e:	eb01 0c03 	add.w	ip, r1, r3
 122:	9901      	ldr	r1, [sp, #4]
 124:	ea84 05b7 	eor.w	r5, r4, r7, ror #2
 128:	6a49      	ldr	r1, [r1, #36]	@ 0x24
 12a:	910b      	str	r1, [sp, #44]	@ 0x2c
 12c:	4015      	ands	r5, r2
 12e:	44b4      	add	ip, r6
 130:	ea85 05b7 	eor.w	r5, r5, r7, ror #2
 134:	4465      	add	r5, ip
 136:	eb01 0c03 	add.w	ip, r1, r3
 13a:	9901      	ldr	r1, [sp, #4]
 13c:	eb00 60f2 	add.w	r0, r0, r2, ror #27
 140:	ea84 06b2 	eor.w	r6, r4, r2, ror #2
 144:	6a89      	ldr	r1, [r1, #40]	@ 0x28
 146:	910c      	str	r1, [sp, #48]	@ 0x30
 148:	4006      	ands	r6, r0
 14a:	eb0c 0cb7 	add.w	ip, ip, r7, ror #2
 14e:	4066      	eors	r6, r4
 150:	eb05 65f0 	add.w	r5, r5, r0, ror #27
 154:	4466      	add	r6, ip
 156:	ea4f 00b0 	mov.w	r0, r0, ror #2
 15a:	eb01 0c03 	add.w	ip, r1, r3
 15e:	9901      	ldr	r1, [sp, #4]
 160:	ea80 07b2 	eor.w	r7, r0, r2, ror #2
 164:	6ac9      	ldr	r1, [r1, #44]	@ 0x2c
 166:	910d      	str	r1, [sp, #52]	@ 0x34
 168:	402f      	ands	r7, r5
 16a:	44a4      	add	ip, r4
 16c:	ea87 07b2 	eor.w	r7, r7, r2, ror #2
 170:	4467      	add	r7, ip
 172:	eb01 0c03 	add.w	ip, r1, r3
 176:	eb0c 0cb2 	add.w	ip, ip, r2, ror #2
 17a:	9a01      	ldr	r2, [sp, #4]
 17c:	6b12      	ldr	r2, [r2, #48]	@ 0x30
 17e:	920e      	str	r2, [sp, #56]	@ 0x38
 180:	eb06 66f5 	add.w	r6, r6, r5, ror #27
 184:	ea80 04b5 	eor.w	r4, r0, r5, ror #2
 188:	990e      	ldr	r1, [sp, #56]	@ 0x38
 18a:	4034      	ands	r4, r6
 18c:	4044      	eors	r4, r0
 18e:	eb07 67f6 	add.w	r7, r7, r6, ror #27
 192:	4464      	add	r4, ip
 194:	ea4f 06b6 	mov.w	r6, r6, ror #2
 198:	eb01 0c03 	add.w	ip, r1, r3
 19c:	9901      	ldr	r1, [sp, #4]
 19e:	ea86 02b5 	eor.w	r2, r6, r5, ror #2
 1a2:	6b49      	ldr	r1, [r1, #52]	@ 0x34
 1a4:	9104      	str	r1, [sp, #16]
 1a6:	403a      	ands	r2, r7
 1a8:	4484      	add	ip, r0
 1aa:	ea82 02b5 	eor.w	r2, r2, r5, ror #2
 1ae:	4462      	add	r2, ip
 1b0:	eb01 0c03 	add.w	ip, r1, r3
 1b4:	9901      	ldr	r1, [sp, #4]
 1b6:	eb04 64f7 	add.w	r4, r4, r7, ror #27
 1ba:	ea86 00b7 	eor.w	r0, r6, r7, ror #2
 1be:	6b89      	ldr	r1, [r1, #56]	@ 0x38
 1c0:	9105      	str	r1, [sp, #20]
 1c2:	4020      	ands	r0, r4
 1c4:	eb0c 0cb5 	add.w	ip, ip, r5, ror #2
 1c8:	4070      	eors	r0, r6
 1ca:	4460      	add	r0, ip
 1cc:	eb01 0c03 	add.w	ip, r1, r3
 1d0:	9901      	ldr	r1, [sp, #4]
 1d2:	6bc9      	ldr	r1, [r1, #60]	@ 0x3c
 1d4:	9101      	str	r1, [sp, #4]
 1d6:	eb02 62f4 	add.w	r2, r2, r4, ror #27
 1da:	44b4      	add	ip, r6
 1dc:	ea4f 04b4 	mov.w	r4, r4, ror #2
 1e0:	9e01      	ldr	r6, [sp, #4]
 1e2:	eb00 60f2 	add.w	r0, r0, r2, ror #27
 1e6:	ea84 01b2 	eor.w	r1, r4, r2, ror #2
 1ea:	4001      	ands	r1, r0
 1ec:	441e      	add	r6, r3
 1ee:	ea84 05b7 	eor.w	r5, r4, r7, ror #2
 1f2:	eb06 06b7 	add.w	r6, r6, r7, ror #2
 1f6:	4061      	eors	r1, r4
 1f8:	4015      	ands	r5, r2
 1fa:	4431      	add	r1, r6
 1fc:	9e07      	ldr	r6, [sp, #28]
 1fe:	ea85 05b7 	eor.w	r5, r5, r7, ror #2
 202:	9f0a      	ldr	r7, [sp, #40]	@ 0x28
 204:	ea86 060e 	eor.w	r6, r6, lr
 208:	407e      	eors	r6, r7
 20a:	9f04      	ldr	r7, [sp, #16]
 20c:	407e      	eors	r6, r7
 20e:	9607      	str	r6, [sp, #28]
 210:	4465      	add	r5, ip
 212:	eb05 65f0 	add.w	r5, r5, r0, ror #27
 216:	9f07      	ldr	r7, [sp, #28]
 218:	ea4f 00b0 	mov.w	r0, r0, ror #2
 21c:	ea80 06b2 	eor.w	r6, r0, r2, ror #2
 220:	402e      	ands	r6, r5
 222:	eb03 77f7 	add.w	r7, r3, r7, ror #31
 226:	4427      	add	r7, r4
 228:	ea86 06b2 	eor.w	r6, r6, r2, ror #2
 22c:	9c08      	ldr	r4, [sp, #32]
 22e:	443e      	add	r6, r7
 230:	9f0b      	ldr	r7, [sp, #44]	@ 0x2c
 232:	ea84 0408 	eor.w	r4, r4, r8
 236:	407c      	eors	r4, r7
 238:	9f05      	ldr	r7, [sp, #20]
 23a:	407c      	eors	r4, r7
 23c:	9408      	str	r4, [sp, #32]
 23e:	9f08      	ldr	r7, [sp, #32]
 240:	eb01 61f5 	add.w	r1, r1, r5, ror #27
 244:	ea80 04b5 	eor.w	r4, r0, r5, ror #2
 248:	400c      	ands	r4, r1
 24a:	eb03 77f7 	add.w	r7, r3, r7, ror #31
 24e:	eb07 07b2 	add.w	r7, r7, r2, ror #2
 252:	4044      	eors	r4, r0
 254:	9a0c      	ldr	r2, [sp, #48]	@ 0x30
 256:	443c      	add	r4, r7
 258:	ea8e 0709 	eor.w	r7, lr, r9
 25c:	4057      	eors	r7, r2
 25e:	9a01      	ldr	r2, [sp, #4]
 260:	4057      	eors	r7, r2
 262:	eb06 66f1 	add.w	r6, r6, r1, ror #27
 266:	ea4f 72f7 	mov.w	r2, r7, ror #31
 26a:	ea4f 01b1 	mov.w	r1, r1, ror #2
 26e:	9213      	str	r2, [sp, #76]	@ 0x4c
 270:	ea81 02b5 	eor.w	r2, r1, r5, ror #2
 274:	eb03 7cf7 	add.w	ip, r3, r7, ror #31
 278:	4032      	ands	r2, r6
 27a:	4484      	add	ip, r0
 27c:	ea82 02b5 	eor.w	r2, r2, r5, ror #2
 280:	980d      	ldr	r0, [sp, #52]	@ 0x34
 282:	4462      	add	r2, ip
 284:	ea88 0c0a 	eor.w	ip, r8, sl
 288:	ea8c 0c00 	eor.w	ip, ip, r0
