In archive Build/libwolfssl.a:

bio.o:     file format elf32-littlearm


crl.o:     file format elf32-littlearm


internal.o:     file format elf32-littlearm


keys.o:     file format elf32-littlearm


ocsp.o:     file format elf32-littlearm


sniffer.o:     file format elf32-littlearm


ssl.o:     file format elf32-littlearm


tls.o:     file format elf32-littlearm


tls13.o:     file format elf32-littlearm


wolfio.o:     file format elf32-littlearm


aes.o:     file format elf32-littlearm


Disassembly of section .text.ByteReverseWord32:

00000000 <ByteReverseWord32>:
   0:	ba00      	rev	r0, r0
   2:	4770      	bx	lr

Disassembly of section .text.ByteReverseWords:

00000000 <ByteReverseWords>:
   0:	b510      	push	{r4, lr}
   2:	0892      	lsrs	r2, r2, #2
   4:	4604      	mov	r4, r0
   6:	2300      	movs	r3, #0
   8:	4293      	cmp	r3, r2
   a:	d100      	bne.n	e <ByteReverseWords+0xe>
   c:	bd10      	pop	{r4, pc}
   e:	f851 0023 	ldr.w	r0, [r1, r3, lsl #2]
  12:	f7ff fffe 	bl	0 <ByteReverseWords>
  16:	f844 0023 	str.w	r0, [r4, r3, lsl #2]
  1a:	3301      	adds	r3, #1
  1c:	e7f4      	b.n	8 <ByteReverseWords+0x8>

Disassembly of section .text.xorbufout:

00000000 <xorbufout>:
   0:	b5f0      	push	{r4, r5, r6, r7, lr}
   2:	ea80 0401 	eor.w	r4, r0, r1
   6:	ea82 0501 	eor.w	r5, r2, r1
   a:	432c      	orrs	r4, r5
   c:	f014 0403 	ands.w	r4, r4, #3
  10:	d10d      	bne.n	2e <xorbufout+0x2e>
  12:	078d      	lsls	r5, r1, #30
  14:	d000      	beq.n	18 <xorbufout+0x18>
  16:	b973      	cbnz	r3, 36 <xorbufout+0x36>
  18:	089d      	lsrs	r5, r3, #2
  1a:	42a5      	cmp	r5, r4
  1c:	d114      	bne.n	48 <xorbufout+0x48>
  1e:	eb00 0085 	add.w	r0, r0, r5, lsl #2
  22:	eb02 0285 	add.w	r2, r2, r5, lsl #2
  26:	eb01 0185 	add.w	r1, r1, r5, lsl #2
  2a:	f003 0303 	and.w	r3, r3, #3
  2e:	2400      	movs	r4, #0
  30:	42a3      	cmp	r3, r4
  32:	d112      	bne.n	5a <xorbufout+0x5a>
  34:	bdf0      	pop	{r4, r5, r6, r7, pc}
  36:	f811 5b01 	ldrb.w	r5, [r1], #1
  3a:	f812 6b01 	ldrb.w	r6, [r2], #1
  3e:	4075      	eors	r5, r6
  40:	f800 5b01 	strb.w	r5, [r0], #1
  44:	3b01      	subs	r3, #1
  46:	e7e4      	b.n	12 <xorbufout+0x12>
  48:	f851 6024 	ldr.w	r6, [r1, r4, lsl #2]
  4c:	f852 7024 	ldr.w	r7, [r2, r4, lsl #2]
  50:	407e      	eors	r6, r7
  52:	f840 6024 	str.w	r6, [r0, r4, lsl #2]
  56:	3401      	adds	r4, #1
  58:	e7df      	b.n	1a <xorbufout+0x1a>
  5a:	5d0d      	ldrb	r5, [r1, r4]
  5c:	5d16      	ldrb	r6, [r2, r4]
  5e:	4075      	eors	r5, r6
  60:	5505      	strb	r5, [r0, r4]
  62:	3401      	adds	r4, #1
  64:	e7e4      	b.n	30 <xorbufout+0x30>

Disassembly of section .text.xorbuf:

00000000 <xorbuf>:
   0:	ea81 0300 	eor.w	r3, r1, r0
   4:	079b      	lsls	r3, r3, #30
   6:	b5f0      	push	{r4, r5, r6, r7, lr}
   8:	d10c      	bne.n	24 <xorbuf+0x24>
   a:	f000 0403 	and.w	r4, r0, #3
   e:	b104      	cbz	r4, 12 <xorbuf+0x12>
  10:	b96a      	cbnz	r2, 2e <xorbuf+0x2e>
  12:	f022 0503 	bic.w	r5, r2, #3
  16:	194e      	adds	r6, r1, r5
  18:	4603      	mov	r3, r0
  1a:	42b1      	cmp	r1, r6
  1c:	d110      	bne.n	40 <xorbuf+0x40>
  1e:	4428      	add	r0, r5
  20:	f002 0203 	and.w	r2, r2, #3
  24:	3901      	subs	r1, #1
  26:	4402      	add	r2, r0
  28:	4290      	cmp	r0, r2
  2a:	d111      	bne.n	50 <xorbuf+0x50>
  2c:	bdf0      	pop	{r4, r5, r6, r7, pc}
  2e:	f810 3b01 	ldrb.w	r3, [r0], #1
  32:	f811 5b01 	ldrb.w	r5, [r1], #1
  36:	406b      	eors	r3, r5
  38:	f800 3c01 	strb.w	r3, [r0, #-1]
  3c:	3a01      	subs	r2, #1
  3e:	e7e6      	b.n	e <xorbuf+0xe>
  40:	f853 4b04 	ldr.w	r4, [r3], #4
  44:	f851 7b04 	ldr.w	r7, [r1], #4
  48:	407c      	eors	r4, r7
  4a:	f843 4c04 	str.w	r4, [r3, #-4]
  4e:	e7e4      	b.n	1a <xorbuf+0x1a>
  50:	7803      	ldrb	r3, [r0, #0]
  52:	f811 4f01 	ldrb.w	r4, [r1, #1]!
  56:	4063      	eors	r3, r4
  58:	f800 3b01 	strb.w	r3, [r0], #1
  5c:	e7e4      	b.n	28 <xorbuf+0x28>

Disassembly of section .text.IncrementGcmCounter:

00000000 <IncrementGcmCounter>:
   0:	f100 0210 	add.w	r2, r0, #16
   4:	300c      	adds	r0, #12
   6:	f812 3d01 	ldrb.w	r3, [r2, #-1]!
   a:	3301      	adds	r3, #1
   c:	b2db      	uxtb	r3, r3
   e:	7013      	strb	r3, [r2, #0]
  10:	b90b      	cbnz	r3, 16 <IncrementGcmCounter+0x16>
  12:	4282      	cmp	r2, r0
  14:	d1f7      	bne.n	6 <IncrementGcmCounter+0x6>
  16:	4770      	bx	lr

Disassembly of section .text.wc_AesEncrypt:

00000000 <wc_AesEncrypt>:
   0:	e92d 47ff 	stmdb	sp!, {r0, r1, r2, r3, r4, r5, r6, r7, r8, r9, sl, lr}
   4:	460d      	mov	r5, r1
   6:	4690      	mov	r8, r2
   8:	4604      	mov	r4, r0
   a:	2800      	cmp	r0, #0
   c:	f000 8727 	beq.w	e5e <wc_AesEncrypt+0xe5e>
  10:	f8d0 70f0 	ldr.w	r7, [r0, #240]	@ 0xf0
  14:	087f      	lsrs	r7, r7, #1
  16:	1e7b      	subs	r3, r7, #1
  18:	2b06      	cmp	r3, #6
  1a:	f200 8723 	bhi.w	e64 <wc_AesEncrypt+0xe64>
  1e:	2204      	movs	r2, #4
  20:	4668      	mov	r0, sp
  22:	f7ff fffe 	bl	0 <memcpy>
  26:	2204      	movs	r2, #4
  28:	18a9      	adds	r1, r5, r2
  2a:	eb0d 0002 	add.w	r0, sp, r2
  2e:	f7ff fffe 	bl	0 <memcpy>
  32:	f105 0108 	add.w	r1, r5, #8
  36:	2204      	movs	r2, #4
  38:	a802      	add	r0, sp, #8
  3a:	f7ff fffe 	bl	0 <memcpy>
  3e:	f105 010c 	add.w	r1, r5, #12
  42:	2204      	movs	r2, #4
  44:	a803      	add	r0, sp, #12
  46:	f7ff fffe 	bl	0 <memcpy>
  4a:	9800      	ldr	r0, [sp, #0]
  4c:	f7ff fffe 	bl	0 <wc_AesEncrypt>
  50:	4602      	mov	r2, r0
  52:	9801      	ldr	r0, [sp, #4]
  54:	f7ff fffe 	bl	0 <wc_AesEncrypt>
  58:	4603      	mov	r3, r0
  5a:	9802      	ldr	r0, [sp, #8]
  5c:	f7ff fffe 	bl	0 <wc_AesEncrypt>
  60:	4681      	mov	r9, r0
  62:	9803      	ldr	r0, [sp, #12]
  64:	f7ff fffe 	bl	0 <wc_AesEncrypt>
  68:	6821      	ldr	r1, [r4, #0]
  6a:	ea82 0e01 	eor.w	lr, r2, r1
  6e:	6862      	ldr	r2, [r4, #4]
  70:	ea83 0c02 	eor.w	ip, r3, r2
  74:	68a3      	ldr	r3, [r4, #8]
  76:	ea89 0903 	eor.w	r9, r9, r3
  7a:	68e3      	ldr	r3, [r4, #12]
  7c:	4058      	eors	r0, r3
  7e:	b2c2      	uxtb	r2, r0
  80:	4bf2      	ldr	r3, [pc, #968]	@ (44c <wc_AesEncrypt+0x44c>)
  82:	ea4f 611e 	mov.w	r1, lr, lsr #24
  86:	f502 7240 	add.w	r2, r2, #768	@ 0x300
  8a:	f853 5021 	ldr.w	r5, [r3, r1, lsl #2]
  8e:	f853 2022 	ldr.w	r2, [r3, r2, lsl #2]
  92:	4055      	eors	r5, r2
  94:	6922      	ldr	r2, [r4, #16]
  96:	4055      	eors	r5, r2
  98:	f3cc 4207 	ubfx	r2, ip, #16, #8
  9c:	f502 7280 	add.w	r2, r2, #256	@ 0x100
  a0:	ea4f 611c 	mov.w	r1, ip, lsr #24
  a4:	f853 2022 	ldr.w	r2, [r3, r2, lsl #2]
  a8:	f853 1021 	ldr.w	r1, [r3, r1, lsl #2]
  ac:	4055      	eors	r5, r2
  ae:	f3c9 2207 	ubfx	r2, r9, #8, #8
  b2:	f502 7200 	add.w	r2, r2, #512	@ 0x200
  b6:	ea4f 6619 	mov.w	r6, r9, lsr #24
  ba:	f853 2022 	ldr.w	r2, [r3, r2, lsl #2]
  be:	f853 6026 	ldr.w	r6, [r3, r6, lsl #2]
  c2:	4055      	eors	r5, r2
  c4:	fa5f f28e 	uxtb.w	r2, lr
  c8:	f502 7240 	add.w	r2, r2, #768	@ 0x300
  cc:	2f05      	cmp	r7, #5
  ce:	f853 2022 	ldr.w	r2, [r3, r2, lsl #2]
  d2:	ea81 0102 	eor.w	r1, r1, r2
  d6:	6962      	ldr	r2, [r4, #20]
  d8:	ea81 0102 	eor.w	r1, r1, r2
  dc:	f3c9 4207 	ubfx	r2, r9, #16, #8
  e0:	f502 7280 	add.w	r2, r2, #256	@ 0x100
  e4:	fa5f f989 	uxtb.w	r9, r9
  e8:	f853 2022 	ldr.w	r2, [r3, r2, lsl #2]
  ec:	ea81 0102 	eor.w	r1, r1, r2
  f0:	f3c0 2207 	ubfx	r2, r0, #8, #8
  f4:	f502 7200 	add.w	r2, r2, #512	@ 0x200
  f8:	f509 7940 	add.w	r9, r9, #768	@ 0x300
  fc:	f853 2022 	ldr.w	r2, [r3, r2, lsl #2]
 100:	ea81 0102 	eor.w	r1, r1, r2
 104:	fa5f f28c 	uxtb.w	r2, ip
 108:	f502 7240 	add.w	r2, r2, #768	@ 0x300
 10c:	f3cc 2c07 	ubfx	ip, ip, #8, #8
 110:	f853 2022 	ldr.w	r2, [r3, r2, lsl #2]
 114:	ea86 0602 	eor.w	r6, r6, r2
 118:	69a2      	ldr	r2, [r4, #24]
 11a:	ea86 0602 	eor.w	r6, r6, r2
 11e:	f3c0 4207 	ubfx	r2, r0, #16, #8
 122:	f502 7280 	add.w	r2, r2, #256	@ 0x100
 126:	ea4f 6010 	mov.w	r0, r0, lsr #24
 12a:	f853 2022 	ldr.w	r2, [r3, r2, lsl #2]
 12e:	ea86 0602 	eor.w	r6, r6, r2
 132:	f3ce 2207 	ubfx	r2, lr, #8, #8
 136:	f502 7200 	add.w	r2, r2, #512	@ 0x200
 13a:	f3ce 4e07 	ubfx	lr, lr, #16, #8
 13e:	f853 2022 	ldr.w	r2, [r3, r2, lsl #2]
 142:	ea86 0602 	eor.w	r6, r6, r2
 146:	f853 2020 	ldr.w	r2, [r3, r0, lsl #2]
 14a:	f853 0029 	ldr.w	r0, [r3, r9, lsl #2]
 14e:	f50e 7e80 	add.w	lr, lr, #256	@ 0x100
 152:	ea82 0900 	eor.w	r9, r2, r0
 156:	69e2      	ldr	r2, [r4, #28]
 158:	f50c 7c00 	add.w	ip, ip, #512	@ 0x200
 15c:	ea89 0902 	eor.w	r9, r9, r2
 160:	f853 202e 	ldr.w	r2, [r3, lr, lsl #2]
 164:	ea89 0902 	eor.w	r9, r9, r2
 168:	f853 202c 	ldr.w	r2, [r3, ip, lsl #2]
 16c:	ea89 0902 	eor.w	r9, r9, r2
 170:	fa5f f089 	uxtb.w	r0, r9
 174:	ea4f 6215 	mov.w	r2, r5, lsr #24
 178:	f500 7040 	add.w	r0, r0, #768	@ 0x300
 17c:	f853 2022 	ldr.w	r2, [r3, r2, lsl #2]
 180:	f853 0020 	ldr.w	r0, [r3, r0, lsl #2]
 184:	ea82 0c00 	eor.w	ip, r2, r0
 188:	6a22      	ldr	r2, [r4, #32]
 18a:	ea8c 0c02 	eor.w	ip, ip, r2
 18e:	f3c1 4207 	ubfx	r2, r1, #16, #8
 192:	f502 7280 	add.w	r2, r2, #256	@ 0x100
 196:	ea4f 6011 	mov.w	r0, r1, lsr #24
 19a:	f853 2022 	ldr.w	r2, [r3, r2, lsl #2]
 19e:	f853 0020 	ldr.w	r0, [r3, r0, lsl #2]
 1a2:	ea8c 0c02 	eor.w	ip, ip, r2
 1a6:	f3c6 2207 	ubfx	r2, r6, #8, #8
 1aa:	f502 7200 	add.w	r2, r2, #512	@ 0x200
 1ae:	fa5f fe81 	uxtb.w	lr, r1
 1b2:	f853 2022 	ldr.w	r2, [r3, r2, lsl #2]
 1b6:	ea8c 0c02 	eor.w	ip, ip, r2
 1ba:	b2ea      	uxtb	r2, r5
 1bc:	f502 7240 	add.w	r2, r2, #768	@ 0x300
 1c0:	f50e 7e40 	add.w	lr, lr, #768	@ 0x300
 1c4:	f853 2022 	ldr.w	r2, [r3, r2, lsl #2]
 1c8:	f853 e02e 	ldr.w	lr, [r3, lr, lsl #2]
 1cc:	ea80 0002 	eor.w	r0, r0, r2
 1d0:	6a62      	ldr	r2, [r4, #36]	@ 0x24
 1d2:	ea80 0002 	eor.w	r0, r0, r2
 1d6:	f3c6 4207 	ubfx	r2, r6, #16, #8
 1da:	f502 7280 	add.w	r2, r2, #256	@ 0x100
 1de:	f3c1 2107 	ubfx	r1, r1, #8, #8
 1e2:	f853 2022 	ldr.w	r2, [r3, r2, lsl #2]
 1e6:	ea80 0002 	eor.w	r0, r0, r2
 1ea:	f3c9 2207 	ubfx	r2, r9, #8, #8
 1ee:	f502 7200 	add.w	r2, r2, #512	@ 0x200
 1f2:	f501 7100 	add.w	r1, r1, #512	@ 0x200
 1f6:	f853 2022 	ldr.w	r2, [r3, r2, lsl #2]
 1fa:	ea80 0002 	eor.w	r0, r0, r2
 1fe:	ea4f 6216 	mov.w	r2, r6, lsr #24
 202:	b2f6      	uxtb	r6, r6
 204:	f853 2022 	ldr.w	r2, [r3, r2, lsl #2]
 208:	ea82 0e0e 	eor.w	lr, r2, lr
 20c:	6aa2      	ldr	r2, [r4, #40]	@ 0x28
 20e:	ea8e 0e02 	eor.w	lr, lr, r2
 212:	f3c9 4207 	ubfx	r2, r9, #16, #8
 216:	f502 7280 	add.w	r2, r2, #256	@ 0x100
 21a:	ea4f 6919 	mov.w	r9, r9, lsr #24
 21e:	f853 2022 	ldr.w	r2, [r3, r2, lsl #2]
 222:	ea8e 0e02 	eor.w	lr, lr, r2
 226:	f3c5 2207 	ubfx	r2, r5, #8, #8
 22a:	f502 7200 	add.w	r2, r2, #512	@ 0x200
 22e:	f506 7640 	add.w	r6, r6, #768	@ 0x300
 232:	f853 2022 	ldr.w	r2, [r3, r2, lsl #2]
 236:	f853 6026 	ldr.w	r6, [r3, r6, lsl #2]
 23a:	ea8e 0e02 	eor.w	lr, lr, r2
 23e:	f853 2029 	ldr.w	r2, [r3, r9, lsl #2]
 242:	f3c5 4507 	ubfx	r5, r5, #16, #8
 246:	ea82 0906 	eor.w	r9, r2, r6
 24a:	f505 7580 	add.w	r5, r5, #256	@ 0x100
 24e:	6ae2      	ldr	r2, [r4, #44]	@ 0x2c
 250:	ea89 0902 	eor.w	r9, r9, r2
 254:	f853 2025 	ldr.w	r2, [r3, r5, lsl #2]
 258:	ea89 0902 	eor.w	r9, r9, r2
 25c:	f853 2021 	ldr.w	r2, [r3, r1, lsl #2]
 260:	ea89 0902 	eor.w	r9, r9, r2
 264:	fa5f f289 	uxtb.w	r2, r9
 268:	ea4f 611c 	mov.w	r1, ip, lsr #24
 26c:	f502 7240 	add.w	r2, r2, #768	@ 0x300
 270:	f853 5021 	ldr.w	r5, [r3, r1, lsl #2]
 274:	f853 2022 	ldr.w	r2, [r3, r2, lsl #2]
 278:	ea85 0502 	eor.w	r5, r5, r2
 27c:	6b22      	ldr	r2, [r4, #48]	@ 0x30
 27e:	ea85 0502 	eor.w	r5, r5, r2
 282:	f3c0 4207 	ubfx	r2, r0, #16, #8
 286:	f502 7280 	add.w	r2, r2, #256	@ 0x100
 28a:	ea4f 6110 	mov.w	r1, r0, lsr #24
 28e:	f853 2022 	ldr.w	r2, [r3, r2, lsl #2]
 292:	f853 1021 	ldr.w	r1, [r3, r1, lsl #2]
 296:	ea85 0502 	eor.w	r5, r5, r2
 29a:	f3ce 2207 	ubfx	r2, lr, #8, #8
 29e:	f502 7200 	add.w	r2, r2, #512	@ 0x200
 2a2:	ea4f 661e 	mov.w	r6, lr, lsr #24
 2a6:	f853 2022 	ldr.w	r2, [r3, r2, lsl #2]
 2aa:	f853 6026 	ldr.w	r6, [r3, r6, lsl #2]
 2ae:	ea85 0502 	eor.w	r5, r5, r2
 2b2:	fa5f f28c 	uxtb.w	r2, ip
 2b6:	f502 7240 	add.w	r2, r2, #768	@ 0x300
 2ba:	f853 2022 	ldr.w	r2, [r3, r2, lsl #2]
 2be:	ea81 0102 	eor.w	r1, r1, r2
 2c2:	6b62      	ldr	r2, [r4, #52]	@ 0x34
 2c4:	ea81 0102 	eor.w	r1, r1, r2
 2c8:	f3ce 4207 	ubfx	r2, lr, #16, #8
 2cc:	f502 7280 	add.w	r2, r2, #256	@ 0x100
 2d0:	fa5f fe8e 	uxtb.w	lr, lr
 2d4:	f853 2022 	ldr.w	r2, [r3, r2, lsl #2]
 2d8:	ea81 0102 	eor.w	r1, r1, r2
 2dc:	f3c9 2207 	ubfx	r2, r9, #8, #8
 2e0:	f502 7200 	add.w	r2, r2, #512	@ 0x200
 2e4:	f50e 7e40 	add.w	lr, lr, #768	@ 0x300
 2e8:	f853 2022 	ldr.w	r2, [r3, r2, lsl #2]
 2ec:	ea81 0102 	eor.w	r1, r1, r2
 2f0:	b2c2      	uxtb	r2, r0
 2f2:	f502 7240 	add.w	r2, r2, #768	@ 0x300
 2f6:	f3c0 2007 	ubfx	r0, r0, #8, #8
 2fa:	f853 2022 	ldr.w	r2, [r3, r2, lsl #2]
 2fe:	ea86 0602 	eor.w	r6, r6, r2
 302:	6ba2      	ldr	r2, [r4, #56]	@ 0x38
 304:	ea86 0602 	eor.w	r6, r6, r2
 308:	f3c9 4207 	ubfx	r2, r9, #16, #8
 30c:	f502 7280 	add.w	r2, r2, #256	@ 0x100
 310:	ea4f 6919 	mov.w	r9, r9, lsr #24
 314:	f853 2022 	ldr.w	r2, [r3, r2, lsl #2]
 318:	ea86 0602 	eor.w	r6, r6, r2
 31c:	f3cc 2207 	ubfx	r2, ip, #8, #8
 320:	f502 7200 	add.w	r2, r2, #512	@ 0x200
 324:	f3cc 4c07 	ubfx	ip, ip, #16, #8
 328:	f853 2022 	ldr.w	r2, [r3, r2, lsl #2]
 32c:	ea86 0602 	eor.w	r6, r6, r2
 330:	f853 2029 	ldr.w	r2, [r3, r9, lsl #2]
 334:	f853 902e 	ldr.w	r9, [r3, lr, lsl #2]
 338:	f50c 7c80 	add.w	ip, ip, #256	@ 0x100
 33c:	ea82 0909 	eor.w	r9, r2, r9
 340:	6be2      	ldr	r2, [r4, #60]	@ 0x3c
 342:	f500 7000 	add.w	r0, r0, #512	@ 0x200
 346:	ea89 0902 	eor.w	r9, r9, r2
 34a:	f853 202c 	ldr.w	r2, [r3, ip, lsl #2]
 34e:	ea89 0902 	eor.w	r9, r9, r2
 352:	f853 2020 	ldr.w	r2, [r3, r0, lsl #2]
 356:	ea89 0902 	eor.w	r9, r9, r2
 35a:	fa5f f089 	uxtb.w	r0, r9
 35e:	ea4f 6215 	mov.w	r2, r5, lsr #24
 362:	f500 7040 	add.w	r0, r0, #768	@ 0x300
 366:	f853 2022 	ldr.w	r2, [r3, r2, lsl #2]
 36a:	f853 0020 	ldr.w	r0, [r3, r0, lsl #2]
 36e:	ea82 0c00 	eor.w	ip, r2, r0
 372:	6c22      	ldr	r2, [r4, #64]	@ 0x40
 374:	ea8c 0c02 	eor.w	ip, ip, r2
 378:	f3c1 4207 	ubfx	r2, r1, #16, #8
 37c:	f502 7280 	add.w	r2, r2, #256	@ 0x100
 380:	ea4f 6011 	mov.w	r0, r1, lsr #24
 384:	f853 2022 	ldr.w	r2, [r3, r2, lsl #2]
 388:	f853 0020 	ldr.w	r0, [r3, r0, lsl #2]
 38c:	ea8c 0c02 	eor.w	ip, ip, r2
 390:	f3c6 2207 	ubfx	r2, r6, #8, #8
 394:	f502 7200 	add.w	r2, r2, #512	@ 0x200
 398:	fa5f fe81 	uxtb.w	lr, r1
 39c:	f853 2022 	ldr.w	r2, [r3, r2, lsl #2]
 3a0:	ea8c 0c02 	eor.w	ip, ip, r2
 3a4:	b2ea      	uxtb	r2, r5
 3a6:	f502 7240 	add.w	r2, r2, #768	@ 0x300
 3aa:	f50e 7e40 	add.w	lr, lr, #768	@ 0x300
 3ae:	f853 2022 	ldr.w	r2, [r3, r2, lsl #2]
 3b2:	f853 e02e 	ldr.w	lr, [r3, lr, lsl #2]
 3b6:	ea80 0002 	eor.w	r0, r0, r2
 3ba:	6c62      	ldr	r2, [r4, #68]	@ 0x44
 3bc:	ea80 0002 	eor.w	r0, r0, r2
 3c0:	f3c6 4207 	ubfx	r2, r6, #16, #8
 3c4:	f502 7280 	add.w	r2, r2, #256	@ 0x100
 3c8:	f3c1 2107 	ubfx	r1, r1, #8, #8
 3cc:	f853 2022 	ldr.w	r2, [r3, r2, lsl #2]
 3d0:	ea80 0002 	eor.w	r0, r0, r2
 3d4:	f3c9 2207 	ubfx	r2, r9, #8, #8
 3d8:	f502 7200 	add.w	r2, r2, #512	@ 0x200
 3dc:	f501 7100 	add.w	r1, r1, #512	@ 0x200
 3e0:	f853 2022 	ldr.w	r2, [r3, r2, lsl #2]
 3e4:	ea80 0002 	eor.w	r0, r0, r2
 3e8:	ea4f 6216 	mov.w	r2, r6, lsr #24
 3ec:	b2f6      	uxtb	r6, r6
 3ee:	f853 2022 	ldr.w	r2, [r3, r2, lsl #2]
 3f2:	ea82 0e0e 	eor.w	lr, r2, lr
 3f6:	6ca2      	ldr	r2, [r4, #72]	@ 0x48
 3f8:	ea8e 0e02 	eor.w	lr, lr, r2
 3fc:	f3c9 4207 	ubfx	r2, r9, #16, #8
 400:	f502 7280 	add.w	r2, r2, #256	@ 0x100
 404:	ea4f 6919 	mov.w	r9, r9, lsr #24
 408:	f853 2022 	ldr.w	r2, [r3, r2, lsl #2]
 40c:	ea8e 0e02 	eor.w	lr, lr, r2
 410:	f3c5 2207 	ubfx	r2, r5, #8, #8
 414:	f502 7200 	add.w	r2, r2, #512	@ 0x200
 418:	f506 7640 	add.w	r6, r6, #768	@ 0x300
 41c:	f853 2022 	ldr.w	r2, [r3, r2, lsl #2]
 420:	f853 6026 	ldr.w	r6, [r3, r6, lsl #2]
 424:	ea8e 0e02 	eor.w	lr, lr, r2
 428:	f853 2029 	ldr.w	r2, [r3, r9, lsl #2]
 42c:	f3c5 4507 	ubfx	r5, r5, #16, #8
 430:	ea82 0906 	eor.w	r9, r2, r6
 434:	f505 7580 	add.w	r5, r5, #256	@ 0x100
 438:	6ce2      	ldr	r2, [r4, #76]	@ 0x4c
 43a:	ea89 0902 	eor.w	r9, r9, r2
 43e:	f853 2025 	ldr.w	r2, [r3, r5, lsl #2]
 442:	ea89 0902 	eor.w	r9, r9, r2
 446:	f853 2021 	ldr.w	r2, [r3, r1, lsl #2]
 44a:	e001      	b.n	450 <wc_AesEncrypt+0x450>
 44c:	00000000 	.word	0x00000000
 450:	ea89 0902 	eor.w	r9, r9, r2
 454:	fa5f f289 	uxtb.w	r2, r9
 458:	ea4f 611c 	mov.w	r1, ip, lsr #24
 45c:	f502 7240 	add.w	r2, r2, #768	@ 0x300
 460:	f853 5021 	ldr.w	r5, [r3, r1, lsl #2]
 464:	f853 2022 	ldr.w	r2, [r3, r2, lsl #2]
 468:	ea85 0502 	eor.w	r5, r5, r2
 46c:	6d22      	ldr	r2, [r4, #80]	@ 0x50
 46e:	ea85 0502 	eor.w	r5, r5, r2
 472:	f3c0 4207 	ubfx	r2, r0, #16, #8
 476:	f502 7280 	add.w	r2, r2, #256	@ 0x100
 47a:	ea4f 6110 	mov.w	r1, r0, lsr #24
 47e:	f853 2022 	ldr.w	r2, [r3, r2, lsl #2]
 482:	ea85 0502 	eor.w	r5, r5, r2
 486:	f3ce 2207 	ubfx	r2, lr, #8, #8
 48a:	f502 7200 	add.w	r2, r2, #512	@ 0x200
 48e:	ea4f 661e 	mov.w	r6, lr, lsr #24
 492:	f853 2022 	ldr.w	r2, [r3, r2, lsl #2]
 496:	f853 1021 	ldr.w	r1, [r3, r1, lsl #2]
 49a:	f853 6026 	ldr.w	r6, [r3, r6, lsl #2]
 49e:	ea85 0502 	eor.w	r5, r5, r2
 4a2:	fa5f f28c 	uxtb.w	r2, ip
 4a6:	f502 7240 	add.w	r2, r2, #768	@ 0x300
 4aa:	f853 2022 	ldr.w	r2, [r3, r2, lsl #2]
 4ae:	ea81 0102 	eor.w	r1, r1, r2
 4b2:	6d62      	ldr	r2, [r4, #84]	@ 0x54
 4b4:	ea81 0102 	eor.w	r1, r1, r2
 4b8:	f3ce 4207 	ubfx	r2, lr, #16, #8
 4bc:	f502 7280 	add.w	r2, r2, #256	@ 0x100
 4c0:	fa5f fe8e 	uxtb.w	lr, lr
 4c4:	f853 2022 	ldr.w	r2, [r3, r2, lsl #2]
 4c8:	ea81 0102 	eor.w	r1, r1, r2
 4cc:	f3c9 2207 	ubfx	r2, r9, #8, #8
 4d0:	f502 7200 	add.w	r2, r2, #512	@ 0x200
 4d4:	f50e 7e40 	add.w	lr, lr, #768	@ 0x300
 4d8:	f853 2022 	ldr.w	r2, [r3, r2, lsl #2]
 4dc:	ea81 0102 	eor.w	r1, r1, r2
 4e0:	b2c2      	uxtb	r2, r0
 4e2:	f502 7240 	add.w	r2, r2, #768	@ 0x300
 4e6:	f3c0 2007 	ubfx	r0, r0, #8, #8
 4ea:	f853 2022 	ldr.w	r2, [r3, r2, lsl #2]
 4ee:	ea86 0602 	eor.w	r6, r6, r2
 4f2:	6da2      	ldr	r2, [r4, #88]	@ 0x58
 4f4:	ea86 0602 	eor.w	r6, r6, r2
 4f8:	f3c9 4207 	ubfx	r2, r9, #16, #8
 4fc:	f502 7280 	add.w	r2, r2, #256	@ 0x100
 500:	ea4f 6919 	mov.w	r9, r9, lsr #24
 504:	f853 2022 	ldr.w	r2, [r3, r2, lsl #2]
 508:	ea86 0602 	eor.w	r6, r6, r2
 50c:	f3cc 2207 	ubfx	r2, ip, #8, #8
 510:	f502 7200 	add.w	r2, r2, #512	@ 0x200
 514:	f3cc 4c07 	ubfx	ip, ip, #16, #8
 518:	f853 2022 	ldr.w	r2, [r3, r2, lsl #2]
 51c:	ea86 0602 	eor.w	r6, r6, r2
 520:	f853 2029 	ldr.w	r2, [r3, r9, lsl #2]
 524:	f853 902e 	ldr.w	r9, [r3, lr, lsl #2]
 528:	f50c 7c80 	add.w	ip, ip, #256	@ 0x100
 52c:	ea82 0909 	eor.w	r9, r2, r9
 530:	6de2      	ldr	r2, [r4, #92]	@ 0x5c
 532:	f500 7000 	add.w	r0, r0, #512	@ 0x200
 536:	ea89 0902 	eor.w	r9, r9, r2
 53a:	f853 202c 	ldr.w	r2, [r3, ip, lsl #2]
 53e:	ea89 0902 	eor.w	r9, r9, r2
 542:	f853 2020 	ldr.w	r2, [r3, r0, lsl #2]
 546:	ea89 0902 	eor.w	r9, r9, r2
 54a:	fa5f f089 	uxtb.w	r0, r9
 54e:	ea4f 6215 	mov.w	r2, r5, lsr #24
 552:	f500 7040 	add.w	r0, r0, #768	@ 0x300
 556:	f853 2022 	ldr.w	r2, [r3, r2, lsl #2]
 55a:	f853 0020 	ldr.w	r0, [r3, r0, lsl #2]
 55e:	ea82 0c00 	eor.w	ip, r2, r0
 562:	6e22      	ldr	r2, [r4, #96]	@ 0x60
 564:	ea8c 0c02 	eor.w	ip, ip, r2
 568:	f3c1 4207 	ubfx	r2, r1, #16, #8
 56c:	f502 7280 	add.w	r2, r2, #256	@ 0x100
 570:	ea4f 6011 	mov.w	r0, r1, lsr #24
 574:	f853 2022 	ldr.w	r2, [r3, r2, lsl #2]
 578:	f853 0020 	ldr.w	r0, [r3, r0, lsl #2]
 57c:	ea8c 0c02 	eor.w	ip, ip, r2
 580:	f3c6 2207 	ubfx	r2, r6, #8, #8
 584:	f502 7200 	add.w	r2, r2, #512	@ 0x200
 588:	fa5f fe81 	uxtb.w	lr, r1
 58c:	f853 2022 	ldr.w	r2, [r3, r2, lsl #2]
 590:	ea8c 0c02 	eor.w	ip, ip, r2
 594:	b2ea      	uxtb	r2, r5
 596:	f502 7240 	add.w	r2, r2, #768	@ 0x300
 59a:	f50e 7e40 	add.w	lr, lr, #768	@ 0x300
 59e:	f853 2022 	ldr.w	r2, [r3, r2, lsl #2]
 5a2:	f853 e02e 	ldr.w	lr, [r3, lr, lsl #2]
 5a6:	ea80 0002 	eor.w	r0, r0, r2
 5aa:	6e62      	ldr	r2, [r4, #100]	@ 0x64
 5ac:	ea80 0002 	eor.w	r0, r0, r2
 5b0:	f3c6 4207 	ubfx	r2, r6, #16, #8
 5b4:	f502 7280 	add.w	r2, r2, #256	@ 0x100
 5b8:	f3c1 2107 	ubfx	r1, r1, #8, #8
 5bc:	f853 2022 	ldr.w	r2, [r3, r2, lsl #2]
 5c0:	ea80 0002 	eor.w	r0, r0, r2
 5c4:	f3c9 2207 	ubfx	r2, r9, #8, #8
 5c8:	f502 7200 	add.w	r2, r2, #512	@ 0x200
 5cc:	f501 7100 	add.w	r1, r1, #512	@ 0x200
 5d0:	f853 2022 	ldr.w	r2, [r3, r2, lsl #2]
 5d4:	ea80 0002 	eor.w	r0, r0, r2
 5d8:	ea4f 6216 	mov.w	r2, r6, lsr #24
 5dc:	b2f6      	uxtb	r6, r6
 5de:	f853 2022 	ldr.w	r2, [r3, r2, lsl #2]
 5e2:	ea82 0e0e 	eor.w	lr, r2, lr
 5e6:	6ea2      	ldr	r2, [r4, #104]	@ 0x68
 5e8:	ea8e 0e02 	eor.w	lr, lr, r2
 5ec:	f3c9 4207 	ubfx	r2, r9, #16, #8
 5f0:	f502 7280 	add.w	r2, r2, #256	@ 0x100
 5f4:	ea4f 6919 	mov.w	r9, r9, lsr #24
 5f8:	f853 2022 	ldr.w	r2, [r3, r2, lsl #2]
 5fc:	ea8e 0e02 	eor.w	lr, lr, r2
 600:	f3c5 2207 	ubfx	r2, r5, #8, #8
 604:	f502 7200 	add.w	r2, r2, #512	@ 0x200
 608:	f506 7640 	add.w	r6, r6, #768	@ 0x300
 60c:	f853 2022 	ldr.w	r2, [r3, r2, lsl #2]
 610:	ea8e 0e02 	eor.w	lr, lr, r2
 614:	f853 2029 	ldr.w	r2, [r3, r9, lsl #2]
 618:	f853 6026 	ldr.w	r6, [r3, r6, lsl #2]
 61c:	f3c5 4507 	ubfx	r5, r5, #16, #8
 620:	ea82 0906 	eor.w	r9, r2, r6
 624:	f505 7580 	add.w	r5, r5, #256	@ 0x100
 628:	6ee2      	ldr	r2, [r4, #108]	@ 0x6c
 62a:	ea89 0902 	eor.w	r9, r9, r2
 62e:	f853 2025 	ldr.w	r2, [r3, r5, lsl #2]
 632:	ea89 0902 	eor.w	r9, r9, r2
 636:	f853 2021 	ldr.w	r2, [r3, r1, lsl #2]
 63a:	ea89 0902 	eor.w	r9, r9, r2
 63e:	fa5f f289 	uxtb.w	r2, r9
 642:	ea4f 611c 	mov.w	r1, ip, lsr #24
 646:	f502 7240 	add.w	r2, r2, #768	@ 0x300
 64a:	f853 5021 	ldr.w	r5, [r3, r1, lsl #2]
 64e:	f853 2022 	ldr.w	r2, [r3, r2, lsl #2]
 652:	ea85 0502 	eor.w	r5, r5, r2
 656:	6f22      	ldr	r2, [r4, #112]	@ 0x70
 658:	ea85 0502 	eor.w	r5, r5, r2
 65c:	f3c0 4207 	ubfx	r2, r0, #16, #8
 660:	f502 7280 	add.w	r2, r2, #256	@ 0x100
 664:	ea4f 6110 	mov.w	r1, r0, lsr #24
 668:	f853 2022 	ldr.w	r2, [r3, r2, lsl #2]
 66c:	f853 1021 	ldr.w	r1, [r3, r1, lsl #2]
 670:	ea85 0502 	eor.w	r5, r5, r2
 674:	f3ce 2207 	ubfx	r2, lr, #8, #8
 678:	f502 7200 	add.w	r2, r2, #512	@ 0x200
 67c:	ea4f 661e 	mov.w	r6, lr, lsr #24
 680:	f853 2022 	ldr.w	r2, [r3, r2, lsl #2]
 684:	f853 6026 	ldr.w	r6, [r3, r6, lsl #2]
 688:	ea85 0502 	eor.w	r5, r5, r2
 68c:	fa5f f28c 	uxtb.w	r2, ip
 690:	f502 7240 	add.w	r2, r2, #768	@ 0x300
 694:	f853 2022 	ldr.w	r2, [r3, r2, lsl #2]
 698:	ea81 0102 	eor.w	r1, r1, r2
 69c:	6f62      	ldr	r2, [r4, #116]	@ 0x74
 69e:	ea81 0102 	eor.w	r1, r1, r2
 6a2:	f3ce 4207 	ubfx	r2, lr, #16, #8
 6a6:	f502 7280 	add.w	r2, r2, #256	@ 0x100
 6aa:	fa5f fe8e 	uxtb.w	lr, lr
 6ae:	f853 2022 	ldr.w	r2, [r3, r2, lsl #2]
 6b2:	ea81 0102 	eor.w	r1, r1, r2
 6b6:	f3c9 2207 	ubfx	r2, r9, #8, #8
 6ba:	f502 7200 	add.w	r2, r2, #512	@ 0x200
 6be:	f50e 7e40 	add.w	lr, lr, #768	@ 0x300
 6c2:	f853 2022 	ldr.w	r2, [r3, r2, lsl #2]
 6c6:	ea81 0102 	eor.w	r1, r1, r2
 6ca:	b2c2      	uxtb	r2, r0
 6cc:	f502 7240 	add.w	r2, r2, #768	@ 0x300
 6d0:	f3c0 2007 	ubfx	r0, r0, #8, #8
 6d4:	f853 2022 	ldr.w	r2, [r3, r2, lsl #2]
 6d8:	ea86 0602 	eor.w	r6, r6, r2
 6dc:	6fa2      	ldr	r2, [r4, #120]	@ 0x78
 6de:	ea86 0602 	eor.w	r6, r6, r2
 6e2:	f3c9 4207 	ubfx	r2, r9, #16, #8
 6e6:	f502 7280 	add.w	r2, r2, #256	@ 0x100
 6ea:	ea4f 6919 	mov.w	r9, r9, lsr #24
 6ee:	f853 2022 	ldr.w	r2, [r3, r2, lsl #2]
 6f2:	ea86 0602 	eor.w	r6, r6, r2
 6f6:	f3cc 2207 	ubfx	r2, ip, #8, #8
 6fa:	f502 7200 	add.w	r2, r2, #512	@ 0x200
 6fe:	f3cc 4c07 	ubfx	ip, ip, #16, #8
 702:	f853 2022 	ldr.w	r2, [r3, r2, lsl #2]
 706:	ea86 0602 	eor.w	r6, r6, r2
 70a:	f853 2029 	ldr.w	r2, [r3, r9, lsl #2]
 70e:	f853 902e 	ldr.w	r9, [r3, lr, lsl #2]
 712:	f50c 7c80 	add.w	ip, ip, #256	@ 0x100
 716:	ea82 0909 	eor.w	r9, r2, r9
 71a:	6fe2      	ldr	r2, [r4, #124]	@ 0x7c
 71c:	f500 7000 	add.w	r0, r0, #512	@ 0x200
 720:	ea89 0902 	eor.w	r9, r9, r2
 724:	f853 202c 	ldr.w	r2, [r3, ip, lsl #2]
 728:	ea89 0902 	eor.w	r9, r9, r2
 72c:	f853 2020 	ldr.w	r2, [r3, r0, lsl #2]
 730:	ea89 0902 	eor.w	r9, r9, r2
 734:	fa5f f089 	uxtb.w	r0, r9
 738:	ea4f 6215 	mov.w	r2, r5, lsr #24
 73c:	f500 7040 	add.w	r0, r0, #768	@ 0x300
 740:	f853 2022 	ldr.w	r2, [r3, r2, lsl #2]
 744:	f853 0020 	ldr.w	r0, [r3, r0, lsl #2]
 748:	ea82 0e00 	eor.w	lr, r2, r0
 74c:	f8d4 2080 	ldr.w	r2, [r4, #128]	@ 0x80
 750:	ea8e 0e02 	eor.w	lr, lr, r2
 754:	f3c1 4207 	ubfx	r2, r1, #16, #8
 758:	f502 7280 	add.w	r2, r2, #256	@ 0x100
 75c:	ea4f 6011 	mov.w	r0, r1, lsr #24
 760:	f853 2022 	ldr.w	r2, [r3, r2, lsl #2]
 764:	f853 0020 	ldr.w	r0, [r3, r0, lsl #2]
 768:	ea8e 0e02 	eor.w	lr, lr, r2
 76c:	f3c6 2207 	ubfx	r2, r6, #8, #8
 770:	f502 7200 	add.w	r2, r2, #512	@ 0x200
 774:	fa5f fc81 	uxtb.w	ip, r1
 778:	f853 2022 	ldr.w	r2, [r3, r2, lsl #2]
 77c:	ea8e 0e02 	eor.w	lr, lr, r2
 780:	b2ea      	uxtb	r2, r5
 782:	f502 7240 	add.w	r2, r2, #768	@ 0x300
 786:	f50c 7c40 	add.w	ip, ip, #768	@ 0x300
 78a:	f853 2022 	ldr.w	r2, [r3, r2, lsl #2]
 78e:	ea80 0002 	eor.w	r0, r0, r2
 792:	f8d4 2084 	ldr.w	r2, [r4, #132]	@ 0x84
 796:	ea80 0002 	eor.w	r0, r0, r2
 79a:	f3c6 4207 	ubfx	r2, r6, #16, #8
 79e:	f502 7280 	add.w	r2, r2, #256	@ 0x100
 7a2:	f3c1 2107 	ubfx	r1, r1, #8, #8
 7a6:	f853 2022 	ldr.w	r2, [r3, r2, lsl #2]
 7aa:	f853 c02c 	ldr.w	ip, [r3, ip, lsl #2]
 7ae:	ea80 0002 	eor.w	r0, r0, r2
 7b2:	f3c9 2207 	ubfx	r2, r9, #8, #8
 7b6:	f502 7200 	add.w	r2, r2, #512	@ 0x200
 7ba:	f501 7100 	add.w	r1, r1, #512	@ 0x200
 7be:	f853 2022 	ldr.w	r2, [r3, r2, lsl #2]
 7c2:	ea80 0002 	eor.w	r0, r0, r2
 7c6:	ea4f 6216 	mov.w	r2, r6, lsr #24
 7ca:	b2f6      	uxtb	r6, r6
 7cc:	f853 2022 	ldr.w	r2, [r3, r2, lsl #2]
 7d0:	ea82 0c0c 	eor.w	ip, r2, ip
 7d4:	f8d4 2088 	ldr.w	r2, [r4, #136]	@ 0x88
 7d8:	ea8c 0c02 	eor.w	ip, ip, r2
 7dc:	f3c9 4207 	ubfx	r2, r9, #16, #8
 7e0:	f502 7280 	add.w	r2, r2, #256	@ 0x100
 7e4:	ea4f 6919 	mov.w	r9, r9, lsr #24
 7e8:	f853 2022 	ldr.w	r2, [r3, r2, lsl #2]
 7ec:	ea8c 0c02 	eor.w	ip, ip, r2
 7f0:	f3c5 2207 	ubfx	r2, r5, #8, #8
 7f4:	f502 7200 	add.w	r2, r2, #512	@ 0x200
 7f8:	f506 7640 	add.w	r6, r6, #768	@ 0x300
 7fc:	f853 2022 	ldr.w	r2, [r3, r2, lsl #2]
 800:	f853 6026 	ldr.w	r6, [r3, r6, lsl #2]
 804:	ea8c 0c02 	eor.w	ip, ip, r2
 808:	f853 2029 	ldr.w	r2, [r3, r9, lsl #2]
 80c:	f3c5 4507 	ubfx	r5, r5, #16, #8
 810:	ea82 0906 	eor.w	r9, r2, r6
 814:	f505 7580 	add.w	r5, r5, #256	@ 0x100
 818:	f8d4 208c 	ldr.w	r2, [r4, #140]	@ 0x8c
 81c:	ea89 0902 	eor.w	r9, r9, r2
 820:	f853 2025 	ldr.w	r2, [r3, r5, lsl #2]
 824:	ea89 0902 	eor.w	r9, r9, r2
 828:	f853 2021 	ldr.w	r2, [r3, r1, lsl #2]
 82c:	ea89 0902 	eor.w	r9, r9, r2
 830:	fa5f f289 	uxtb.w	r2, r9
 834:	ea4f 611e 	mov.w	r1, lr, lsr #24
 838:	f502 7240 	add.w	r2, r2, #768	@ 0x300
 83c:	f853 1021 	ldr.w	r1, [r3, r1, lsl #2]
 840:	f853 2022 	ldr.w	r2, [r3, r2, lsl #2]
 844:	ea81 0102 	eor.w	r1, r1, r2
 848:	f8d4 2090 	ldr.w	r2, [r4, #144]	@ 0x90
 84c:	ea81 0102 	eor.w	r1, r1, r2
 850:	f3c0 4207 	ubfx	r2, r0, #16, #8
 854:	f502 7280 	add.w	r2, r2, #256	@ 0x100
 858:	ea4f 6510 	mov.w	r5, r0, lsr #24
 85c:	f853 2022 	ldr.w	r2, [r3, r2, lsl #2]
 860:	f853 5025 	ldr.w	r5, [r3, r5, lsl #2]
 864:	ea81 0102 	eor.w	r1, r1, r2
 868:	f3cc 2207 	ubfx	r2, ip, #8, #8
 86c:	f502 7200 	add.w	r2, r2, #512	@ 0x200
 870:	ea4f 661c 	mov.w	r6, ip, lsr #24
 874:	f853 2022 	ldr.w	r2, [r3, r2, lsl #2]
 878:	f853 6026 	ldr.w	r6, [r3, r6, lsl #2]
 87c:	ea81 0102 	eor.w	r1, r1, r2
 880:	fa5f f28e 	uxtb.w	r2, lr
 884:	f502 7240 	add.w	r2, r2, #768	@ 0x300
 888:	f853 2022 	ldr.w	r2, [r3, r2, lsl #2]
 88c:	ea85 0502 	eor.w	r5, r5, r2
 890:	f8d4 2094 	ldr.w	r2, [r4, #148]	@ 0x94
 894:	ea85 0502 	eor.w	r5, r5, r2
 898:	f3cc 4207 	ubfx	r2, ip, #16, #8
 89c:	f502 7280 	add.w	r2, r2, #256	@ 0x100
 8a0:	fa5f fc8c 	uxtb.w	ip, ip
 8a4:	f853 2022 	ldr.w	r2, [r3, r2, lsl #2]
 8a8:	ea85 0502 	eor.w	r5, r5, r2
 8ac:	f3c9 2207 	ubfx	r2, r9, #8, #8
 8b0:	f502 7200 	add.w	r2, r2, #512	@ 0x200
 8b4:	f50c 7c40 	add.w	ip, ip, #768	@ 0x300
 8b8:	f853 2022 	ldr.w	r2, [r3, r2, lsl #2]
 8bc:	f853 c02c 	ldr.w	ip, [r3, ip, lsl #2]
 8c0:	ea85 0502 	eor.w	r5, r5, r2
 8c4:	b2c2      	uxtb	r2, r0
 8c6:	f502 7240 	add.w	r2, r2, #768	@ 0x300
 8ca:	f3c0 2007 	ubfx	r0, r0, #8, #8
 8ce:	f853 2022 	ldr.w	r2, [r3, r2, lsl #2]
 8d2:	ea86 0602 	eor.w	r6, r6, r2
 8d6:	f8d4 2098 	ldr.w	r2, [r4, #152]	@ 0x98
 8da:	ea86 0602 	eor.w	r6, r6, r2
 8de:	f3c9 4207 	ubfx	r2, r9, #16, #8
 8e2:	f502 7280 	add.w	r2, r2, #256	@ 0x100
 8e6:	ea4f 6919 	mov.w	r9, r9, lsr #24
 8ea:	f853 2022 	ldr.w	r2, [r3, r2, lsl #2]
 8ee:	ea86 0602 	eor.w	r6, r6, r2
 8f2:	f3ce 2207 	ubfx	r2, lr, #8, #8
 8f6:	f502 7200 	add.w	r2, r2, #512	@ 0x200
 8fa:	f3ce 4e07 	ubfx	lr, lr, #16, #8
 8fe:	f853 2022 	ldr.w	r2, [r3, r2, lsl #2]
 902:	ea86 0602 	eor.w	r6, r6, r2
 906:	f853 2029 	ldr.w	r2, [r3, r9, lsl #2]
 90a:	f50e 7e80 	add.w	lr, lr, #256	@ 0x100
 90e:	ea82 0c0c 	eor.w	ip, r2, ip
 912:	f8d4 209c 	ldr.w	r2, [r4, #156]	@ 0x9c
 916:	f500 7000 	add.w	r0, r0, #512	@ 0x200
 91a:	ea8c 0c02 	eor.w	ip, ip, r2
 91e:	f853 202e 	ldr.w	r2, [r3, lr, lsl #2]
 922:	ea8c 0c02 	eor.w	ip, ip, r2
 926:	f853 2020 	ldr.w	r2, [r3, r0, lsl #2]
 92a:	ea8c 0c02 	eor.w	ip, ip, r2
 92e:	f240 81df 	bls.w	cf0 <wc_AesEncrypt+0xcf0>
 932:	fa5f f28c 	uxtb.w	r2, ip
 936:	0e08      	lsrs	r0, r1, #24
 938:	f502 7240 	add.w	r2, r2, #768	@ 0x300
 93c:	f853 0020 	ldr.w	r0, [r3, r0, lsl #2]
 940:	f853 2022 	ldr.w	r2, [r3, r2, lsl #2]
 944:	4050      	eors	r0, r2
 946:	f8d4 20a0 	ldr.w	r2, [r4, #160]	@ 0xa0
 94a:	4050      	eors	r0, r2
 94c:	f3c5 4207 	ubfx	r2, r5, #16, #8
 950:	f502 7280 	add.w	r2, r2, #256	@ 0x100
 954:	fa5f fe81 	uxtb.w	lr, r1
 958:	f853 2022 	ldr.w	r2, [r3, r2, lsl #2]
 95c:	4050      	eors	r0, r2
 95e:	f3c6 2207 	ubfx	r2, r6, #8, #8
 962:	f502 7200 	add.w	r2, r2, #512	@ 0x200
 966:	f50e 7e40 	add.w	lr, lr, #768	@ 0x300
 96a:	f853 2022 	ldr.w	r2, [r3, r2, lsl #2]
 96e:	f853 e02e 	ldr.w	lr, [r3, lr, lsl #2]
 972:	4050      	eors	r0, r2
 974:	0e2a      	lsrs	r2, r5, #24
 976:	fa5f f985 	uxtb.w	r9, r5
 97a:	f853 2022 	ldr.w	r2, [r3, r2, lsl #2]
 97e:	ea82 0e0e 	eor.w	lr, r2, lr
 982:	f8d4 20a4 	ldr.w	r2, [r4, #164]	@ 0xa4
 986:	ea8e 0e02 	eor.w	lr, lr, r2
 98a:	f3c6 4207 	ubfx	r2, r6, #16, #8
 98e:	f502 7280 	add.w	r2, r2, #256	@ 0x100
 992:	f509 7940 	add.w	r9, r9, #768	@ 0x300
 996:	f853 2022 	ldr.w	r2, [r3, r2, lsl #2]
 99a:	f853 9029 	ldr.w	r9, [r3, r9, lsl #2]
 99e:	ea8e 0e02 	eor.w	lr, lr, r2
 9a2:	f3cc 2207 	ubfx	r2, ip, #8, #8
 9a6:	f502 7200 	add.w	r2, r2, #512	@ 0x200
 9aa:	f3c5 2507 	ubfx	r5, r5, #8, #8
 9ae:	f853 2022 	ldr.w	r2, [r3, r2, lsl #2]
 9b2:	ea8e 0e02 	eor.w	lr, lr, r2
 9b6:	0e32      	lsrs	r2, r6, #24
 9b8:	b2f6      	uxtb	r6, r6
 9ba:	f853 2022 	ldr.w	r2, [r3, r2, lsl #2]
 9be:	ea82 0909 	eor.w	r9, r2, r9
 9c2:	f8d4 20a8 	ldr.w	r2, [r4, #168]	@ 0xa8
 9c6:	ea89 0902 	eor.w	r9, r9, r2
 9ca:	f3cc 4207 	ubfx	r2, ip, #16, #8
 9ce:	f502 7280 	add.w	r2, r2, #256	@ 0x100
 9d2:	ea4f 6c1c 	mov.w	ip, ip, lsr #24
 9d6:	f853 2022 	ldr.w	r2, [r3, r2, lsl #2]
 9da:	ea89 0902 	eor.w	r9, r9, r2
 9de:	f3c1 2207 	ubfx	r2, r1, #8, #8
 9e2:	f502 7200 	add.w	r2, r2, #512	@ 0x200
 9e6:	f506 7640 	add.w	r6, r6, #768	@ 0x300
 9ea:	f853 2022 	ldr.w	r2, [r3, r2, lsl #2]
 9ee:	f853 6026 	ldr.w	r6, [r3, r6, lsl #2]
 9f2:	ea89 0902 	eor.w	r9, r9, r2
 9f6:	f853 202c 	ldr.w	r2, [r3, ip, lsl #2]
 9fa:	f3c1 4107 	ubfx	r1, r1, #16, #8
 9fe:	ea82 0c06 	eor.w	ip, r2, r6
 a02:	f501 7180 	add.w	r1, r1, #256	@ 0x100
 a06:	f8d4 20ac 	ldr.w	r2, [r4, #172]	@ 0xac
 a0a:	f505 7500 	add.w	r5, r5, #512	@ 0x200
 a0e:	ea8c 0c02 	eor.w	ip, ip, r2
 a12:	f853 2021 	ldr.w	r2, [r3, r1, lsl #2]
 a16:	ea8c 0c02 	eor.w	ip, ip, r2
 a1a:	f853 2025 	ldr.w	r2, [r3, r5, lsl #2]
 a1e:	ea8c 0c02 	eor.w	ip, ip, r2
 a22:	fa5f f28c 	uxtb.w	r2, ip
 a26:	0e01      	lsrs	r1, r0, #24
 a28:	f502 7240 	add.w	r2, r2, #768	@ 0x300
 a2c:	f853 1021 	ldr.w	r1, [r3, r1, lsl #2]
 a30:	f853 2022 	ldr.w	r2, [r3, r2, lsl #2]
 a34:	4051      	eors	r1, r2
 a36:	f8d4 20b0 	ldr.w	r2, [r4, #176]	@ 0xb0
 a3a:	4051      	eors	r1, r2
 a3c:	f3ce 4207 	ubfx	r2, lr, #16, #8
 a40:	f502 7280 	add.w	r2, r2, #256	@ 0x100
 a44:	ea4f 651e 	mov.w	r5, lr, lsr #24
 a48:	f853 2022 	ldr.w	r2, [r3, r2, lsl #2]
 a4c:	f853 5025 	ldr.w	r5, [r3, r5, lsl #2]
 a50:	4051      	eors	r1, r2
 a52:	f3c9 2207 	ubfx	r2, r9, #8, #8
 a56:	f502 7200 	add.w	r2, r2, #512	@ 0x200
 a5a:	ea4f 6619 	mov.w	r6, r9, lsr #24
 a5e:	f853 2022 	ldr.w	r2, [r3, r2, lsl #2]
 a62:	f853 6026 	ldr.w	r6, [r3, r6, lsl #2]
 a66:	4051      	eors	r1, r2
 a68:	b2c2      	uxtb	r2, r0
 a6a:	f502 7240 	add.w	r2, r2, #768	@ 0x300
 a6e:	2f06      	cmp	r7, #6
 a70:	f853 2022 	ldr.w	r2, [r3, r2, lsl #2]
 a74:	ea85 0502 	eor.w	r5, r5, r2
 a78:	f8d4 20b4 	ldr.w	r2, [r4, #180]	@ 0xb4
 a7c:	ea85 0502 	eor.w	r5, r5, r2
 a80:	f3c9 4207 	ubfx	r2, r9, #16, #8
 a84:	f502 7280 	add.w	r2, r2, #256	@ 0x100
 a88:	fa5f f989 	uxtb.w	r9, r9
 a8c:	f853 2022 	ldr.w	r2, [r3, r2, lsl #2]
 a90:	ea85 0502 	eor.w	r5, r5, r2
 a94:	f3cc 2207 	ubfx	r2, ip, #8, #8
 a98:	f502 7200 	add.w	r2, r2, #512	@ 0x200
 a9c:	f509 7940 	add.w	r9, r9, #768	@ 0x300
 aa0:	f853 2022 	ldr.w	r2, [r3, r2, lsl #2]
 aa4:	ea85 0502 	eor.w	r5, r5, r2
 aa8:	fa5f f28e 	uxtb.w	r2, lr
 aac:	f502 7240 	add.w	r2, r2, #768	@ 0x300
 ab0:	f3ce 2e07 	ubfx	lr, lr, #8, #8
 ab4:	f853 2022 	ldr.w	r2, [r3, r2, lsl #2]
 ab8:	ea86 0602 	eor.w	r6, r6, r2
 abc:	f8d4 20b8 	ldr.w	r2, [r4, #184]	@ 0xb8
 ac0:	ea86 0602 	eor.w	r6, r6, r2
 ac4:	f3cc 4207 	ubfx	r2, ip, #16, #8
 ac8:	f502 7280 	add.w	r2, r2, #256	@ 0x100
 acc:	ea4f 6c1c 	mov.w	ip, ip, lsr #24
 ad0:	f853 2022 	ldr.w	r2, [r3, r2, lsl #2]
 ad4:	ea86 0602 	eor.w	r6, r6, r2
 ad8:	f3c0 2207 	ubfx	r2, r0, #8, #8
 adc:	f502 7200 	add.w	r2, r2, #512	@ 0x200
 ae0:	f3c0 4007 	ubfx	r0, r0, #16, #8
 ae4:	f853 2022 	ldr.w	r2, [r3, r2, lsl #2]
 ae8:	ea86 0602 	eor.w	r6, r6, r2
 aec:	f853 202c 	ldr.w	r2, [r3, ip, lsl #2]
 af0:	f853 c029 	ldr.w	ip, [r3, r9, lsl #2]
 af4:	f500 7080 	add.w	r0, r0, #256	@ 0x100
 af8:	ea82 0c0c 	eor.w	ip, r2, ip
 afc:	f8d4 20bc 	ldr.w	r2, [r4, #188]	@ 0xbc
 b00:	f50e 7e00 	add.w	lr, lr, #512	@ 0x200
 b04:	ea8c 0c02 	eor.w	ip, ip, r2
 b08:	f853 2020 	ldr.w	r2, [r3, r0, lsl #2]
 b0c:	ea8c 0c02 	eor.w	ip, ip, r2
 b10:	f853 202e 	ldr.w	r2, [r3, lr, lsl #2]
 b14:	ea8c 0c02 	eor.w	ip, ip, r2
 b18:	f000 80ea 	beq.w	cf0 <wc_AesEncrypt+0xcf0>
 b1c:	fa5f f28c 	uxtb.w	r2, ip
 b20:	0e08      	lsrs	r0, r1, #24
 b22:	f502 7240 	add.w	r2, r2, #768	@ 0x300
 b26:	f853 0020 	ldr.w	r0, [r3, r0, lsl #2]
 b2a:	f853 2022 	ldr.w	r2, [r3, r2, lsl #2]
 b2e:	4050      	eors	r0, r2
 b30:	f8d4 20c0 	ldr.w	r2, [r4, #192]	@ 0xc0
 b34:	4050      	eors	r0, r2
 b36:	f3c5 4207 	ubfx	r2, r5, #16, #8
 b3a:	f502 7280 	add.w	r2, r2, #256	@ 0x100
 b3e:	fa5f fe81 	uxtb.w	lr, r1
 b42:	f853 2022 	ldr.w	r2, [r3, r2, lsl #2]
 b46:	4050      	eors	r0, r2
 b48:	f3c6 2207 	ubfx	r2, r6, #8, #8
 b4c:	f502 7200 	add.w	r2, r2, #512	@ 0x200
 b50:	f50e 7e40 	add.w	lr, lr, #768	@ 0x300
 b54:	f853 2022 	ldr.w	r2, [r3, r2, lsl #2]
 b58:	f853 e02e 	ldr.w	lr, [r3, lr, lsl #2]
 b5c:	4050      	eors	r0, r2
 b5e:	0e2a      	lsrs	r2, r5, #24
 b60:	fa5f f985 	uxtb.w	r9, r5
 b64:	f853 2022 	ldr.w	r2, [r3, r2, lsl #2]
 b68:	ea82 0e0e 	eor.w	lr, r2, lr
 b6c:	f8d4 20c4 	ldr.w	r2, [r4, #196]	@ 0xc4
 b70:	ea8e 0e02 	eor.w	lr, lr, r2
 b74:	f3c6 4207 	ubfx	r2, r6, #16, #8
 b78:	f502 7280 	add.w	r2, r2, #256	@ 0x100
 b7c:	f509 7940 	add.w	r9, r9, #768	@ 0x300
 b80:	f853 2022 	ldr.w	r2, [r3, r2, lsl #2]
 b84:	f853 9029 	ldr.w	r9, [r3, r9, lsl #2]
 b88:	ea8e 0e02 	eor.w	lr, lr, r2
 b8c:	f3cc 2207 	ubfx	r2, ip, #8, #8
 b90:	f502 7200 	add.w	r2, r2, #512	@ 0x200
 b94:	f3c5 2507 	ubfx	r5, r5, #8, #8
 b98:	f853 2022 	ldr.w	r2, [r3, r2, lsl #2]
 b9c:	ea8e 0e02 	eor.w	lr, lr, r2
 ba0:	0e32      	lsrs	r2, r6, #24
 ba2:	b2f6      	uxtb	r6, r6
 ba4:	f853 2022 	ldr.w	r2, [r3, r2, lsl #2]
 ba8:	ea82 0909 	eor.w	r9, r2, r9
 bac:	f8d4 20c8 	ldr.w	r2, [r4, #200]	@ 0xc8
 bb0:	ea89 0902 	eor.w	r9, r9, r2
 bb4:	f3cc 4207 	ubfx	r2, ip, #16, #8
 bb8:	f502 7280 	add.w	r2, r2, #256	@ 0x100
 bbc:	ea4f 6c1c 	mov.w	ip, ip, lsr #24
 bc0:	f853 2022 	ldr.w	r2, [r3, r2, lsl #2]
 bc4:	ea89 0902 	eor.w	r9, r9, r2
 bc8:	f3c1 2207 	ubfx	r2, r1, #8, #8
 bcc:	f502 7200 	add.w	r2, r2, #512	@ 0x200
 bd0:	f506 7640 	add.w	r6, r6, #768	@ 0x300
 bd4:	f853 2022 	ldr.w	r2, [r3, r2, lsl #2]
 bd8:	f853 6026 	ldr.w	r6, [r3, r6, lsl #2]
 bdc:	ea89 0902 	eor.w	r9, r9, r2
 be0:	f853 202c 	ldr.w	r2, [r3, ip, lsl #2]
 be4:	f3c1 4107 	ubfx	r1, r1, #16, #8
 be8:	ea82 0c06 	eor.w	ip, r2, r6
 bec:	f501 7180 	add.w	r1, r1, #256	@ 0x100
 bf0:	f8d4 20cc 	ldr.w	r2, [r4, #204]	@ 0xcc
 bf4:	f505 7500 	add.w	r5, r5, #512	@ 0x200
 bf8:	ea8c 0c02 	eor.w	ip, ip, r2
 bfc:	f853 2021 	ldr.w	r2, [r3, r1, lsl #2]
 c00:	ea8c 0c02 	eor.w	ip, ip, r2
 c04:	f853 2025 	ldr.w	r2, [r3, r5, lsl #2]
 c08:	ea8c 0c02 	eor.w	ip, ip, r2
 c0c:	fa5f f28c 	uxtb.w	r2, ip
 c10:	0e01      	lsrs	r1, r0, #24
 c12:	f502 7240 	add.w	r2, r2, #768	@ 0x300
 c16:	f853 1021 	ldr.w	r1, [r3, r1, lsl #2]
 c1a:	f853 2022 	ldr.w	r2, [r3, r2, lsl #2]
 c1e:	4051      	eors	r1, r2
 c20:	f8d4 20d0 	ldr.w	r2, [r4, #208]	@ 0xd0
 c24:	4051      	eors	r1, r2
 c26:	f3ce 4207 	ubfx	r2, lr, #16, #8
 c2a:	f502 7280 	add.w	r2, r2, #256	@ 0x100
 c2e:	ea4f 651e 	mov.w	r5, lr, lsr #24
 c32:	f853 2022 	ldr.w	r2, [r3, r2, lsl #2]
 c36:	f853 5025 	ldr.w	r5, [r3, r5, lsl #2]
 c3a:	4051      	eors	r1, r2
 c3c:	f3c9 2207 	ubfx	r2, r9, #8, #8
 c40:	f502 7200 	add.w	r2, r2, #512	@ 0x200
 c44:	ea4f 6619 	mov.w	r6, r9, lsr #24
 c48:	f853 2022 	ldr.w	r2, [r3, r2, lsl #2]
 c4c:	f853 6026 	ldr.w	r6, [r3, r6, lsl #2]
 c50:	4051      	eors	r1, r2
 c52:	b2c2      	uxtb	r2, r0
 c54:	f502 7240 	add.w	r2, r2, #768	@ 0x300
 c58:	f853 2022 	ldr.w	r2, [r3, r2, lsl #2]
 c5c:	4055      	eors	r5, r2
 c5e:	f8d4 20d4 	ldr.w	r2, [r4, #212]	@ 0xd4
 c62:	4055      	eors	r5, r2
 c64:	f3c9 4207 	ubfx	r2, r9, #16, #8
 c68:	f502 7280 	add.w	r2, r2, #256	@ 0x100
 c6c:	fa5f f989 	uxtb.w	r9, r9
 c70:	f853 2022 	ldr.w	r2, [r3, r2, lsl #2]
 c74:	4055      	eors	r5, r2
 c76:	f3cc 2207 	ubfx	r2, ip, #8, #8
 c7a:	f502 7200 	add.w	r2, r2, #512	@ 0x200
 c7e:	f509 7940 	add.w	r9, r9, #768	@ 0x300
 c82:	f853 2022 	ldr.w	r2, [r3, r2, lsl #2]
 c86:	4055      	eors	r5, r2
 c88:	fa5f f28e 	uxtb.w	r2, lr
 c8c:	f502 7240 	add.w	r2, r2, #768	@ 0x300
 c90:	f3ce 2e07 	ubfx	lr, lr, #8, #8
 c94:	f853 2022 	ldr.w	r2, [r3, r2, lsl #2]
 c98:	4056      	eors	r6, r2
 c9a:	f8d4 20d8 	ldr.w	r2, [r4, #216]	@ 0xd8
 c9e:	4056      	eors	r6, r2
 ca0:	f3cc 4207 	ubfx	r2, ip, #16, #8
 ca4:	f502 7280 	add.w	r2, r2, #256	@ 0x100
 ca8:	ea4f 6c1c 	mov.w	ip, ip, lsr #24
 cac:	f853 2022 	ldr.w	r2, [r3, r2, lsl #2]
 cb0:	4056      	eors	r6, r2
 cb2:	f3c0 2207 	ubfx	r2, r0, #8, #8
 cb6:	f502 7200 	add.w	r2, r2, #512	@ 0x200
 cba:	f3c0 4007 	ubfx	r0, r0, #16, #8
 cbe:	f853 2022 	ldr.w	r2, [r3, r2, lsl #2]
 cc2:	4056      	eors	r6, r2
 cc4:	f853 202c 	ldr.w	r2, [r3, ip, lsl #2]
 cc8:	f853 c029 	ldr.w	ip, [r3, r9, lsl #2]
 ccc:	f500 7080 	add.w	r0, r0, #256	@ 0x100
 cd0:	ea82 0c0c 	eor.w	ip, r2, ip
 cd4:	f8d4 20dc 	ldr.w	r2, [r4, #220]	@ 0xdc
 cd8:	f50e 7e00 	add.w	lr, lr, #512	@ 0x200
 cdc:	ea8c 0c02 	eor.w	ip, ip, r2
 ce0:	f853 2020 	ldr.w	r2, [r3, r0, lsl #2]
 ce4:	ea8c 0c02 	eor.w	ip, ip, r2
 ce8:	f853 202e 	ldr.w	r2, [r3, lr, lsl #2]
 cec:	ea8c 0c02 	eor.w	ip, ip, r2
 cf0:	b2ca      	uxtb	r2, r1
 cf2:	0178      	lsls	r0, r7, #5
 cf4:	f502 7280 	add.w	r2, r2, #256	@ 0x100
 cf8:	eb04 1747 	add.w	r7, r4, r7, lsl #5
 cfc:	f813 9022 	ldrb.w	r9, [r3, r2, lsl #2]
 d00:	687a      	ldr	r2, [r7, #4]
 d02:	5820      	ldr	r0, [r4, r0]
 d04:	ea89 0902 	eor.w	r9, r9, r2
 d08:	f3cc 2207 	ubfx	r2, ip, #8, #8
 d0c:	ea4f 6e15 	mov.w	lr, r5, lsr #24
 d10:	f853 2022 	ldr.w	r2, [r3, r2, lsl #2]
 d14:	f402 427f 	and.w	r2, r2, #65280	@ 0xff00
 d18:	ea89 0902 	eor.w	r9, r9, r2
 d1c:	f3c6 4207 	ubfx	r2, r6, #16, #8
 d20:	f502 7240 	add.w	r2, r2, #768	@ 0x300
 d24:	f50e 7e00 	add.w	lr, lr, #512	@ 0x200
 d28:	f853 2022 	ldr.w	r2, [r3, r2, lsl #2]
 d2c:	f853 e02e 	ldr.w	lr, [r3, lr, lsl #2]
 d30:	f402 027f 	and.w	r2, r2, #16711680	@ 0xff0000
 d34:	f00e 4e7f 	and.w	lr, lr, #4278190080	@ 0xff000000
 d38:	ea42 020e 	orr.w	r2, r2, lr
 d3c:	ea89 0902 	eor.w	r9, r9, r2
 d40:	b2ea      	uxtb	r2, r5
 d42:	f502 7280 	add.w	r2, r2, #256	@ 0x100
 d46:	ea4f 6e16 	mov.w	lr, r6, lsr #24
 d4a:	f813 a022 	ldrb.w	sl, [r3, r2, lsl #2]
 d4e:	68ba      	ldr	r2, [r7, #8]
 d50:	68ff      	ldr	r7, [r7, #12]
 d52:	ea8a 0a02 	eor.w	sl, sl, r2
 d56:	f3c1 2207 	ubfx	r2, r1, #8, #8
 d5a:	f50e 7e00 	add.w	lr, lr, #512	@ 0x200
 d5e:	f853 2022 	ldr.w	r2, [r3, r2, lsl #2]
 d62:	f853 e02e 	ldr.w	lr, [r3, lr, lsl #2]
 d66:	f402 427f 	and.w	r2, r2, #65280	@ 0xff00
 d6a:	ea8a 0a02 	eor.w	sl, sl, r2
 d6e:	f3cc 4207 	ubfx	r2, ip, #16, #8
 d72:	f502 7240 	add.w	r2, r2, #768	@ 0x300
 d76:	f00e 4e7f 	and.w	lr, lr, #4278190080	@ 0xff000000
 d7a:	f853 2022 	ldr.w	r2, [r3, r2, lsl #2]
 d7e:	f402 027f 	and.w	r2, r2, #16711680	@ 0xff0000
 d82:	ea42 020e 	orr.w	r2, r2, lr
 d86:	ea8a 0a02 	eor.w	sl, sl, r2
 d8a:	b2f2      	uxtb	r2, r6
 d8c:	f502 7280 	add.w	r2, r2, #256	@ 0x100
 d90:	ea4f 6e1c 	mov.w	lr, ip, lsr #24
 d94:	f813 2022 	ldrb.w	r2, [r3, r2, lsl #2]
 d98:	407a      	eors	r2, r7
 d9a:	f3c5 2707 	ubfx	r7, r5, #8, #8
 d9e:	f50e 7e00 	add.w	lr, lr, #512	@ 0x200
 da2:	f853 7027 	ldr.w	r7, [r3, r7, lsl #2]
 da6:	f853 e02e 	ldr.w	lr, [r3, lr, lsl #2]
 daa:	f407 477f 	and.w	r7, r7, #65280	@ 0xff00
 dae:	407a      	eors	r2, r7
 db0:	f3c1 4707 	ubfx	r7, r1, #16, #8
 db4:	f507 7740 	add.w	r7, r7, #768	@ 0x300
 db8:	fa5f fc8c 	uxtb.w	ip, ip
 dbc:	f853 7027 	ldr.w	r7, [r3, r7, lsl #2]
 dc0:	f00e 4e7f 	and.w	lr, lr, #4278190080	@ 0xff000000
 dc4:	f50c 7c80 	add.w	ip, ip, #256	@ 0x100
 dc8:	f407 077f 	and.w	r7, r7, #16711680	@ 0xff0000
 dcc:	f3c6 2607 	ubfx	r6, r6, #8, #8
 dd0:	ea47 070e 	orr.w	r7, r7, lr
 dd4:	f853 4026 	ldr.w	r4, [r3, r6, lsl #2]
 dd8:	407a      	eors	r2, r7
 dda:	f3c5 4507 	ubfx	r5, r5, #16, #8
 dde:	f813 702c 	ldrb.w	r7, [r3, ip, lsl #2]
 de2:	0e09      	lsrs	r1, r1, #24
 de4:	f501 7100 	add.w	r1, r1, #512	@ 0x200
 de8:	f505 7540 	add.w	r5, r5, #768	@ 0x300
 dec:	f404 447f 	and.w	r4, r4, #65280	@ 0xff00
 df0:	4078      	eors	r0, r7
 df2:	4060      	eors	r0, r4
 df4:	f853 4025 	ldr.w	r4, [r3, r5, lsl #2]
 df8:	f853 3021 	ldr.w	r3, [r3, r1, lsl #2]
 dfc:	f404 047f 	and.w	r4, r4, #16711680	@ 0xff0000
 e00:	f003 437f 	and.w	r3, r3, #4278190080	@ 0xff000000
 e04:	4323      	orrs	r3, r4
 e06:	4058      	eors	r0, r3
 e08:	f7ff fffe 	bl	0 <wc_AesEncrypt>
 e0c:	9000      	str	r0, [sp, #0]
 e0e:	4648      	mov	r0, r9
 e10:	f7ff fffe 	bl	0 <wc_AesEncrypt>
 e14:	9001      	str	r0, [sp, #4]
 e16:	4650      	mov	r0, sl
 e18:	f7ff fffe 	bl	0 <wc_AesEncrypt>
 e1c:	9002      	str	r0, [sp, #8]
 e1e:	4610      	mov	r0, r2
 e20:	f7ff fffe 	bl	0 <wc_AesEncrypt>
 e24:	2204      	movs	r2, #4
 e26:	9003      	str	r0, [sp, #12]
 e28:	4669      	mov	r1, sp
 e2a:	4640      	mov	r0, r8
 e2c:	f7ff fffe 	bl	0 <memcpy>
 e30:	2204      	movs	r2, #4
 e32:	eb0d 0102 	add.w	r1, sp, r2
 e36:	eb08 0002 	add.w	r0, r8, r2
 e3a:	f7ff fffe 	bl	0 <memcpy>
 e3e:	2204      	movs	r2, #4
 e40:	a902      	add	r1, sp, #8
 e42:	f108 0008 	add.w	r0, r8, #8
 e46:	f7ff fffe 	bl	0 <memcpy>
 e4a:	2204      	movs	r2, #4
 e4c:	a903      	add	r1, sp, #12
 e4e:	f108 000c 	add.w	r0, r8, #12
 e52:	f7ff fffe 	bl	0 <memcpy>
 e56:	2000      	movs	r0, #0
 e58:	b004      	add	sp, #16
 e5a:	e8bd 87f0 	ldmia.w	sp!, {r4, r5, r6, r7, r8, r9, sl, pc}
 e5e:	f06f 00ac 	mvn.w	r0, #172	@ 0xac
 e62:	e7f9      	b.n	e58 <wc_AesEncrypt+0xe58>
 e64:	f06f 00e1 	mvn.w	r0, #225	@ 0xe1
 e68:	e7f6      	b.n	e58 <wc_AesEncrypt+0xe58>
 e6a:	bf00      	nop

Disassembly of section .text.GMULT:

00000000 <GMULT>:
   0:	e92d 41f0 	stmdb	sp!, {r4, r5, r6, r7, r8, lr}
   4:	b088      	sub	sp, #32
   6:	460c      	mov	r4, r1
   8:	4606      	mov	r6, r0
   a:	2210      	movs	r2, #16
   c:	2100      	movs	r1, #0
   e:	4668      	mov	r0, sp
  10:	f7ff fffe 	bl	0 <memset>
  14:	2210      	movs	r2, #16
  16:	4631      	mov	r1, r6
  18:	eb0d 0002 	add.w	r0, sp, r2
  1c:	f7ff fffe 	bl	0 <memcpy>
  20:	1e67      	subs	r7, r4, #1
  22:	340f      	adds	r4, #15
  24:	f817 5f01 	ldrb.w	r5, [r7, #1]!
  28:	f04f 0808 	mov.w	r8, #8
  2c:	062b      	lsls	r3, r5, #24
  2e:	d505      	bpl.n	3c <GMULT+0x3c>
  30:	2210      	movs	r2, #16
  32:	eb0d 0102 	add.w	r1, sp, r2
  36:	4668      	mov	r0, sp
  38:	f7ff fffe 	bl	0 <GMULT>
  3c:	f89d 301f 	ldrb.w	r3, [sp, #31]
  40:	f003 0301 	and.w	r3, r3, #1
  44:	eba3 1343 	sub.w	r3, r3, r3, lsl #5
  48:	2100      	movs	r1, #0
  4a:	b2db      	uxtb	r3, r3
  4c:	a804      	add	r0, sp, #16
  4e:	460a      	mov	r2, r1
  50:	f890 e000 	ldrb.w	lr, [r0]
  54:	468c      	mov	ip, r1
  56:	3201      	adds	r2, #1
  58:	ea4f 11ce 	mov.w	r1, lr, lsl #7
  5c:	ea4c 0c5e 	orr.w	ip, ip, lr, lsr #1
  60:	2a10      	cmp	r2, #16
  62:	f800 cb01 	strb.w	ip, [r0], #1
  66:	b2c9      	uxtb	r1, r1
  68:	d1f2      	bne.n	50 <GMULT+0x50>
  6a:	f89d 1010 	ldrb.w	r1, [sp, #16]
  6e:	006d      	lsls	r5, r5, #1
  70:	404b      	eors	r3, r1
  72:	f1b8 0801 	subs.w	r8, r8, #1
  76:	f88d 3010 	strb.w	r3, [sp, #16]
  7a:	b2ed      	uxtb	r5, r5
  7c:	d1d6      	bne.n	2c <GMULT+0x2c>
  7e:	42bc      	cmp	r4, r7
  80:	d1d0      	bne.n	24 <GMULT+0x24>
  82:	4669      	mov	r1, sp
  84:	4630      	mov	r0, r6
  86:	f7ff fffe 	bl	0 <memcpy>
  8a:	b008      	add	sp, #32
  8c:	e8bd 81f0 	ldmia.w	sp!, {r4, r5, r6, r7, r8, pc}

Disassembly of section .text.wc_AesSetIV:

00000000 <wc_AesSetIV>:
   0:	b508      	push	{r3, lr}
   2:	b148      	cbz	r0, 18 <wc_AesSetIV+0x18>
   4:	30f8      	adds	r0, #248	@ 0xf8
   6:	2210      	movs	r2, #16
   8:	b119      	cbz	r1, 12 <wc_AesSetIV+0x12>
   a:	f7ff fffe 	bl	0 <memcpy>
   e:	2000      	movs	r0, #0
  10:	bd08      	pop	{r3, pc}
  12:	f7ff fffe 	bl	0 <memset>
  16:	e7fa      	b.n	e <wc_AesSetIV+0xe>
  18:	f06f 00ac 	mvn.w	r0, #172	@ 0xac
  1c:	e7f8      	b.n	10 <wc_AesSetIV+0x10>

Disassembly of section .text.wc_AesSetKey:

00000000 <wc_AesSetKey>:
   0:	e92d 47f3 	stmdb	sp!, {r0, r1, r4, r5, r6, r7, r8, r9, sl, lr}
   4:	f8dd 8028 	ldr.w	r8, [sp, #40]	@ 0x28
   8:	460d      	mov	r5, r1
   a:	4691      	mov	r9, r2
   c:	469a      	mov	sl, r3
   e:	4606      	mov	r6, r0
  10:	2800      	cmp	r0, #0
  12:	f000 8222 	beq.w	45a <wc_AesSetKey+0x45a>
  16:	2af0      	cmp	r2, #240	@ 0xf0
  18:	f200 821f 	bhi.w	45a <wc_AesSetKey+0x45a>
  1c:	3a10      	subs	r2, #16
  1e:	2a10      	cmp	r2, #16
  20:	f200 821b 	bhi.w	45a <wc_AesSetKey+0x45a>
  24:	4bb1      	ldr	r3, [pc, #708]	@ (2ec <wc_AesSetKey+0x2ec>)
  26:	40d3      	lsrs	r3, r2
  28:	07db      	lsls	r3, r3, #31
  2a:	f140 8216 	bpl.w	45a <wc_AesSetKey+0x45a>
  2e:	ea4f 0399 	mov.w	r3, r9, lsr #2
  32:	3306      	adds	r3, #6
  34:	f8c0 90f4 	str.w	r9, [r0, #244]	@ 0xf4
  38:	f8c0 30f0 	str.w	r3, [r0, #240]	@ 0xf0
  3c:	4651      	mov	r1, sl
  3e:	f7ff fffe 	bl	0 <wc_AesSetKey>
  42:	2800      	cmp	r0, #0
  44:	f040 820b 	bne.w	45e <wc_AesSetKey+0x45e>
  48:	4629      	mov	r1, r5
  4a:	464a      	mov	r2, r9
  4c:	4630      	mov	r0, r6
  4e:	f7ff fffe 	bl	0 <memcpy>
  52:	464a      	mov	r2, r9
  54:	4631      	mov	r1, r6
  56:	4630      	mov	r0, r6
  58:	f7ff fffe 	bl	0 <wc_AesSetKey>
  5c:	4629      	mov	r1, r5
  5e:	464a      	mov	r2, r9
  60:	4630      	mov	r0, r6
  62:	f7ff fffe 	bl	0 <memcpy>
  66:	464a      	mov	r2, r9
  68:	4631      	mov	r1, r6
  6a:	4630      	mov	r0, r6
  6c:	f7ff fffe 	bl	0 <wc_AesSetKey>
  70:	f1b9 0f18 	cmp.w	r9, #24
  74:	4d9e      	ldr	r5, [pc, #632]	@ (2f0 <wc_AesSetKey+0x2f0>)
  76:	4634      	mov	r4, r6
  78:	d071      	beq.n	15e <wc_AesSetKey+0x15e>
  7a:	f1b9 0f20 	cmp.w	r9, #32
  7e:	f040 80b0 	bne.w	1e2 <wc_AesSetKey+0x1e2>
  82:	4b9c      	ldr	r3, [pc, #624]	@ (2f4 <wc_AesSetKey+0x2f4>)
  84:	f106 00c0 	add.w	r0, r6, #192	@ 0xc0
  88:	69e2      	ldr	r2, [r4, #28]
  8a:	f853 eb04 	ldr.w	lr, [r3], #4
  8e:	6867      	ldr	r7, [r4, #4]
  90:	b2d1      	uxtb	r1, r2
  92:	4284      	cmp	r4, r0
  94:	f855 1021 	ldr.w	r1, [r5, r1, lsl #2]
  98:	f401 4c7f 	and.w	ip, r1, #65280	@ 0xff00
  9c:	6821      	ldr	r1, [r4, #0]
  9e:	ea8e 0101 	eor.w	r1, lr, r1
  a2:	ea8c 0c01 	eor.w	ip, ip, r1
  a6:	ea4f 6112 	mov.w	r1, r2, lsr #24
  aa:	f501 7180 	add.w	r1, r1, #256	@ 0x100
  ae:	f815 1021 	ldrb.w	r1, [r5, r1, lsl #2]
  b2:	ea8c 0c01 	eor.w	ip, ip, r1
  b6:	f3c2 4107 	ubfx	r1, r2, #16, #8
  ba:	f501 7100 	add.w	r1, r1, #512	@ 0x200
  be:	f855 1021 	ldr.w	r1, [r5, r1, lsl #2]
  c2:	f001 417f 	and.w	r1, r1, #4278190080	@ 0xff000000
  c6:	ea8c 0c01 	eor.w	ip, ip, r1
  ca:	f3c2 2107 	ubfx	r1, r2, #8, #8
  ce:	f501 7140 	add.w	r1, r1, #768	@ 0x300
  d2:	f855 1021 	ldr.w	r1, [r5, r1, lsl #2]
  d6:	f401 017f 	and.w	r1, r1, #16711680	@ 0xff0000
  da:	ea8c 0101 	eor.w	r1, ip, r1
  de:	6221      	str	r1, [r4, #32]
  e0:	ea81 0107 	eor.w	r1, r1, r7
  e4:	68a7      	ldr	r7, [r4, #8]
  e6:	6261      	str	r1, [r4, #36]	@ 0x24
  e8:	ea81 0107 	eor.w	r1, r1, r7
  ec:	68e7      	ldr	r7, [r4, #12]
  ee:	62a1      	str	r1, [r4, #40]	@ 0x28
  f0:	ea81 0c07 	eor.w	ip, r1, r7
  f4:	f8c4 c02c 	str.w	ip, [r4, #44]	@ 0x2c
  f8:	f000 80aa 	beq.w	250 <wc_AesSetKey+0x250>
  fc:	f3cc 4107 	ubfx	r1, ip, #16, #8
 100:	f3cc 2e07 	ubfx	lr, ip, #8, #8
 104:	f501 7140 	add.w	r1, r1, #768	@ 0x300
 108:	f855 e02e 	ldr.w	lr, [r5, lr, lsl #2]
 10c:	f855 1021 	ldr.w	r1, [r5, r1, lsl #2]
 110:	6967      	ldr	r7, [r4, #20]
 112:	f401 017f 	and.w	r1, r1, #16711680	@ 0xff0000
 116:	f40e 4e7f 	and.w	lr, lr, #65280	@ 0xff00
 11a:	ea41 0e0e 	orr.w	lr, r1, lr
 11e:	6921      	ldr	r1, [r4, #16]
 120:	ea8e 0101 	eor.w	r1, lr, r1
 124:	ea4f 6e1c 	mov.w	lr, ip, lsr #24
 128:	f50e 7e00 	add.w	lr, lr, #512	@ 0x200
 12c:	3420      	adds	r4, #32
 12e:	f855 902e 	ldr.w	r9, [r5, lr, lsl #2]
 132:	fa5f fe8c 	uxtb.w	lr, ip
 136:	f50e 7e80 	add.w	lr, lr, #256	@ 0x100
 13a:	f009 497f 	and.w	r9, r9, #4278190080	@ 0xff000000
 13e:	f815 c02e 	ldrb.w	ip, [r5, lr, lsl #2]
 142:	ea49 0c0c 	orr.w	ip, r9, ip
 146:	ea81 010c 	eor.w	r1, r1, ip
 14a:	6121      	str	r1, [r4, #16]
 14c:	4079      	eors	r1, r7
 14e:	f854 7c08 	ldr.w	r7, [r4, #-8]
 152:	6161      	str	r1, [r4, #20]
 154:	4079      	eors	r1, r7
 156:	404a      	eors	r2, r1
 158:	61a1      	str	r1, [r4, #24]
 15a:	61e2      	str	r2, [r4, #28]
 15c:	e794      	b.n	88 <wc_AesSetKey+0x88>
 15e:	4965      	ldr	r1, [pc, #404]	@ (2f4 <wc_AesSetKey+0x2f4>)
 160:	f106 0ca8 	add.w	ip, r6, #168	@ 0xa8
 164:	6962      	ldr	r2, [r4, #20]
 166:	f851 eb04 	ldr.w	lr, [r1], #4
 16a:	b2d3      	uxtb	r3, r2
 16c:	4564      	cmp	r4, ip
 16e:	f855 0023 	ldr.w	r0, [r5, r3, lsl #2]
 172:	6823      	ldr	r3, [r4, #0]
 174:	f400 407f 	and.w	r0, r0, #65280	@ 0xff00
 178:	ea8e 0303 	eor.w	r3, lr, r3
 17c:	ea83 0300 	eor.w	r3, r3, r0
 180:	ea4f 6012 	mov.w	r0, r2, lsr #24
 184:	f500 7080 	add.w	r0, r0, #256	@ 0x100
 188:	f815 0020 	ldrb.w	r0, [r5, r0, lsl #2]
 18c:	ea83 0300 	eor.w	r3, r3, r0
 190:	f3c2 4007 	ubfx	r0, r2, #16, #8
 194:	f500 7000 	add.w	r0, r0, #512	@ 0x200
 198:	f855 0020 	ldr.w	r0, [r5, r0, lsl #2]
 19c:	f000 407f 	and.w	r0, r0, #4278190080	@ 0xff000000
 1a0:	ea83 0300 	eor.w	r3, r3, r0
 1a4:	f3c2 2007 	ubfx	r0, r2, #8, #8
 1a8:	f500 7040 	add.w	r0, r0, #768	@ 0x300
 1ac:	f855 0020 	ldr.w	r0, [r5, r0, lsl #2]
 1b0:	f400 007f 	and.w	r0, r0, #16711680	@ 0xff0000
 1b4:	ea83 0300 	eor.w	r3, r3, r0
 1b8:	6860      	ldr	r0, [r4, #4]
 1ba:	61a3      	str	r3, [r4, #24]
 1bc:	ea83 0300 	eor.w	r3, r3, r0
 1c0:	68a0      	ldr	r0, [r4, #8]
 1c2:	61e3      	str	r3, [r4, #28]
 1c4:	ea83 0300 	eor.w	r3, r3, r0
 1c8:	68e0      	ldr	r0, [r4, #12]
 1ca:	6223      	str	r3, [r4, #32]
 1cc:	ea83 0300 	eor.w	r3, r3, r0
 1d0:	6263      	str	r3, [r4, #36]	@ 0x24
 1d2:	d03d      	beq.n	250 <wc_AesSetKey+0x250>
 1d4:	6920      	ldr	r0, [r4, #16]
 1d6:	4043      	eors	r3, r0
 1d8:	405a      	eors	r2, r3
 1da:	62a3      	str	r3, [r4, #40]	@ 0x28
 1dc:	62e2      	str	r2, [r4, #44]	@ 0x2c
 1de:	3418      	adds	r4, #24
 1e0:	e7c0      	b.n	164 <wc_AesSetKey+0x164>
 1e2:	4844      	ldr	r0, [pc, #272]	@ (2f4 <wc_AesSetKey+0x2f4>)
 1e4:	f106 0c90 	add.w	ip, r6, #144	@ 0x90
 1e8:	68e2      	ldr	r2, [r4, #12]
 1ea:	f850 1b04 	ldr.w	r1, [r0], #4
 1ee:	6827      	ldr	r7, [r4, #0]
 1f0:	b2d3      	uxtb	r3, r2
 1f2:	4079      	eors	r1, r7
 1f4:	f855 3023 	ldr.w	r3, [r5, r3, lsl #2]
 1f8:	f403 437f 	and.w	r3, r3, #65280	@ 0xff00
 1fc:	404b      	eors	r3, r1
 1fe:	0e11      	lsrs	r1, r2, #24
 200:	f501 7180 	add.w	r1, r1, #256	@ 0x100
 204:	4564      	cmp	r4, ip
 206:	f815 1021 	ldrb.w	r1, [r5, r1, lsl #2]
 20a:	ea83 0301 	eor.w	r3, r3, r1
 20e:	f3c2 4107 	ubfx	r1, r2, #16, #8
 212:	f501 7100 	add.w	r1, r1, #512	@ 0x200
 216:	f855 1021 	ldr.w	r1, [r5, r1, lsl #2]
 21a:	f001 417f 	and.w	r1, r1, #4278190080	@ 0xff000000
 21e:	ea83 0301 	eor.w	r3, r3, r1
 222:	f3c2 2107 	ubfx	r1, r2, #8, #8
 226:	f501 7140 	add.w	r1, r1, #768	@ 0x300
 22a:	f855 1021 	ldr.w	r1, [r5, r1, lsl #2]
 22e:	f401 017f 	and.w	r1, r1, #16711680	@ 0xff0000
 232:	ea83 0301 	eor.w	r3, r3, r1
 236:	6861      	ldr	r1, [r4, #4]
 238:	6123      	str	r3, [r4, #16]
 23a:	ea83 0301 	eor.w	r3, r3, r1
 23e:	68a1      	ldr	r1, [r4, #8]
 240:	6163      	str	r3, [r4, #20]
 242:	ea83 0301 	eor.w	r3, r3, r1
 246:	ea82 0203 	eor.w	r2, r2, r3
 24a:	61a3      	str	r3, [r4, #24]
 24c:	61e2      	str	r2, [r4, #28]
 24e:	d131      	bne.n	2b4 <wc_AesSetKey+0x2b4>
 250:	2100      	movs	r1, #0
 252:	f1b8 0f01 	cmp.w	r8, #1
 256:	f88d 1004 	strb.w	r1, [sp, #4]
 25a:	f88d 1005 	strb.w	r1, [sp, #5]
 25e:	f88d 1006 	strb.w	r1, [sp, #6]
 262:	f88d 1007 	strb.w	r1, [sp, #7]
 266:	d11e      	bne.n	2a6 <wc_AesSetKey+0x2a6>
 268:	f8d6 30f0 	ldr.w	r3, [r6, #240]	@ 0xf0
 26c:	4632      	mov	r2, r6
 26e:	ea4f 0c83 	mov.w	ip, r3, lsl #2
 272:	4630      	mov	r0, r6
 274:	eb06 1303 	add.w	r3, r6, r3, lsl #4
 278:	ebac 0401 	sub.w	r4, ip, r1
 27c:	42a1      	cmp	r1, r4
 27e:	f100 0010 	add.w	r0, r0, #16
 282:	f1a3 0310 	sub.w	r3, r3, #16
 286:	d317      	bcc.n	2b8 <wc_AesSetKey+0x2b8>
 288:	2300      	movs	r3, #0
 28a:	f88d 3004 	strb.w	r3, [sp, #4]
 28e:	f88d 3005 	strb.w	r3, [sp, #5]
 292:	f88d 3006 	strb.w	r3, [sp, #6]
 296:	f88d 3007 	strb.w	r3, [sp, #7]
 29a:	4b17      	ldr	r3, [pc, #92]	@ (2f8 <wc_AesSetKey+0x2f8>)
 29c:	2001      	movs	r0, #1
 29e:	f8d6 10f0 	ldr.w	r1, [r6, #240]	@ 0xf0
 2a2:	4288      	cmp	r0, r1
 2a4:	d32a      	bcc.n	2fc <wc_AesSetKey+0x2fc>
 2a6:	4651      	mov	r1, sl
 2a8:	4630      	mov	r0, r6
 2aa:	b002      	add	sp, #8
 2ac:	e8bd 47f0 	ldmia.w	sp!, {r4, r5, r6, r7, r8, r9, sl, lr}
 2b0:	f7ff bffe 	b.w	0 <wc_AesSetKey>
 2b4:	3410      	adds	r4, #16
 2b6:	e797      	b.n	1e8 <wc_AesSetKey+0x1e8>
 2b8:	f850 4c10 	ldr.w	r4, [r0, #-16]
 2bc:	691f      	ldr	r7, [r3, #16]
 2be:	f840 7c10 	str.w	r7, [r0, #-16]
 2c2:	611c      	str	r4, [r3, #16]
 2c4:	f850 4c0c 	ldr.w	r4, [r0, #-12]
 2c8:	695f      	ldr	r7, [r3, #20]
 2ca:	f840 7c0c 	str.w	r7, [r0, #-12]
 2ce:	615c      	str	r4, [r3, #20]
 2d0:	f850 4c08 	ldr.w	r4, [r0, #-8]
 2d4:	699f      	ldr	r7, [r3, #24]
 2d6:	f840 7c08 	str.w	r7, [r0, #-8]
 2da:	619c      	str	r4, [r3, #24]
 2dc:	f850 4c04 	ldr.w	r4, [r0, #-4]
 2e0:	69df      	ldr	r7, [r3, #28]
 2e2:	f840 7c04 	str.w	r7, [r0, #-4]
 2e6:	3104      	adds	r1, #4
 2e8:	61dc      	str	r4, [r3, #28]
 2ea:	e7c5      	b.n	278 <wc_AesSetKey+0x278>
 2ec:	00010101 	.word	0x00010101
	...
 2fc:	6911      	ldr	r1, [r2, #16]
 2fe:	0e0c      	lsrs	r4, r1, #24
 300:	f504 7480 	add.w	r4, r4, #256	@ 0x100
 304:	3001      	adds	r0, #1
 306:	f815 e024 	ldrb.w	lr, [r5, r4, lsl #2]
 30a:	b2cc      	uxtb	r4, r1
 30c:	f504 7480 	add.w	r4, r4, #256	@ 0x100
 310:	3210      	adds	r2, #16
 312:	f815 c024 	ldrb.w	ip, [r5, r4, lsl #2]
 316:	f853 402e 	ldr.w	r4, [r3, lr, lsl #2]
 31a:	f50c 7c40 	add.w	ip, ip, #768	@ 0x300
 31e:	f853 c02c 	ldr.w	ip, [r3, ip, lsl #2]
 322:	ea84 040c 	eor.w	r4, r4, ip
 326:	f3c1 4c07 	ubfx	ip, r1, #16, #8
 32a:	f50c 7c80 	add.w	ip, ip, #256	@ 0x100
 32e:	f3c1 2107 	ubfx	r1, r1, #8, #8
 332:	f501 7180 	add.w	r1, r1, #256	@ 0x100
 336:	f815 c02c 	ldrb.w	ip, [r5, ip, lsl #2]
 33a:	f815 1021 	ldrb.w	r1, [r5, r1, lsl #2]
 33e:	f50c 7c80 	add.w	ip, ip, #256	@ 0x100
 342:	f501 7100 	add.w	r1, r1, #512	@ 0x200
 346:	f853 c02c 	ldr.w	ip, [r3, ip, lsl #2]
 34a:	f853 1021 	ldr.w	r1, [r3, r1, lsl #2]
 34e:	ea84 040c 	eor.w	r4, r4, ip
 352:	4061      	eors	r1, r4
 354:	6011      	str	r1, [r2, #0]
 356:	6851      	ldr	r1, [r2, #4]
 358:	0e0c      	lsrs	r4, r1, #24
 35a:	f504 7480 	add.w	r4, r4, #256	@ 0x100
 35e:	f815 e024 	ldrb.w	lr, [r5, r4, lsl #2]
 362:	b2cc      	uxtb	r4, r1
 364:	f504 7480 	add.w	r4, r4, #256	@ 0x100
 368:	f815 c024 	ldrb.w	ip, [r5, r4, lsl #2]
 36c:	f853 402e 	ldr.w	r4, [r3, lr, lsl #2]
 370:	f50c 7c40 	add.w	ip, ip, #768	@ 0x300
 374:	f853 c02c 	ldr.w	ip, [r3, ip, lsl #2]
 378:	ea84 040c 	eor.w	r4, r4, ip
 37c:	f3c1 4c07 	ubfx	ip, r1, #16, #8
 380:	f50c 7c80 	add.w	ip, ip, #256	@ 0x100
 384:	f3c1 2107 	ubfx	r1, r1, #8, #8
 388:	f501 7180 	add.w	r1, r1, #256	@ 0x100
 38c:	f815 c02c 	ldrb.w	ip, [r5, ip, lsl #2]
 390:	f815 1021 	ldrb.w	r1, [r5, r1, lsl #2]
 394:	f50c 7c80 	add.w	ip, ip, #256	@ 0x100
 398:	f501 7100 	add.w	r1, r1, #512	@ 0x200
 39c:	f853 c02c 	ldr.w	ip, [r3, ip, lsl #2]
 3a0:	f853 1021 	ldr.w	r1, [r3, r1, lsl #2]
 3a4:	ea84 040c 	eor.w	r4, r4, ip
 3a8:	4061      	eors	r1, r4
 3aa:	6051      	str	r1, [r2, #4]
 3ac:	6891      	ldr	r1, [r2, #8]
 3ae:	0e0c      	lsrs	r4, r1, #24
 3b0:	f504 7480 	add.w	r4, r4, #256	@ 0x100
 3b4:	f815 e024 	ldrb.w	lr, [r5, r4, lsl #2]
 3b8:	b2cc      	uxtb	r4, r1
 3ba:	f504 7480 	add.w	r4, r4, #256	@ 0x100
 3be:	f815 c024 	ldrb.w	ip, [r5, r4, lsl #2]
 3c2:	f853 402e 	ldr.w	r4, [r3, lr, lsl #2]
 3c6:	f50c 7c40 	add.w	ip, ip, #768	@ 0x300
 3ca:	f853 c02c 	ldr.w	ip, [r3, ip, lsl #2]
 3ce:	ea84 040c 	eor.w	r4, r4, ip
 3d2:	f3c1 4c07 	ubfx	ip, r1, #16, #8
 3d6:	f50c 7c80 	add.w	ip, ip, #256	@ 0x100
 3da:	f3c1 2107 	ubfx	r1, r1, #8, #8
 3de:	f501 7180 	add.w	r1, r1, #256	@ 0x100
 3e2:	f815 c02c 	ldrb.w	ip, [r5, ip, lsl #2]
 3e6:	f815 1021 	ldrb.w	r1, [r5, r1, lsl #2]
 3ea:	f50c 7c80 	add.w	ip, ip, #256	@ 0x100
 3ee:	f501 7100 	add.w	r1, r1, #512	@ 0x200
 3f2:	f853 c02c 	ldr.w	ip, [r3, ip, lsl #2]
 3f6:	f853 1021 	ldr.w	r1, [r3, r1, lsl #2]
 3fa:	ea84 040c 	eor.w	r4, r4, ip
 3fe:	4061      	eors	r1, r4
 400:	6091      	str	r1, [r2, #8]
 402:	68d1      	ldr	r1, [r2, #12]
 404:	0e0c      	lsrs	r4, r1, #24
 406:	f504 7480 	add.w	r4, r4, #256	@ 0x100
 40a:	f815 e024 	ldrb.w	lr, [r5, r4, lsl #2]
 40e:	b2cc      	uxtb	r4, r1
 410:	f504 7480 	add.w	r4, r4, #256	@ 0x100
 414:	f815 c024 	ldrb.w	ip, [r5, r4, lsl #2]
 418:	f853 402e 	ldr.w	r4, [r3, lr, lsl #2]
 41c:	f50c 7c40 	add.w	ip, ip, #768	@ 0x300
 420:	f853 c02c 	ldr.w	ip, [r3, ip, lsl #2]
 424:	ea84 040c 	eor.w	r4, r4, ip
 428:	f3c1 4c07 	ubfx	ip, r1, #16, #8
 42c:	f50c 7c80 	add.w	ip, ip, #256	@ 0x100
 430:	f3c1 2107 	ubfx	r1, r1, #8, #8
 434:	f501 7180 	add.w	r1, r1, #256	@ 0x100
 438:	f815 c02c 	ldrb.w	ip, [r5, ip, lsl #2]
 43c:	f815 1021 	ldrb.w	r1, [r5, r1, lsl #2]
 440:	f50c 7c80 	add.w	ip, ip, #256	@ 0x100
 444:	f501 7100 	add.w	r1, r1, #512	@ 0x200
 448:	f853 c02c 	ldr.w	ip, [r3, ip, lsl #2]
 44c:	f853 1021 	ldr.w	r1, [r3, r1, lsl #2]
 450:	ea84 040c 	eor.w	r4, r4, ip
 454:	4061      	eors	r1, r4
 456:	60d1      	str	r1, [r2, #12]
 458:	e721      	b.n	29e <wc_AesSetKey+0x29e>
 45a:	f06f 00ac 	mvn.w	r0, #172	@ 0xac
 45e:	b002      	add	sp, #8
 460:	e8bd 87f0 	ldmia.w	sp!, {r4, r5, r6, r7, r8, r9, sl, pc}

Disassembly of section .text.wc_AesCbcEncrypt:

00000000 <wc_AesCbcEncrypt>:
   0:	e92d 41f0 	stmdb	sp!, {r4, r5, r6, r7, r8, lr}
   4:	460d      	mov	r5, r1
   6:	4616      	mov	r6, r2
   8:	4607      	mov	r7, r0
   a:	b300      	cbz	r0, 4e <wc_AesCbcEncrypt+0x4e>
   c:	b1f9      	cbz	r1, 4e <wc_AesCbcEncrypt+0x4e>
   e:	b1f2      	cbz	r2, 4e <wc_AesCbcEncrypt+0x4e>
  10:	b913      	cbnz	r3, 18 <wc_AesCbcEncrypt+0x18>
  12:	2000      	movs	r0, #0
  14:	e8bd 81f0 	ldmia.w	sp!, {r4, r5, r6, r7, r8, pc}
  18:	f023 030f 	bic.w	r3, r3, #15
  1c:	18cc      	adds	r4, r1, r3
  1e:	f100 08f8 	add.w	r8, r0, #248	@ 0xf8
  22:	42a5      	cmp	r5, r4
  24:	d0f5      	beq.n	12 <wc_AesCbcEncrypt+0x12>
  26:	2210      	movs	r2, #16
  28:	4631      	mov	r1, r6
  2a:	4640      	mov	r0, r8
  2c:	f7ff fffe 	bl	0 <wc_AesCbcEncrypt>
  30:	4642      	mov	r2, r8
  32:	4641      	mov	r1, r8
  34:	4638      	mov	r0, r7
  36:	f7ff fffe 	bl	0 <wc_AesCbcEncrypt>
  3a:	2800      	cmp	r0, #0
  3c:	d1ea      	bne.n	14 <wc_AesCbcEncrypt+0x14>
  3e:	4628      	mov	r0, r5
  40:	2210      	movs	r2, #16
  42:	4641      	mov	r1, r8
  44:	f7ff fffe 	bl	0 <memcpy>
  48:	3510      	adds	r5, #16
  4a:	3610      	adds	r6, #16
  4c:	e7e9      	b.n	22 <wc_AesCbcEncrypt+0x22>
  4e:	f06f 00ac 	mvn.w	r0, #172	@ 0xac
  52:	e7df      	b.n	14 <wc_AesCbcEncrypt+0x14>

Disassembly of section .text.wc_AesCbcDecrypt:

00000000 <wc_AesCbcDecrypt>:
   0:	e92d 4ff0 	stmdb	sp!, {r4, r5, r6, r7, r8, r9, sl, fp, lr}
   4:	4689      	mov	r9, r1
   6:	b089      	sub	sp, #36	@ 0x24
   8:	4693      	mov	fp, r2
   a:	4605      	mov	r5, r0
   c:	2800      	cmp	r0, #0
   e:	f000 8722 	beq.w	e56 <wc_AesCbcDecrypt+0xe56>
  12:	2900      	cmp	r1, #0
  14:	f000 871f 	beq.w	e56 <wc_AesCbcDecrypt+0xe56>
  18:	2a00      	cmp	r2, #0
  1a:	f000 871c 	beq.w	e56 <wc_AesCbcDecrypt+0xe56>
  1e:	b91b      	cbnz	r3, 28 <wc_AesCbcDecrypt+0x28>
  20:	2000      	movs	r0, #0
  22:	b009      	add	sp, #36	@ 0x24
  24:	e8bd 8ff0 	ldmia.w	sp!, {r4, r5, r6, r7, r8, r9, sl, fp, pc}
  28:	091a      	lsrs	r2, r3, #4
  2a:	071b      	lsls	r3, r3, #28
  2c:	f040 8713 	bne.w	e56 <wc_AesCbcDecrypt+0xe56>
  30:	eb01 1302 	add.w	r3, r1, r2, lsl #4
  34:	9303      	str	r3, [sp, #12]
  36:	4c03      	ldr	r4, [pc, #12]	@ (44 <wc_AesCbcDecrypt+0x44>)
  38:	4f03      	ldr	r7, [pc, #12]	@ (48 <wc_AesCbcDecrypt+0x48>)
  3a:	f500 7384 	add.w	r3, r0, #264	@ 0x108
  3e:	9301      	str	r3, [sp, #4]
  40:	e004      	b.n	4c <wc_AesCbcDecrypt+0x4c>
  42:	bf00      	nop
	...
  4c:	9b03      	ldr	r3, [sp, #12]
  4e:	4599      	cmp	r9, r3
  50:	d0e6      	beq.n	20 <wc_AesCbcDecrypt+0x20>
  52:	9801      	ldr	r0, [sp, #4]
  54:	2210      	movs	r2, #16
  56:	4659      	mov	r1, fp
  58:	f7ff fffe 	bl	0 <memcpy>
  5c:	f8d5 30f0 	ldr.w	r3, [r5, #240]	@ 0xf0
  60:	ea4f 0a53 	mov.w	sl, r3, lsr #1
  64:	f10a 33ff 	add.w	r3, sl, #4294967295	@ 0xffffffff
  68:	2b06      	cmp	r3, #6
  6a:	f200 86f8 	bhi.w	e5e <wc_AesCbcDecrypt+0xe5e>
  6e:	2204      	movs	r2, #4
  70:	4659      	mov	r1, fp
  72:	a804      	add	r0, sp, #16
  74:	f7ff fffe 	bl	0 <memcpy>
  78:	2204      	movs	r2, #4
  7a:	eb0b 0102 	add.w	r1, fp, r2
  7e:	a805      	add	r0, sp, #20
  80:	f7ff fffe 	bl	0 <memcpy>
  84:	2204      	movs	r2, #4
  86:	f10b 0108 	add.w	r1, fp, #8
  8a:	a806      	add	r0, sp, #24
  8c:	f7ff fffe 	bl	0 <memcpy>
  90:	2204      	movs	r2, #4
  92:	f10b 010c 	add.w	r1, fp, #12
  96:	a807      	add	r0, sp, #28
  98:	f7ff fffe 	bl	0 <memcpy>
  9c:	9804      	ldr	r0, [sp, #16]
  9e:	f7ff fffe 	bl	0 <wc_AesCbcDecrypt>
  a2:	4601      	mov	r1, r0
  a4:	9805      	ldr	r0, [sp, #20]
  a6:	f7ff fffe 	bl	0 <wc_AesCbcDecrypt>
  aa:	4606      	mov	r6, r0
  ac:	9806      	ldr	r0, [sp, #24]
  ae:	f7ff fffe 	bl	0 <wc_AesCbcDecrypt>
  b2:	4602      	mov	r2, r0
  b4:	9807      	ldr	r0, [sp, #28]
  b6:	f7ff fffe 	bl	0 <wc_AesCbcDecrypt>
  ba:	682b      	ldr	r3, [r5, #0]
  bc:	ea81 0e03 	eor.w	lr, r1, r3
  c0:	686b      	ldr	r3, [r5, #4]
  c2:	405e      	eors	r6, r3
  c4:	68ab      	ldr	r3, [r5, #8]
  c6:	ea82 0c03 	eor.w	ip, r2, r3
  ca:	68eb      	ldr	r3, [r5, #12]
  cc:	b2f2      	uxtb	r2, r6
  ce:	4058      	eors	r0, r3
  d0:	f502 7240 	add.w	r2, r2, #768	@ 0x300
  d4:	ea4f 631e 	mov.w	r3, lr, lsr #24
  d8:	f854 2022 	ldr.w	r2, [r4, r2, lsl #2]
  dc:	f854 3023 	ldr.w	r3, [r4, r3, lsl #2]
  e0:	ea83 0802 	eor.w	r8, r3, r2
  e4:	692b      	ldr	r3, [r5, #16]
  e6:	ea88 0803 	eor.w	r8, r8, r3
  ea:	f3c0 4307 	ubfx	r3, r0, #16, #8
  ee:	f503 7380 	add.w	r3, r3, #256	@ 0x100
  f2:	fa5f f28c 	uxtb.w	r2, ip
  f6:	f854 3023 	ldr.w	r3, [r4, r3, lsl #2]
  fa:	ea88 0803 	eor.w	r8, r8, r3
  fe:	f3cc 2307 	ubfx	r3, ip, #8, #8
 102:	f503 7300 	add.w	r3, r3, #512	@ 0x200
 106:	f502 7240 	add.w	r2, r2, #768	@ 0x300
 10a:	f854 3023 	ldr.w	r3, [r4, r3, lsl #2]
 10e:	f854 2022 	ldr.w	r2, [r4, r2, lsl #2]
 112:	ea88 0803 	eor.w	r8, r8, r3
 116:	0e33      	lsrs	r3, r6, #24
 118:	b2c1      	uxtb	r1, r0
 11a:	f854 3023 	ldr.w	r3, [r4, r3, lsl #2]
 11e:	405a      	eors	r2, r3
 120:	696b      	ldr	r3, [r5, #20]
 122:	405a      	eors	r2, r3
 124:	f3ce 4307 	ubfx	r3, lr, #16, #8
 128:	f503 7380 	add.w	r3, r3, #256	@ 0x100
 12c:	f501 7140 	add.w	r1, r1, #768	@ 0x300
 130:	f854 3023 	ldr.w	r3, [r4, r3, lsl #2]
 134:	f854 1021 	ldr.w	r1, [r4, r1, lsl #2]
 138:	405a      	eors	r2, r3
 13a:	f3c0 2307 	ubfx	r3, r0, #8, #8
 13e:	f503 7300 	add.w	r3, r3, #512	@ 0x200
 142:	0e00      	lsrs	r0, r0, #24
 144:	f854 3023 	ldr.w	r3, [r4, r3, lsl #2]
 148:	405a      	eors	r2, r3
 14a:	ea4f 631c 	mov.w	r3, ip, lsr #24
 14e:	f3cc 4c07 	ubfx	ip, ip, #16, #8
 152:	f854 3023 	ldr.w	r3, [r4, r3, lsl #2]
 156:	4059      	eors	r1, r3
 158:	69ab      	ldr	r3, [r5, #24]
 15a:	4059      	eors	r1, r3
 15c:	f3c6 4307 	ubfx	r3, r6, #16, #8
 160:	f503 7380 	add.w	r3, r3, #256	@ 0x100
 164:	f50c 7c80 	add.w	ip, ip, #256	@ 0x100
 168:	f854 3023 	ldr.w	r3, [r4, r3, lsl #2]
 16c:	4059      	eors	r1, r3
 16e:	f3ce 2307 	ubfx	r3, lr, #8, #8
 172:	f503 7300 	add.w	r3, r3, #512	@ 0x200
 176:	fa5f fe8e 	uxtb.w	lr, lr
 17a:	f854 3023 	ldr.w	r3, [r4, r3, lsl #2]
 17e:	f50e 7e40 	add.w	lr, lr, #768	@ 0x300
 182:	4059      	eors	r1, r3
 184:	f854 3020 	ldr.w	r3, [r4, r0, lsl #2]
 188:	f854 002e 	ldr.w	r0, [r4, lr, lsl #2]
 18c:	4058      	eors	r0, r3
 18e:	69eb      	ldr	r3, [r5, #28]
 190:	f3c6 2607 	ubfx	r6, r6, #8, #8
 194:	4058      	eors	r0, r3
 196:	f506 7600 	add.w	r6, r6, #512	@ 0x200
 19a:	f854 302c 	ldr.w	r3, [r4, ip, lsl #2]
 19e:	4058      	eors	r0, r3
 1a0:	f854 3026 	ldr.w	r3, [r4, r6, lsl #2]
 1a4:	b2d6      	uxtb	r6, r2
 1a6:	4058      	eors	r0, r3
 1a8:	f506 7640 	add.w	r6, r6, #768	@ 0x300
 1ac:	ea4f 6318 	mov.w	r3, r8, lsr #24
 1b0:	ea4f 6c11 	mov.w	ip, r1, lsr #24
 1b4:	f854 3023 	ldr.w	r3, [r4, r3, lsl #2]
 1b8:	f854 6026 	ldr.w	r6, [r4, r6, lsl #2]
 1bc:	f854 c02c 	ldr.w	ip, [r4, ip, lsl #2]
 1c0:	ea83 0e06 	eor.w	lr, r3, r6
 1c4:	6a2b      	ldr	r3, [r5, #32]
 1c6:	ea8e 0e03 	eor.w	lr, lr, r3
 1ca:	f3c0 4307 	ubfx	r3, r0, #16, #8
 1ce:	f503 7380 	add.w	r3, r3, #256	@ 0x100
 1d2:	b2ce      	uxtb	r6, r1
 1d4:	f854 3023 	ldr.w	r3, [r4, r3, lsl #2]
 1d8:	ea8e 0e03 	eor.w	lr, lr, r3
 1dc:	f3c1 2307 	ubfx	r3, r1, #8, #8
 1e0:	f503 7300 	add.w	r3, r3, #512	@ 0x200
 1e4:	f506 7640 	add.w	r6, r6, #768	@ 0x300
 1e8:	f854 3023 	ldr.w	r3, [r4, r3, lsl #2]
 1ec:	f854 6026 	ldr.w	r6, [r4, r6, lsl #2]
 1f0:	ea8e 0e03 	eor.w	lr, lr, r3
 1f4:	0e13      	lsrs	r3, r2, #24
 1f6:	f3c1 4107 	ubfx	r1, r1, #16, #8
 1fa:	f854 3023 	ldr.w	r3, [r4, r3, lsl #2]
 1fe:	405e      	eors	r6, r3
 200:	6a6b      	ldr	r3, [r5, #36]	@ 0x24
 202:	405e      	eors	r6, r3
 204:	f3c8 4307 	ubfx	r3, r8, #16, #8
 208:	f503 7380 	add.w	r3, r3, #256	@ 0x100
 20c:	f501 7180 	add.w	r1, r1, #256	@ 0x100
 210:	f854 3023 	ldr.w	r3, [r4, r3, lsl #2]
 214:	405e      	eors	r6, r3
 216:	f3c0 2307 	ubfx	r3, r0, #8, #8
 21a:	f503 7300 	add.w	r3, r3, #512	@ 0x200
 21e:	f1ba 0f05 	cmp.w	sl, #5
 222:	f854 3023 	ldr.w	r3, [r4, r3, lsl #2]
 226:	ea86 0603 	eor.w	r6, r6, r3
 22a:	b2c3      	uxtb	r3, r0
 22c:	f503 7340 	add.w	r3, r3, #768	@ 0x300
 230:	ea4f 6010 	mov.w	r0, r0, lsr #24
 234:	f854 3023 	ldr.w	r3, [r4, r3, lsl #2]
 238:	ea8c 0c03 	eor.w	ip, ip, r3
 23c:	6aab      	ldr	r3, [r5, #40]	@ 0x28
 23e:	ea8c 0c03 	eor.w	ip, ip, r3
 242:	f3c2 4307 	ubfx	r3, r2, #16, #8
 246:	f503 7380 	add.w	r3, r3, #256	@ 0x100
 24a:	f3c2 2207 	ubfx	r2, r2, #8, #8
 24e:	f854 3023 	ldr.w	r3, [r4, r3, lsl #2]
 252:	ea8c 0c03 	eor.w	ip, ip, r3
 256:	f3c8 2307 	ubfx	r3, r8, #8, #8
 25a:	f503 7300 	add.w	r3, r3, #512	@ 0x200
 25e:	fa5f f888 	uxtb.w	r8, r8
 262:	f854 3023 	ldr.w	r3, [r4, r3, lsl #2]
 266:	f508 7840 	add.w	r8, r8, #768	@ 0x300
 26a:	ea8c 0c03 	eor.w	ip, ip, r3
 26e:	f854 3020 	ldr.w	r3, [r4, r0, lsl #2]
 272:	f854 0028 	ldr.w	r0, [r4, r8, lsl #2]
 276:	ea83 0800 	eor.w	r8, r3, r0
 27a:	6aeb      	ldr	r3, [r5, #44]	@ 0x2c
 27c:	f502 7200 	add.w	r2, r2, #512	@ 0x200
 280:	ea88 0803 	eor.w	r8, r8, r3
 284:	f854 3021 	ldr.w	r3, [r4, r1, lsl #2]
 288:	ea88 0803 	eor.w	r8, r8, r3
 28c:	f854 3022 	ldr.w	r3, [r4, r2, lsl #2]
 290:	ea88 0803 	eor.w	r8, r8, r3
 294:	b2f3      	uxtb	r3, r6
 296:	ea4f 621e 	mov.w	r2, lr, lsr #24
 29a:	f503 7340 	add.w	r3, r3, #768	@ 0x300
 29e:	f854 0022 	ldr.w	r0, [r4, r2, lsl #2]
 2a2:	f854 3023 	ldr.w	r3, [r4, r3, lsl #2]
 2a6:	ea80 0003 	eor.w	r0, r0, r3
 2aa:	6b2b      	ldr	r3, [r5, #48]	@ 0x30
 2ac:	ea80 0003 	eor.w	r0, r0, r3
 2b0:	f3c8 4307 	ubfx	r3, r8, #16, #8
 2b4:	f503 7380 	add.w	r3, r3, #256	@ 0x100
 2b8:	fa5f f28c 	uxtb.w	r2, ip
 2bc:	f854 3023 	ldr.w	r3, [r4, r3, lsl #2]
 2c0:	ea80 0003 	eor.w	r0, r0, r3
 2c4:	f3cc 2307 	ubfx	r3, ip, #8, #8
 2c8:	f503 7300 	add.w	r3, r3, #512	@ 0x200
 2cc:	f502 7240 	add.w	r2, r2, #768	@ 0x300
 2d0:	f854 3023 	ldr.w	r3, [r4, r3, lsl #2]
 2d4:	f854 2022 	ldr.w	r2, [r4, r2, lsl #2]
 2d8:	ea80 0003 	eor.w	r0, r0, r3
 2dc:	ea4f 6316 	mov.w	r3, r6, lsr #24
 2e0:	fa5f f188 	uxtb.w	r1, r8
 2e4:	f854 3023 	ldr.w	r3, [r4, r3, lsl #2]
 2e8:	ea82 0203 	eor.w	r2, r2, r3
 2ec:	6b6b      	ldr	r3, [r5, #52]	@ 0x34
 2ee:	ea82 0203 	eor.w	r2, r2, r3
 2f2:	f3ce 4307 	ubfx	r3, lr, #16, #8
 2f6:	f503 7380 	add.w	r3, r3, #256	@ 0x100
 2fa:	f501 7140 	add.w	r1, r1, #768	@ 0x300
 2fe:	f854 3023 	ldr.w	r3, [r4, r3, lsl #2]
 302:	f854 1021 	ldr.w	r1, [r4, r1, lsl #2]
 306:	ea82 0203 	eor.w	r2, r2, r3
 30a:	f3c8 2307 	ubfx	r3, r8, #8, #8
 30e:	f503 7300 	add.w	r3, r3, #512	@ 0x200
 312:	ea4f 6818 	mov.w	r8, r8, lsr #24
 316:	f854 3023 	ldr.w	r3, [r4, r3, lsl #2]
 31a:	ea82 0203 	eor.w	r2, r2, r3
 31e:	ea4f 631c 	mov.w	r3, ip, lsr #24
 322:	f3cc 4c07 	ubfx	ip, ip, #16, #8
 326:	f854 3023 	ldr.w	r3, [r4, r3, lsl #2]
 32a:	ea81 0103 	eor.w	r1, r1, r3
 32e:	6bab      	ldr	r3, [r5, #56]	@ 0x38
 330:	ea81 0103 	eor.w	r1, r1, r3
 334:	f3c6 4307 	ubfx	r3, r6, #16, #8
 338:	f503 7380 	add.w	r3, r3, #256	@ 0x100
 33c:	f50c 7c80 	add.w	ip, ip, #256	@ 0x100
 340:	f854 3023 	ldr.w	r3, [r4, r3, lsl #2]
 344:	ea81 0103 	eor.w	r1, r1, r3
 348:	f3ce 2307 	ubfx	r3, lr, #8, #8
 34c:	f503 7300 	add.w	r3, r3, #512	@ 0x200
 350:	fa5f fe8e 	uxtb.w	lr, lr
 354:	f854 3023 	ldr.w	r3, [r4, r3, lsl #2]
 358:	f50e 7e40 	add.w	lr, lr, #768	@ 0x300
 35c:	ea81 0103 	eor.w	r1, r1, r3
 360:	f854 3028 	ldr.w	r3, [r4, r8, lsl #2]
 364:	f854 802e 	ldr.w	r8, [r4, lr, lsl #2]
 368:	ea83 0808 	eor.w	r8, r3, r8
 36c:	6beb      	ldr	r3, [r5, #60]	@ 0x3c
 36e:	f3c6 2607 	ubfx	r6, r6, #8, #8
 372:	ea88 0803 	eor.w	r8, r8, r3
 376:	f506 7600 	add.w	r6, r6, #512	@ 0x200
 37a:	f854 302c 	ldr.w	r3, [r4, ip, lsl #2]
 37e:	ea88 0803 	eor.w	r8, r8, r3
 382:	f854 3026 	ldr.w	r3, [r4, r6, lsl #2]
 386:	b2d6      	uxtb	r6, r2
 388:	ea88 0803 	eor.w	r8, r8, r3
 38c:	f506 7640 	add.w	r6, r6, #768	@ 0x300
 390:	ea4f 6310 	mov.w	r3, r0, lsr #24
 394:	f854 6026 	ldr.w	r6, [r4, r6, lsl #2]
 398:	f854 3023 	ldr.w	r3, [r4, r3, lsl #2]
 39c:	ea83 0e06 	eor.w	lr, r3, r6
 3a0:	6c2b      	ldr	r3, [r5, #64]	@ 0x40
 3a2:	ea8e 0e03 	eor.w	lr, lr, r3
 3a6:	f3c8 4307 	ubfx	r3, r8, #16, #8
 3aa:	f503 7380 	add.w	r3, r3, #256	@ 0x100
 3ae:	b2ce      	uxtb	r6, r1
 3b0:	f854 3023 	ldr.w	r3, [r4, r3, lsl #2]
 3b4:	ea8e 0e03 	eor.w	lr, lr, r3
 3b8:	f3c1 2307 	ubfx	r3, r1, #8, #8
 3bc:	f503 7300 	add.w	r3, r3, #512	@ 0x200
 3c0:	f506 7640 	add.w	r6, r6, #768	@ 0x300
 3c4:	f854 3023 	ldr.w	r3, [r4, r3, lsl #2]
 3c8:	f854 6026 	ldr.w	r6, [r4, r6, lsl #2]
 3cc:	ea8e 0e03 	eor.w	lr, lr, r3
 3d0:	ea4f 6312 	mov.w	r3, r2, lsr #24
 3d4:	ea4f 6c11 	mov.w	ip, r1, lsr #24
 3d8:	f854 3023 	ldr.w	r3, [r4, r3, lsl #2]
 3dc:	f854 c02c 	ldr.w	ip, [r4, ip, lsl #2]
 3e0:	ea86 0603 	eor.w	r6, r6, r3
 3e4:	6c6b      	ldr	r3, [r5, #68]	@ 0x44
 3e6:	ea86 0603 	eor.w	r6, r6, r3
 3ea:	f3c0 4307 	ubfx	r3, r0, #16, #8
 3ee:	f503 7380 	add.w	r3, r3, #256	@ 0x100
 3f2:	f3c1 4107 	ubfx	r1, r1, #16, #8
 3f6:	f854 3023 	ldr.w	r3, [r4, r3, lsl #2]
 3fa:	ea86 0603 	eor.w	r6, r6, r3
 3fe:	f3c8 2307 	ubfx	r3, r8, #8, #8
 402:	f503 7300 	add.w	r3, r3, #512	@ 0x200
 406:	f501 7180 	add.w	r1, r1, #256	@ 0x100
 40a:	f854 3023 	ldr.w	r3, [r4, r3, lsl #2]
 40e:	ea86 0603 	eor.w	r6, r6, r3
 412:	fa5f f388 	uxtb.w	r3, r8
 416:	f503 7340 	add.w	r3, r3, #768	@ 0x300
 41a:	ea4f 6818 	mov.w	r8, r8, lsr #24
 41e:	f854 3023 	ldr.w	r3, [r4, r3, lsl #2]
 422:	ea8c 0c03 	eor.w	ip, ip, r3
 426:	6cab      	ldr	r3, [r5, #72]	@ 0x48
 428:	ea8c 0c03 	eor.w	ip, ip, r3
 42c:	f3c2 4307 	ubfx	r3, r2, #16, #8
 430:	f503 7380 	add.w	r3, r3, #256	@ 0x100
 434:	f3c2 2207 	ubfx	r2, r2, #8, #8
 438:	f854 3023 	ldr.w	r3, [r4, r3, lsl #2]
 43c:	ea8c 0c03 	eor.w	ip, ip, r3
 440:	f3c0 2307 	ubfx	r3, r0, #8, #8
 444:	f503 7300 	add.w	r3, r3, #512	@ 0x200
 448:	b2c0      	uxtb	r0, r0
 44a:	f854 3023 	ldr.w	r3, [r4, r3, lsl #2]
 44e:	f500 7040 	add.w	r0, r0, #768	@ 0x300
 452:	ea8c 0c03 	eor.w	ip, ip, r3
 456:	f854 0020 	ldr.w	r0, [r4, r0, lsl #2]
 45a:	f854 3028 	ldr.w	r3, [r4, r8, lsl #2]
 45e:	ea83 0800 	eor.w	r8, r3, r0
 462:	6ceb      	ldr	r3, [r5, #76]	@ 0x4c
 464:	f502 7200 	add.w	r2, r2, #512	@ 0x200
 468:	ea88 0803 	eor.w	r8, r8, r3
 46c:	f854 3021 	ldr.w	r3, [r4, r1, lsl #2]
 470:	ea88 0803 	eor.w	r8, r8, r3
 474:	f854 3022 	ldr.w	r3, [r4, r2, lsl #2]
 478:	ea88 0803 	eor.w	r8, r8, r3
 47c:	b2f3      	uxtb	r3, r6
 47e:	ea4f 621e 	mov.w	r2, lr, lsr #24
 482:	f503 7340 	add.w	r3, r3, #768	@ 0x300
 486:	f854 0022 	ldr.w	r0, [r4, r2, lsl #2]
 48a:	f854 3023 	ldr.w	r3, [r4, r3, lsl #2]
 48e:	ea80 0003 	eor.w	r0, r0, r3
 492:	6d2b      	ldr	r3, [r5, #80]	@ 0x50
 494:	ea80 0003 	eor.w	r0, r0, r3
 498:	f3c8 4307 	ubfx	r3, r8, #16, #8
 49c:	f503 7380 	add.w	r3, r3, #256	@ 0x100
 4a0:	fa5f f28c 	uxtb.w	r2, ip
 4a4:	f854 3023 	ldr.w	r3, [r4, r3, lsl #2]
 4a8:	ea80 0003 	eor.w	r0, r0, r3
 4ac:	f3cc 2307 	ubfx	r3, ip, #8, #8
 4b0:	f503 7300 	add.w	r3, r3, #512	@ 0x200
 4b4:	f502 7240 	add.w	r2, r2, #768	@ 0x300
 4b8:	f854 3023 	ldr.w	r3, [r4, r3, lsl #2]
 4bc:	f854 2022 	ldr.w	r2, [r4, r2, lsl #2]
 4c0:	ea80 0003 	eor.w	r0, r0, r3
 4c4:	ea4f 6316 	mov.w	r3, r6, lsr #24
 4c8:	fa5f f188 	uxtb.w	r1, r8
 4cc:	f854 3023 	ldr.w	r3, [r4, r3, lsl #2]
 4d0:	ea82 0203 	eor.w	r2, r2, r3
 4d4:	6d6b      	ldr	r3, [r5, #84]	@ 0x54
 4d6:	ea82 0203 	eor.w	r2, r2, r3
 4da:	f3ce 4307 	ubfx	r3, lr, #16, #8
 4de:	f503 7380 	add.w	r3, r3, #256	@ 0x100
 4e2:	f501 7140 	add.w	r1, r1, #768	@ 0x300
 4e6:	f854 3023 	ldr.w	r3, [r4, r3, lsl #2]
 4ea:	f854 1021 	ldr.w	r1, [r4, r1, lsl #2]
 4ee:	ea82 0203 	eor.w	r2, r2, r3
 4f2:	f3c8 2307 	ubfx	r3, r8, #8, #8
 4f6:	f503 7300 	add.w	r3, r3, #512	@ 0x200
 4fa:	ea4f 6818 	mov.w	r8, r8, lsr #24
 4fe:	f854 3023 	ldr.w	r3, [r4, r3, lsl #2]
 502:	ea82 0203 	eor.w	r2, r2, r3
 506:	ea4f 631c 	mov.w	r3, ip, lsr #24
 50a:	f3cc 4c07 	ubfx	ip, ip, #16, #8
 50e:	f854 3023 	ldr.w	r3, [r4, r3, lsl #2]
 512:	ea81 0103 	eor.w	r1, r1, r3
 516:	6dab      	ldr	r3, [r5, #88]	@ 0x58
 518:	ea81 0103 	eor.w	r1, r1, r3
 51c:	f3c6 4307 	ubfx	r3, r6, #16, #8
 520:	f503 7380 	add.w	r3, r3, #256	@ 0x100
 524:	f50c 7c80 	add.w	ip, ip, #256	@ 0x100
 528:	f854 3023 	ldr.w	r3, [r4, r3, lsl #2]
 52c:	ea81 0103 	eor.w	r1, r1, r3
 530:	f3ce 2307 	ubfx	r3, lr, #8, #8
 534:	f503 7300 	add.w	r3, r3, #512	@ 0x200
 538:	fa5f fe8e 	uxtb.w	lr, lr
 53c:	f854 3023 	ldr.w	r3, [r4, r3, lsl #2]
 540:	f50e 7e40 	add.w	lr, lr, #768	@ 0x300
 544:	ea81 0103 	eor.w	r1, r1, r3
 548:	f854 3028 	ldr.w	r3, [r4, r8, lsl #2]
 54c:	f854 802e 	ldr.w	r8, [r4, lr, lsl #2]
 550:	ea83 0808 	eor.w	r8, r3, r8
 554:	6deb      	ldr	r3, [r5, #92]	@ 0x5c
 556:	f3c6 2607 	ubfx	r6, r6, #8, #8
 55a:	ea88 0803 	eor.w	r8, r8, r3
 55e:	f506 7600 	add.w	r6, r6, #512	@ 0x200
 562:	f854 302c 	ldr.w	r3, [r4, ip, lsl #2]
 566:	ea88 0803 	eor.w	r8, r8, r3
 56a:	f854 3026 	ldr.w	r3, [r4, r6, lsl #2]
 56e:	b2d6      	uxtb	r6, r2
 570:	ea88 0803 	eor.w	r8, r8, r3
 574:	f506 7640 	add.w	r6, r6, #768	@ 0x300
 578:	ea4f 6310 	mov.w	r3, r0, lsr #24
 57c:	f854 6026 	ldr.w	r6, [r4, r6, lsl #2]
 580:	f854 3023 	ldr.w	r3, [r4, r3, lsl #2]
 584:	ea83 0e06 	eor.w	lr, r3, r6
 588:	6e2b      	ldr	r3, [r5, #96]	@ 0x60
 58a:	ea8e 0e03 	eor.w	lr, lr, r3
 58e:	f3c8 4307 	ubfx	r3, r8, #16, #8
 592:	f503 7380 	add.w	r3, r3, #256	@ 0x100
 596:	b2ce      	uxtb	r6, r1
 598:	f854 3023 	ldr.w	r3, [r4, r3, lsl #2]
 59c:	ea8e 0e03 	eor.w	lr, lr, r3
 5a0:	f3c1 2307 	ubfx	r3, r1, #8, #8
 5a4:	f503 7300 	add.w	r3, r3, #512	@ 0x200
 5a8:	f506 7640 	add.w	r6, r6, #768	@ 0x300
 5ac:	f854 3023 	ldr.w	r3, [r4, r3, lsl #2]
 5b0:	f854 6026 	ldr.w	r6, [r4, r6, lsl #2]
 5b4:	ea8e 0e03 	eor.w	lr, lr, r3
 5b8:	ea4f 6312 	mov.w	r3, r2, lsr #24
 5bc:	ea4f 6c11 	mov.w	ip, r1, lsr #24
 5c0:	f854 3023 	ldr.w	r3, [r4, r3, lsl #2]
 5c4:	f854 c02c 	ldr.w	ip, [r4, ip, lsl #2]
 5c8:	ea86 0603 	eor.w	r6, r6, r3
 5cc:	6e6b      	ldr	r3, [r5, #100]	@ 0x64
 5ce:	ea86 0603 	eor.w	r6, r6, r3
 5d2:	f3c0 4307 	ubfx	r3, r0, #16, #8
 5d6:	f503 7380 	add.w	r3, r3, #256	@ 0x100
 5da:	f3c1 4107 	ubfx	r1, r1, #16, #8
 5de:	f854 3023 	ldr.w	r3, [r4, r3, lsl #2]
 5e2:	ea86 0603 	eor.w	r6, r6, r3
 5e6:	f3c8 2307 	ubfx	r3, r8, #8, #8
 5ea:	f503 7300 	add.w	r3, r3, #512	@ 0x200
 5ee:	f501 7180 	add.w	r1, r1, #256	@ 0x100
 5f2:	f854 3023 	ldr.w	r3, [r4, r3, lsl #2]
 5f6:	ea86 0603 	eor.w	r6, r6, r3
 5fa:	fa5f f388 	uxtb.w	r3, r8
 5fe:	f503 7340 	add.w	r3, r3, #768	@ 0x300
 602:	ea4f 6818 	mov.w	r8, r8, lsr #24
 606:	f854 3023 	ldr.w	r3, [r4, r3, lsl #2]
 60a:	ea8c 0c03 	eor.w	ip, ip, r3
 60e:	6eab      	ldr	r3, [r5, #104]	@ 0x68
 610:	ea8c 0c03 	eor.w	ip, ip, r3
 614:	f3c2 4307 	ubfx	r3, r2, #16, #8
 618:	f503 7380 	add.w	r3, r3, #256	@ 0x100
 61c:	f3c2 2207 	ubfx	r2, r2, #8, #8
 620:	f854 3023 	ldr.w	r3, [r4, r3, lsl #2]
 624:	ea8c 0c03 	eor.w	ip, ip, r3
 628:	f3c0 2307 	ubfx	r3, r0, #8, #8
 62c:	f503 7300 	add.w	r3, r3, #512	@ 0x200
 630:	b2c0      	uxtb	r0, r0
 632:	f854 3023 	ldr.w	r3, [r4, r3, lsl #2]
 636:	f500 7040 	add.w	r0, r0, #768	@ 0x300
 63a:	ea8c 0c03 	eor.w	ip, ip, r3
 63e:	f854 3028 	ldr.w	r3, [r4, r8, lsl #2]
 642:	f854 0020 	ldr.w	r0, [r4, r0, lsl #2]
 646:	ea83 0800 	eor.w	r8, r3, r0
 64a:	6eeb      	ldr	r3, [r5, #108]	@ 0x6c
 64c:	f502 7200 	add.w	r2, r2, #512	@ 0x200
 650:	ea88 0803 	eor.w	r8, r8, r3
 654:	f854 3021 	ldr.w	r3, [r4, r1, lsl #2]
 658:	ea88 0803 	eor.w	r8, r8, r3
 65c:	f854 3022 	ldr.w	r3, [r4, r2, lsl #2]
 660:	ea88 0803 	eor.w	r8, r8, r3
 664:	b2f3      	uxtb	r3, r6
 666:	ea4f 621e 	mov.w	r2, lr, lsr #24
 66a:	f503 7340 	add.w	r3, r3, #768	@ 0x300
 66e:	f854 0022 	ldr.w	r0, [r4, r2, lsl #2]
 672:	f854 3023 	ldr.w	r3, [r4, r3, lsl #2]
 676:	ea80 0003 	eor.w	r0, r0, r3
 67a:	6f2b      	ldr	r3, [r5, #112]	@ 0x70
 67c:	ea80 0003 	eor.w	r0, r0, r3
 680:	f3c8 4307 	ubfx	r3, r8, #16, #8
 684:	f503 7380 	add.w	r3, r3, #256	@ 0x100
 688:	fa5f f28c 	uxtb.w	r2, ip
 68c:	f854 3023 	ldr.w	r3, [r4, r3, lsl #2]
 690:	ea80 0003 	eor.w	r0, r0, r3
 694:	f3cc 2307 	ubfx	r3, ip, #8, #8
 698:	f503 7300 	add.w	r3, r3, #512	@ 0x200
 69c:	f502 7240 	add.w	r2, r2, #768	@ 0x300
 6a0:	f854 3023 	ldr.w	r3, [r4, r3, lsl #2]
 6a4:	f854 2022 	ldr.w	r2, [r4, r2, lsl #2]
 6a8:	ea80 0003 	eor.w	r0, r0, r3
 6ac:	ea4f 6316 	mov.w	r3, r6, lsr #24
 6b0:	fa5f f188 	uxtb.w	r1, r8
 6b4:	f854 3023 	ldr.w	r3, [r4, r3, lsl #2]
 6b8:	ea82 0203 	eor.w	r2, r2, r3
 6bc:	6f6b      	ldr	r3, [r5, #116]	@ 0x74
 6be:	ea82 0203 	eor.w	r2, r2, r3
 6c2:	f3ce 4307 	ubfx	r3, lr, #16, #8
 6c6:	f503 7380 	add.w	r3, r3, #256	@ 0x100
 6ca:	f501 7140 	add.w	r1, r1, #768	@ 0x300
 6ce:	f854 3023 	ldr.w	r3, [r4, r3, lsl #2]
 6d2:	f854 1021 	ldr.w	r1, [r4, r1, lsl #2]
 6d6:	ea82 0203 	eor.w	r2, r2, r3
 6da:	f3c8 2307 	ubfx	r3, r8, #8, #8
 6de:	f503 7300 	add.w	r3, r3, #512	@ 0x200
 6e2:	ea4f 6818 	mov.w	r8, r8, lsr #24
 6e6:	f854 3023 	ldr.w	r3, [r4, r3, lsl #2]
 6ea:	ea82 0203 	eor.w	r2, r2, r3
 6ee:	ea4f 631c 	mov.w	r3, ip, lsr #24
 6f2:	f3cc 4c07 	ubfx	ip, ip, #16, #8
 6f6:	f854 3023 	ldr.w	r3, [r4, r3, lsl #2]
 6fa:	ea81 0103 	eor.w	r1, r1, r3
 6fe:	6fab      	ldr	r3, [r5, #120]	@ 0x78
 700:	ea81 0103 	eor.w	r1, r1, r3
 704:	f3c6 4307 	ubfx	r3, r6, #16, #8
 708:	f503 7380 	add.w	r3, r3, #256	@ 0x100
 70c:	f50c 7c80 	add.w	ip, ip, #256	@ 0x100
 710:	f854 3023 	ldr.w	r3, [r4, r3, lsl #2]
 714:	ea81 0103 	eor.w	r1, r1, r3
 718:	f3ce 2307 	ubfx	r3, lr, #8, #8
 71c:	f503 7300 	add.w	r3, r3, #512	@ 0x200
 720:	fa5f fe8e 	uxtb.w	lr, lr
 724:	f854 3023 	ldr.w	r3, [r4, r3, lsl #2]
 728:	f50e 7e40 	add.w	lr, lr, #768	@ 0x300
 72c:	ea81 0103 	eor.w	r1, r1, r3
 730:	f854 3028 	ldr.w	r3, [r4, r8, lsl #2]
 734:	f854 802e 	ldr.w	r8, [r4, lr, lsl #2]
 738:	ea83 0808 	eor.w	r8, r3, r8
 73c:	6feb      	ldr	r3, [r5, #124]	@ 0x7c
 73e:	f3c6 2607 	ubfx	r6, r6, #8, #8
 742:	ea88 0803 	eor.w	r8, r8, r3
 746:	f506 7600 	add.w	r6, r6, #512	@ 0x200
 74a:	f854 302c 	ldr.w	r3, [r4, ip, lsl #2]
 74e:	ea88 0803 	eor.w	r8, r8, r3
 752:	f854 3026 	ldr.w	r3, [r4, r6, lsl #2]
 756:	ea88 0803 	eor.w	r8, r8, r3
 75a:	b2d3      	uxtb	r3, r2
 75c:	ea4f 6610 	mov.w	r6, r0, lsr #24
 760:	f503 7340 	add.w	r3, r3, #768	@ 0x300
 764:	f854 6026 	ldr.w	r6, [r4, r6, lsl #2]
 768:	f854 3023 	ldr.w	r3, [r4, r3, lsl #2]
 76c:	ea86 0603 	eor.w	r6, r6, r3
 770:	f8d5 3080 	ldr.w	r3, [r5, #128]	@ 0x80
 774:	ea86 0603 	eor.w	r6, r6, r3
 778:	f3c8 4307 	ubfx	r3, r8, #16, #8
 77c:	f503 7380 	add.w	r3, r3, #256	@ 0x100
 780:	ea4f 6c12 	mov.w	ip, r2, lsr #24
 784:	f854 3023 	ldr.w	r3, [r4, r3, lsl #2]
 788:	f854 c02c 	ldr.w	ip, [r4, ip, lsl #2]
 78c:	ea86 0603 	eor.w	r6, r6, r3
 790:	f3c1 2307 	ubfx	r3, r1, #8, #8
 794:	f503 7300 	add.w	r3, r3, #512	@ 0x200
 798:	ea4f 6e11 	mov.w	lr, r1, lsr #24
 79c:	f854 3023 	ldr.w	r3, [r4, r3, lsl #2]
 7a0:	ea86 0603 	eor.w	r6, r6, r3
 7a4:	b2cb      	uxtb	r3, r1
 7a6:	f503 7340 	add.w	r3, r3, #768	@ 0x300
 7aa:	f3c1 4107 	ubfx	r1, r1, #16, #8
 7ae:	f854 3023 	ldr.w	r3, [r4, r3, lsl #2]
 7b2:	ea8c 0c03 	eor.w	ip, ip, r3
 7b6:	f8d5 3084 	ldr.w	r3, [r5, #132]	@ 0x84
 7ba:	ea8c 0c03 	eor.w	ip, ip, r3
 7be:	f3c0 4307 	ubfx	r3, r0, #16, #8
 7c2:	f503 7380 	add.w	r3, r3, #256	@ 0x100
 7c6:	f501 7180 	add.w	r1, r1, #256	@ 0x100
 7ca:	f854 3023 	ldr.w	r3, [r4, r3, lsl #2]
 7ce:	f854 e02e 	ldr.w	lr, [r4, lr, lsl #2]
 7d2:	ea8c 0c03 	eor.w	ip, ip, r3
 7d6:	f3c8 2307 	ubfx	r3, r8, #8, #8
 7da:	f503 7300 	add.w	r3, r3, #512	@ 0x200
 7de:	f854 3023 	ldr.w	r3, [r4, r3, lsl #2]
 7e2:	ea8c 0c03 	eor.w	ip, ip, r3
 7e6:	fa5f f388 	uxtb.w	r3, r8
 7ea:	f503 7340 	add.w	r3, r3, #768	@ 0x300
 7ee:	ea4f 6818 	mov.w	r8, r8, lsr #24
 7f2:	f854 3023 	ldr.w	r3, [r4, r3, lsl #2]
 7f6:	ea8e 0e03 	eor.w	lr, lr, r3
 7fa:	f8d5 3088 	ldr.w	r3, [r5, #136]	@ 0x88
 7fe:	ea8e 0e03 	eor.w	lr, lr, r3
 802:	f3c2 4307 	ubfx	r3, r2, #16, #8
 806:	f503 7380 	add.w	r3, r3, #256	@ 0x100
 80a:	f3c2 2207 	ubfx	r2, r2, #8, #8
 80e:	f854 3023 	ldr.w	r3, [r4, r3, lsl #2]
 812:	ea8e 0e03 	eor.w	lr, lr, r3
 816:	f3c0 2307 	ubfx	r3, r0, #8, #8
 81a:	f503 7300 	add.w	r3, r3, #512	@ 0x200
 81e:	b2c0      	uxtb	r0, r0
 820:	f854 3023 	ldr.w	r3, [r4, r3, lsl #2]
 824:	f500 7040 	add.w	r0, r0, #768	@ 0x300
 828:	ea8e 0e03 	eor.w	lr, lr, r3
 82c:	f854 0020 	ldr.w	r0, [r4, r0, lsl #2]
 830:	f854 3028 	ldr.w	r3, [r4, r8, lsl #2]
 834:	ea83 0800 	eor.w	r8, r3, r0
 838:	f8d5 308c 	ldr.w	r3, [r5, #140]	@ 0x8c
 83c:	f502 7200 	add.w	r2, r2, #512	@ 0x200
 840:	ea88 0803 	eor.w	r8, r8, r3
 844:	f854 3021 	ldr.w	r3, [r4, r1, lsl #2]
 848:	ea88 0803 	eor.w	r8, r8, r3
 84c:	f854 3022 	ldr.w	r3, [r4, r2, lsl #2]
 850:	ea88 0803 	eor.w	r8, r8, r3
 854:	fa5f f38c 	uxtb.w	r3, ip
 858:	ea4f 6216 	mov.w	r2, r6, lsr #24
 85c:	f503 7340 	add.w	r3, r3, #768	@ 0x300
 860:	f854 1022 	ldr.w	r1, [r4, r2, lsl #2]
 864:	f854 3023 	ldr.w	r3, [r4, r3, lsl #2]
 868:	ea81 0103 	eor.w	r1, r1, r3
 86c:	f8d5 3090 	ldr.w	r3, [r5, #144]	@ 0x90
 870:	ea81 0103 	eor.w	r1, r1, r3
 874:	f3c8 4307 	ubfx	r3, r8, #16, #8
 878:	f503 7380 	add.w	r3, r3, #256	@ 0x100
 87c:	fa5f f28e 	uxtb.w	r2, lr
 880:	f854 3023 	ldr.w	r3, [r4, r3, lsl #2]
 884:	ea81 0103 	eor.w	r1, r1, r3
 888:	f3ce 2307 	ubfx	r3, lr, #8, #8
 88c:	f503 7300 	add.w	r3, r3, #512	@ 0x200
 890:	f502 7240 	add.w	r2, r2, #768	@ 0x300
 894:	f854 3023 	ldr.w	r3, [r4, r3, lsl #2]
 898:	f854 2022 	ldr.w	r2, [r4, r2, lsl #2]
 89c:	ea81 0103 	eor.w	r1, r1, r3
 8a0:	ea4f 631c 	mov.w	r3, ip, lsr #24
 8a4:	ea4f 601e 	mov.w	r0, lr, lsr #24
 8a8:	f854 3023 	ldr.w	r3, [r4, r3, lsl #2]
 8ac:	f854 0020 	ldr.w	r0, [r4, r0, lsl #2]
 8b0:	ea82 0203 	eor.w	r2, r2, r3
 8b4:	f8d5 3094 	ldr.w	r3, [r5, #148]	@ 0x94
 8b8:	ea82 0203 	eor.w	r2, r2, r3
 8bc:	f3c6 4307 	ubfx	r3, r6, #16, #8
 8c0:	f503 7380 	add.w	r3, r3, #256	@ 0x100
 8c4:	f3ce 4e07 	ubfx	lr, lr, #16, #8
 8c8:	f854 3023 	ldr.w	r3, [r4, r3, lsl #2]
 8cc:	ea82 0203 	eor.w	r2, r2, r3
 8d0:	f3c8 2307 	ubfx	r3, r8, #8, #8
 8d4:	f503 7300 	add.w	r3, r3, #512	@ 0x200
 8d8:	f50e 7e80 	add.w	lr, lr, #256	@ 0x100
 8dc:	f854 3023 	ldr.w	r3, [r4, r3, lsl #2]
 8e0:	ea82 0203 	eor.w	r2, r2, r3
 8e4:	fa5f f388 	uxtb.w	r3, r8
 8e8:	f503 7340 	add.w	r3, r3, #768	@ 0x300
 8ec:	ea4f 6818 	mov.w	r8, r8, lsr #24
 8f0:	f854 3023 	ldr.w	r3, [r4, r3, lsl #2]
 8f4:	ea83 0300 	eor.w	r3, r3, r0
 8f8:	f8d5 0098 	ldr.w	r0, [r5, #152]	@ 0x98
 8fc:	ea83 0300 	eor.w	r3, r3, r0
 900:	f3cc 4007 	ubfx	r0, ip, #16, #8
 904:	f500 7080 	add.w	r0, r0, #256	@ 0x100
 908:	f3cc 2c07 	ubfx	ip, ip, #8, #8
 90c:	f854 0020 	ldr.w	r0, [r4, r0, lsl #2]
 910:	ea83 0300 	eor.w	r3, r3, r0
 914:	f3c6 2007 	ubfx	r0, r6, #8, #8
 918:	f500 7000 	add.w	r0, r0, #512	@ 0x200
 91c:	b2f6      	uxtb	r6, r6
 91e:	f854 0020 	ldr.w	r0, [r4, r0, lsl #2]
 922:	f506 7640 	add.w	r6, r6, #768	@ 0x300
 926:	ea83 0300 	eor.w	r3, r3, r0
 92a:	f854 6026 	ldr.w	r6, [r4, r6, lsl #2]
 92e:	f854 0028 	ldr.w	r0, [r4, r8, lsl #2]
 932:	9300      	str	r3, [sp, #0]
 934:	ea86 0600 	eor.w	r6, r6, r0
 938:	f8d5 009c 	ldr.w	r0, [r5, #156]	@ 0x9c
 93c:	f50c 7c00 	add.w	ip, ip, #512	@ 0x200
 940:	ea86 0600 	eor.w	r6, r6, r0
 944:	f854 002e 	ldr.w	r0, [r4, lr, lsl #2]
 948:	ea86 0600 	eor.w	r6, r6, r0
 94c:	f854 002c 	ldr.w	r0, [r4, ip, lsl #2]
 950:	ea86 0600 	eor.w	r6, r6, r0
 954:	f240 81e8 	bls.w	d28 <wc_AesCbcDecrypt+0xd28>
 958:	fa5f fc82 	uxtb.w	ip, r2
 95c:	0e08      	lsrs	r0, r1, #24
 95e:	f50c 7c40 	add.w	ip, ip, #768	@ 0x300
 962:	f854 0020 	ldr.w	r0, [r4, r0, lsl #2]
 966:	f854 802c 	ldr.w	r8, [r4, ip, lsl #2]
 96a:	ea80 0808 	eor.w	r8, r0, r8
 96e:	f8d5 00a0 	ldr.w	r0, [r5, #160]	@ 0xa0
 972:	ea88 0800 	eor.w	r8, r8, r0
 976:	f3c6 4007 	ubfx	r0, r6, #16, #8
 97a:	f500 7080 	add.w	r0, r0, #256	@ 0x100
 97e:	ea4f 6c12 	mov.w	ip, r2, lsr #24
 982:	f854 0020 	ldr.w	r0, [r4, r0, lsl #2]
 986:	f854 c02c 	ldr.w	ip, [r4, ip, lsl #2]
 98a:	ea88 0800 	eor.w	r8, r8, r0
 98e:	f3c3 2007 	ubfx	r0, r3, #8, #8
 992:	f500 7000 	add.w	r0, r0, #512	@ 0x200
 996:	ea4f 6e13 	mov.w	lr, r3, lsr #24
 99a:	f854 0020 	ldr.w	r0, [r4, r0, lsl #2]
 99e:	f854 e02e 	ldr.w	lr, [r4, lr, lsl #2]
 9a2:	ea88 0800 	eor.w	r8, r8, r0
 9a6:	f89d 0000 	ldrb.w	r0, [sp]
 9aa:	f500 7040 	add.w	r0, r0, #768	@ 0x300
 9ae:	f3c3 4307 	ubfx	r3, r3, #16, #8
 9b2:	f854 0020 	ldr.w	r0, [r4, r0, lsl #2]
 9b6:	ea8c 0c00 	eor.w	ip, ip, r0
 9ba:	f8d5 00a4 	ldr.w	r0, [r5, #164]	@ 0xa4
 9be:	ea8c 0c00 	eor.w	ip, ip, r0
 9c2:	f3c1 4007 	ubfx	r0, r1, #16, #8
 9c6:	f500 7080 	add.w	r0, r0, #256	@ 0x100
 9ca:	f503 7380 	add.w	r3, r3, #256	@ 0x100
 9ce:	f854 0020 	ldr.w	r0, [r4, r0, lsl #2]
 9d2:	f854 3023 	ldr.w	r3, [r4, r3, lsl #2]
 9d6:	ea8c 0c00 	eor.w	ip, ip, r0
 9da:	f3c6 2007 	ubfx	r0, r6, #8, #8
 9de:	f500 7000 	add.w	r0, r0, #512	@ 0x200
 9e2:	f1ba 0f06 	cmp.w	sl, #6
 9e6:	f854 0020 	ldr.w	r0, [r4, r0, lsl #2]
 9ea:	ea8c 0c00 	eor.w	ip, ip, r0
 9ee:	b2f0      	uxtb	r0, r6
 9f0:	f500 7040 	add.w	r0, r0, #768	@ 0x300
 9f4:	ea4f 6616 	mov.w	r6, r6, lsr #24
 9f8:	f854 0020 	ldr.w	r0, [r4, r0, lsl #2]
 9fc:	ea8e 0e00 	eor.w	lr, lr, r0
 a00:	f8d5 00a8 	ldr.w	r0, [r5, #168]	@ 0xa8
 a04:	ea8e 0e00 	eor.w	lr, lr, r0
 a08:	f3c2 4007 	ubfx	r0, r2, #16, #8
 a0c:	f500 7080 	add.w	r0, r0, #256	@ 0x100
 a10:	f3c2 2207 	ubfx	r2, r2, #8, #8
 a14:	f854 0020 	ldr.w	r0, [r4, r0, lsl #2]
 a18:	ea8e 0e00 	eor.w	lr, lr, r0
 a1c:	f3c1 2007 	ubfx	r0, r1, #8, #8
 a20:	f500 7000 	add.w	r0, r0, #512	@ 0x200
 a24:	b2c9      	uxtb	r1, r1
 a26:	f854 0020 	ldr.w	r0, [r4, r0, lsl #2]
 a2a:	f501 7140 	add.w	r1, r1, #768	@ 0x300
 a2e:	ea8e 0e00 	eor.w	lr, lr, r0
 a32:	f854 0026 	ldr.w	r0, [r4, r6, lsl #2]
 a36:	f854 6021 	ldr.w	r6, [r4, r1, lsl #2]
 a3a:	f8d5 10ac 	ldr.w	r1, [r5, #172]	@ 0xac
 a3e:	ea86 0600 	eor.w	r6, r6, r0
 a42:	f502 7200 	add.w	r2, r2, #512	@ 0x200
 a46:	ea86 0601 	eor.w	r6, r6, r1
 a4a:	ea86 0603 	eor.w	r6, r6, r3
 a4e:	f854 3022 	ldr.w	r3, [r4, r2, lsl #2]
 a52:	ea86 0603 	eor.w	r6, r6, r3
 a56:	fa5f f38c 	uxtb.w	r3, ip
 a5a:	ea4f 6218 	mov.w	r2, r8, lsr #24
 a5e:	f503 7340 	add.w	r3, r3, #768	@ 0x300
 a62:	f854 1022 	ldr.w	r1, [r4, r2, lsl #2]
 a66:	f854 3023 	ldr.w	r3, [r4, r3, lsl #2]
 a6a:	ea81 0103 	eor.w	r1, r1, r3
 a6e:	f8d5 30b0 	ldr.w	r3, [r5, #176]	@ 0xb0
 a72:	ea81 0103 	eor.w	r1, r1, r3
 a76:	f3c6 4307 	ubfx	r3, r6, #16, #8
 a7a:	f503 7380 	add.w	r3, r3, #256	@ 0x100
 a7e:	fa5f f28e 	uxtb.w	r2, lr
 a82:	f854 3023 	ldr.w	r3, [r4, r3, lsl #2]
 a86:	ea81 0103 	eor.w	r1, r1, r3
 a8a:	f3ce 2307 	ubfx	r3, lr, #8, #8
 a8e:	f503 7300 	add.w	r3, r3, #512	@ 0x200
 a92:	f502 7240 	add.w	r2, r2, #768	@ 0x300
 a96:	f854 3023 	ldr.w	r3, [r4, r3, lsl #2]
 a9a:	f854 2022 	ldr.w	r2, [r4, r2, lsl #2]
 a9e:	ea81 0103 	eor.w	r1, r1, r3
 aa2:	ea4f 631c 	mov.w	r3, ip, lsr #24
 aa6:	ea4f 601e 	mov.w	r0, lr, lsr #24
 aaa:	f854 3023 	ldr.w	r3, [r4, r3, lsl #2]
 aae:	f854 0020 	ldr.w	r0, [r4, r0, lsl #2]
 ab2:	ea82 0203 	eor.w	r2, r2, r3
 ab6:	f8d5 30b4 	ldr.w	r3, [r5, #180]	@ 0xb4
 aba:	ea82 0203 	eor.w	r2, r2, r3
 abe:	f3c8 4307 	ubfx	r3, r8, #16, #8
 ac2:	f503 7380 	add.w	r3, r3, #256	@ 0x100
 ac6:	f3ce 4e07 	ubfx	lr, lr, #16, #8
 aca:	f854 3023 	ldr.w	r3, [r4, r3, lsl #2]
 ace:	ea82 0203 	eor.w	r2, r2, r3
 ad2:	f3c6 2307 	ubfx	r3, r6, #8, #8
 ad6:	f503 7300 	add.w	r3, r3, #512	@ 0x200
 ada:	f50e 7e80 	add.w	lr, lr, #256	@ 0x100
 ade:	f854 3023 	ldr.w	r3, [r4, r3, lsl #2]
 ae2:	ea82 0203 	eor.w	r2, r2, r3
 ae6:	b2f3      	uxtb	r3, r6
 ae8:	f503 7340 	add.w	r3, r3, #768	@ 0x300
 aec:	ea4f 6616 	mov.w	r6, r6, lsr #24
 af0:	f854 3023 	ldr.w	r3, [r4, r3, lsl #2]
 af4:	ea83 0300 	eor.w	r3, r3, r0
 af8:	f8d5 00b8 	ldr.w	r0, [r5, #184]	@ 0xb8
 afc:	ea83 0300 	eor.w	r3, r3, r0
 b00:	f3cc 4007 	ubfx	r0, ip, #16, #8
 b04:	f500 7080 	add.w	r0, r0, #256	@ 0x100
 b08:	f3cc 2c07 	ubfx	ip, ip, #8, #8
 b0c:	f854 0020 	ldr.w	r0, [r4, r0, lsl #2]
 b10:	ea83 0300 	eor.w	r3, r3, r0
 b14:	f3c8 2007 	ubfx	r0, r8, #8, #8
 b18:	f500 7000 	add.w	r0, r0, #512	@ 0x200
 b1c:	fa5f f888 	uxtb.w	r8, r8
 b20:	f854 0020 	ldr.w	r0, [r4, r0, lsl #2]
 b24:	f508 7840 	add.w	r8, r8, #768	@ 0x300
 b28:	ea83 0300 	eor.w	r3, r3, r0
 b2c:	f854 0026 	ldr.w	r0, [r4, r6, lsl #2]
 b30:	f854 6028 	ldr.w	r6, [r4, r8, lsl #2]
 b34:	9300      	str	r3, [sp, #0]
 b36:	ea86 0600 	eor.w	r6, r6, r0
 b3a:	f8d5 00bc 	ldr.w	r0, [r5, #188]	@ 0xbc
 b3e:	f50c 7c00 	add.w	ip, ip, #512	@ 0x200
 b42:	ea86 0600 	eor.w	r6, r6, r0
 b46:	f854 002e 	ldr.w	r0, [r4, lr, lsl #2]
 b4a:	ea86 0600 	eor.w	r6, r6, r0
 b4e:	f854 002c 	ldr.w	r0, [r4, ip, lsl #2]
 b52:	ea86 0600 	eor.w	r6, r6, r0
 b56:	f000 80e7 	beq.w	d28 <wc_AesCbcDecrypt+0xd28>
 b5a:	fa5f fc82 	uxtb.w	ip, r2
 b5e:	0e08      	lsrs	r0, r1, #24
 b60:	f50c 7c40 	add.w	ip, ip, #768	@ 0x300
 b64:	f854 0020 	ldr.w	r0, [r4, r0, lsl #2]
 b68:	f854 802c 	ldr.w	r8, [r4, ip, lsl #2]
 b6c:	ea80 0808 	eor.w	r8, r0, r8
 b70:	f8d5 00c0 	ldr.w	r0, [r5, #192]	@ 0xc0
 b74:	ea88 0800 	eor.w	r8, r8, r0
 b78:	f3c6 4007 	ubfx	r0, r6, #16, #8
 b7c:	f500 7080 	add.w	r0, r0, #256	@ 0x100
 b80:	ea4f 6c12 	mov.w	ip, r2, lsr #24
 b84:	f854 0020 	ldr.w	r0, [r4, r0, lsl #2]
 b88:	f854 c02c 	ldr.w	ip, [r4, ip, lsl #2]
 b8c:	ea88 0800 	eor.w	r8, r8, r0
 b90:	f3c3 2007 	ubfx	r0, r3, #8, #8
 b94:	f500 7000 	add.w	r0, r0, #512	@ 0x200
 b98:	ea4f 6e13 	mov.w	lr, r3, lsr #24
 b9c:	f854 0020 	ldr.w	r0, [r4, r0, lsl #2]
 ba0:	f854 e02e 	ldr.w	lr, [r4, lr, lsl #2]
 ba4:	ea88 0800 	eor.w	r8, r8, r0
 ba8:	f89d 0000 	ldrb.w	r0, [sp]
 bac:	f500 7040 	add.w	r0, r0, #768	@ 0x300
 bb0:	f3c3 4307 	ubfx	r3, r3, #16, #8
 bb4:	f854 0020 	ldr.w	r0, [r4, r0, lsl #2]
 bb8:	ea8c 0c00 	eor.w	ip, ip, r0
 bbc:	f8d5 00c4 	ldr.w	r0, [r5, #196]	@ 0xc4
 bc0:	ea8c 0c00 	eor.w	ip, ip, r0
 bc4:	f3c1 4007 	ubfx	r0, r1, #16, #8
 bc8:	f500 7080 	add.w	r0, r0, #256	@ 0x100
 bcc:	f503 7380 	add.w	r3, r3, #256	@ 0x100
 bd0:	f854 0020 	ldr.w	r0, [r4, r0, lsl #2]
 bd4:	f854 3023 	ldr.w	r3, [r4, r3, lsl #2]
 bd8:	ea8c 0c00 	eor.w	ip, ip, r0
 bdc:	f3c6 2007 	ubfx	r0, r6, #8, #8
 be0:	f500 7000 	add.w	r0, r0, #512	@ 0x200
 be4:	f854 0020 	ldr.w	r0, [r4, r0, lsl #2]
 be8:	ea8c 0c00 	eor.w	ip, ip, r0
 bec:	b2f0      	uxtb	r0, r6
 bee:	f500 7040 	add.w	r0, r0, #768	@ 0x300
 bf2:	0e36      	lsrs	r6, r6, #24
 bf4:	f854 0020 	ldr.w	r0, [r4, r0, lsl #2]
 bf8:	ea8e 0e00 	eor.w	lr, lr, r0
 bfc:	f8d5 00c8 	ldr.w	r0, [r5, #200]	@ 0xc8
 c00:	ea8e 0e00 	eor.w	lr, lr, r0
 c04:	f3c2 4007 	ubfx	r0, r2, #16, #8
 c08:	f500 7080 	add.w	r0, r0, #256	@ 0x100
 c0c:	f3c2 2207 	ubfx	r2, r2, #8, #8
 c10:	f854 0020 	ldr.w	r0, [r4, r0, lsl #2]
 c14:	ea8e 0e00 	eor.w	lr, lr, r0
 c18:	f3c1 2007 	ubfx	r0, r1, #8, #8
 c1c:	f500 7000 	add.w	r0, r0, #512	@ 0x200
 c20:	b2c9      	uxtb	r1, r1
 c22:	f854 0020 	ldr.w	r0, [r4, r0, lsl #2]
 c26:	f501 7140 	add.w	r1, r1, #768	@ 0x300
 c2a:	ea8e 0e00 	eor.w	lr, lr, r0
 c2e:	f854 0026 	ldr.w	r0, [r4, r6, lsl #2]
 c32:	f854 6021 	ldr.w	r6, [r4, r1, lsl #2]
 c36:	f8d5 10cc 	ldr.w	r1, [r5, #204]	@ 0xcc
 c3a:	4046      	eors	r6, r0
 c3c:	f502 7200 	add.w	r2, r2, #512	@ 0x200
 c40:	404e      	eors	r6, r1
 c42:	405e      	eors	r6, r3
 c44:	f854 3022 	ldr.w	r3, [r4, r2, lsl #2]
 c48:	405e      	eors	r6, r3
 c4a:	fa5f f38c 	uxtb.w	r3, ip
 c4e:	ea4f 6218 	mov.w	r2, r8, lsr #24
 c52:	f503 7340 	add.w	r3, r3, #768	@ 0x300
 c56:	f854 1022 	ldr.w	r1, [r4, r2, lsl #2]
 c5a:	f854 3023 	ldr.w	r3, [r4, r3, lsl #2]
 c5e:	4059      	eors	r1, r3
 c60:	f8d5 30d0 	ldr.w	r3, [r5, #208]	@ 0xd0
 c64:	4059      	eors	r1, r3
 c66:	f3c6 4307 	ubfx	r3, r6, #16, #8
 c6a:	f503 7380 	add.w	r3, r3, #256	@ 0x100
 c6e:	fa5f f28e 	uxtb.w	r2, lr
 c72:	f854 3023 	ldr.w	r3, [r4, r3, lsl #2]
 c76:	4059      	eors	r1, r3
 c78:	f3ce 2307 	ubfx	r3, lr, #8, #8
 c7c:	f503 7300 	add.w	r3, r3, #512	@ 0x200
 c80:	f502 7240 	add.w	r2, r2, #768	@ 0x300
 c84:	f854 3023 	ldr.w	r3, [r4, r3, lsl #2]
 c88:	f854 2022 	ldr.w	r2, [r4, r2, lsl #2]
 c8c:	4059      	eors	r1, r3
 c8e:	ea4f 631c 	mov.w	r3, ip, lsr #24
 c92:	ea4f 601e 	mov.w	r0, lr, lsr #24
 c96:	f854 3023 	ldr.w	r3, [r4, r3, lsl #2]
 c9a:	f854 0020 	ldr.w	r0, [r4, r0, lsl #2]
 c9e:	405a      	eors	r2, r3
 ca0:	f8d5 30d4 	ldr.w	r3, [r5, #212]	@ 0xd4
 ca4:	405a      	eors	r2, r3
 ca6:	f3c8 4307 	ubfx	r3, r8, #16, #8
 caa:	f503 7380 	add.w	r3, r3, #256	@ 0x100
 cae:	f3ce 4e07 	ubfx	lr, lr, #16, #8
 cb2:	f854 3023 	ldr.w	r3, [r4, r3, lsl #2]
 cb6:	405a      	eors	r2, r3
 cb8:	f3c6 2307 	ubfx	r3, r6, #8, #8
 cbc:	f503 7300 	add.w	r3, r3, #512	@ 0x200
 cc0:	f50e 7e80 	add.w	lr, lr, #256	@ 0x100
 cc4:	f854 3023 	ldr.w	r3, [r4, r3, lsl #2]
 cc8:	405a      	eors	r2, r3
 cca:	b2f3      	uxtb	r3, r6
 ccc:	f503 7340 	add.w	r3, r3, #768	@ 0x300
 cd0:	0e36      	lsrs	r6, r6, #24
 cd2:	f854 3023 	ldr.w	r3, [r4, r3, lsl #2]
 cd6:	4043      	eors	r3, r0
 cd8:	f8d5 00d8 	ldr.w	r0, [r5, #216]	@ 0xd8
 cdc:	4043      	eors	r3, r0
 cde:	f3cc 4007 	ubfx	r0, ip, #16, #8
 ce2:	f500 7080 	add.w	r0, r0, #256	@ 0x100
 ce6:	f3cc 2c07 	ubfx	ip, ip, #8, #8
 cea:	f854 0020 	ldr.w	r0, [r4, r0, lsl #2]
 cee:	4043      	eors	r3, r0
 cf0:	f3c8 2007 	ubfx	r0, r8, #8, #8
 cf4:	f500 7000 	add.w	r0, r0, #512	@ 0x200
 cf8:	fa5f f888 	uxtb.w	r8, r8
 cfc:	f854 0020 	ldr.w	r0, [r4, r0, lsl #2]
 d00:	f508 7840 	add.w	r8, r8, #768	@ 0x300
 d04:	4043      	eors	r3, r0
 d06:	f854 0026 	ldr.w	r0, [r4, r6, lsl #2]
 d0a:	f854 6028 	ldr.w	r6, [r4, r8, lsl #2]
 d0e:	9300      	str	r3, [sp, #0]
 d10:	4046      	eors	r6, r0
 d12:	f8d5 00dc 	ldr.w	r0, [r5, #220]	@ 0xdc
 d16:	f50c 7c00 	add.w	ip, ip, #512	@ 0x200
 d1a:	4046      	eors	r6, r0
 d1c:	f854 002e 	ldr.w	r0, [r4, lr, lsl #2]
 d20:	4046      	eors	r6, r0
 d22:	f854 002c 	ldr.w	r0, [r4, ip, lsl #2]
 d26:	4046      	eors	r6, r0
 d28:	0e10      	lsrs	r0, r2, #24
 d2a:	eb05 1e4a 	add.w	lr, r5, sl, lsl #5
 d2e:	f817 8000 	ldrb.w	r8, [r7, r0]
 d32:	f89d 0000 	ldrb.w	r0, [sp]
 d36:	9b00      	ldr	r3, [sp, #0]
 d38:	5c38      	ldrb	r0, [r7, r0]
 d3a:	ea40 6008 	orr.w	r0, r0, r8, lsl #24
 d3e:	f3c1 4807 	ubfx	r8, r1, #16, #8
 d42:	ea4f 1c4a 	mov.w	ip, sl, lsl #5
 d46:	f817 8008 	ldrb.w	r8, [r7, r8]
 d4a:	ea40 4008 	orr.w	r0, r0, r8, lsl #16
 d4e:	f3c6 2807 	ubfx	r8, r6, #8, #8
 d52:	f10b 0b10 	add.w	fp, fp, #16
 d56:	f817 a008 	ldrb.w	sl, [r7, r8]
 d5a:	ea40 2a0a 	orr.w	sl, r0, sl, lsl #8
 d5e:	f8de 0004 	ldr.w	r0, [lr, #4]
 d62:	ea8a 0a00 	eor.w	sl, sl, r0
 d66:	0e18      	lsrs	r0, r3, #24
 d68:	f8de 3008 	ldr.w	r3, [lr, #8]
 d6c:	f817 8000 	ldrb.w	r8, [r7, r0]
 d70:	b2f0      	uxtb	r0, r6
 d72:	5c38      	ldrb	r0, [r7, r0]
 d74:	ea40 6008 	orr.w	r0, r0, r8, lsl #24
 d78:	f3c2 4807 	ubfx	r8, r2, #16, #8
 d7c:	f817 8008 	ldrb.w	r8, [r7, r8]
 d80:	ea40 4008 	orr.w	r0, r0, r8, lsl #16
 d84:	f3c1 2807 	ubfx	r8, r1, #8, #8
 d88:	f817 8008 	ldrb.w	r8, [r7, r8]
 d8c:	ea40 2008 	orr.w	r0, r0, r8, lsl #8
 d90:	4043      	eors	r3, r0
 d92:	0e30      	lsrs	r0, r6, #24
 d94:	9302      	str	r3, [sp, #8]
 d96:	f817 8000 	ldrb.w	r8, [r7, r0]
 d9a:	9b00      	ldr	r3, [sp, #0]
 d9c:	b2c8      	uxtb	r0, r1
 d9e:	0e09      	lsrs	r1, r1, #24
 da0:	5c38      	ldrb	r0, [r7, r0]
 da2:	5c79      	ldrb	r1, [r7, r1]
 da4:	ea40 6008 	orr.w	r0, r0, r8, lsl #24
 da8:	f3c3 4807 	ubfx	r8, r3, #16, #8
 dac:	f3c6 4607 	ubfx	r6, r6, #16, #8
 db0:	f817 8008 	ldrb.w	r8, [r7, r8]
 db4:	ea40 4008 	orr.w	r0, r0, r8, lsl #16
 db8:	f3c2 2807 	ubfx	r8, r2, #8, #8
 dbc:	b2d2      	uxtb	r2, r2
 dbe:	f817 8008 	ldrb.w	r8, [r7, r8]
 dc2:	5cba      	ldrb	r2, [r7, r2]
 dc4:	ea40 2808 	orr.w	r8, r0, r8, lsl #8
 dc8:	f8de 000c 	ldr.w	r0, [lr, #12]
 dcc:	f3c3 2307 	ubfx	r3, r3, #8, #8
 dd0:	ea88 0800 	eor.w	r8, r8, r0
 dd4:	5db8      	ldrb	r0, [r7, r6]
 dd6:	5cfb      	ldrb	r3, [r7, r3]
 dd8:	ea42 6201 	orr.w	r2, r2, r1, lsl #24
 ddc:	ea42 4000 	orr.w	r0, r2, r0, lsl #16
 de0:	ea40 2303 	orr.w	r3, r0, r3, lsl #8
 de4:	f855 000c 	ldr.w	r0, [r5, ip]
 de8:	4058      	eors	r0, r3
 dea:	f7ff fffe 	bl	0 <wc_AesCbcDecrypt>
 dee:	9004      	str	r0, [sp, #16]
 df0:	4650      	mov	r0, sl
 df2:	f7ff fffe 	bl	0 <wc_AesCbcDecrypt>
 df6:	9005      	str	r0, [sp, #20]
 df8:	9802      	ldr	r0, [sp, #8]
 dfa:	f7ff fffe 	bl	0 <wc_AesCbcDecrypt>
 dfe:	9006      	str	r0, [sp, #24]
 e00:	4640      	mov	r0, r8
 e02:	f7ff fffe 	bl	0 <wc_AesCbcDecrypt>
 e06:	2204      	movs	r2, #4
 e08:	9007      	str	r0, [sp, #28]
 e0a:	a904      	add	r1, sp, #16
 e0c:	4648      	mov	r0, r9
 e0e:	f7ff fffe 	bl	0 <memcpy>
 e12:	2204      	movs	r2, #4
 e14:	eb09 0002 	add.w	r0, r9, r2
 e18:	a905      	add	r1, sp, #20
 e1a:	f7ff fffe 	bl	0 <memcpy>
 e1e:	2204      	movs	r2, #4
 e20:	a906      	add	r1, sp, #24
 e22:	f109 0008 	add.w	r0, r9, #8
 e26:	f7ff fffe 	bl	0 <memcpy>
 e2a:	f105 06f8 	add.w	r6, r5, #248	@ 0xf8
 e2e:	2204      	movs	r2, #4
 e30:	a907      	add	r1, sp, #28
 e32:	f109 000c 	add.w	r0, r9, #12
 e36:	f7ff fffe 	bl	0 <memcpy>
 e3a:	4648      	mov	r0, r9
 e3c:	2210      	movs	r2, #16
 e3e:	4631      	mov	r1, r6
 e40:	f7ff fffe 	bl	0 <wc_AesCbcDecrypt>
 e44:	9901      	ldr	r1, [sp, #4]
 e46:	2210      	movs	r2, #16
 e48:	4630      	mov	r0, r6
 e4a:	f7ff fffe 	bl	0 <memcpy>
 e4e:	f109 0910 	add.w	r9, r9, #16
 e52:	f7ff b8fb 	b.w	4c <wc_AesCbcDecrypt+0x4c>
 e56:	f06f 00ac 	mvn.w	r0, #172	@ 0xac
 e5a:	f7ff b8e2 	b.w	22 <wc_AesCbcDecrypt+0x22>
 e5e:	f06f 00e1 	mvn.w	r0, #225	@ 0xe1
 e62:	f7ff b8de 	b.w	22 <wc_AesCbcDecrypt+0x22>
 e66:	bf00      	nop

Disassembly of section .text.wc_AesGcmSetKey:

00000000 <wc_AesGcmSetKey>:
   0:	b570      	push	{r4, r5, r6, lr}
   2:	4616      	mov	r6, r2
   4:	3a10      	subs	r2, #16
   6:	2a10      	cmp	r2, #16
   8:	b086      	sub	sp, #24
   a:	4604      	mov	r4, r0
   c:	460d      	mov	r5, r1
   e:	d81b      	bhi.n	48 <wc_AesGcmSetKey+0x48>
  10:	4b0f      	ldr	r3, [pc, #60]	@ (50 <wc_AesGcmSetKey+0x50>)
  12:	40d3      	lsrs	r3, r2
  14:	07db      	lsls	r3, r3, #31
  16:	d517      	bpl.n	48 <wc_AesGcmSetKey+0x48>
  18:	b1b0      	cbz	r0, 48 <wc_AesGcmSetKey+0x48>
  1a:	b1a9      	cbz	r1, 48 <wc_AesGcmSetKey+0x48>
  1c:	2210      	movs	r2, #16
  1e:	2100      	movs	r1, #0
  20:	a802      	add	r0, sp, #8
  22:	f7ff fffe 	bl	0 <memset>
  26:	2300      	movs	r3, #0
  28:	9300      	str	r3, [sp, #0]
  2a:	4632      	mov	r2, r6
  2c:	ab02      	add	r3, sp, #8
  2e:	4629      	mov	r1, r5
  30:	4620      	mov	r0, r4
  32:	f7ff fffe 	bl	0 <wc_AesGcmSetKey>
  36:	b928      	cbnz	r0, 44 <wc_AesGcmSetKey+0x44>
  38:	f504 7292 	add.w	r2, r4, #292	@ 0x124
  3c:	a902      	add	r1, sp, #8
  3e:	4620      	mov	r0, r4
  40:	f7ff fffe 	bl	0 <wc_AesGcmSetKey>
  44:	b006      	add	sp, #24
  46:	bd70      	pop	{r4, r5, r6, pc}
  48:	f06f 00ac 	mvn.w	r0, #172	@ 0xac
  4c:	e7fa      	b.n	44 <wc_AesGcmSetKey+0x44>
  4e:	bf00      	nop
  50:	00010101 	.word	0x00010101

Disassembly of section .text.GHASH:

00000000 <GHASH>:
   0:	e92d 47f0 	stmdb	sp!, {r4, r5, r6, r7, r8, r9, sl, lr}
   4:	b088      	sub	sp, #32
   6:	4688      	mov	r8, r1
   8:	9d10      	ldr	r5, [sp, #64]	@ 0x40
   a:	4614      	mov	r4, r2
   c:	461e      	mov	r6, r3
   e:	4607      	mov	r7, r0
  10:	2800      	cmp	r0, #0
  12:	d06c      	beq.n	ee <GHASH+0xee>
  14:	2210      	movs	r2, #16
  16:	2100      	movs	r1, #0
  18:	4668      	mov	r0, sp
  1a:	f7ff fffe 	bl	0 <memset>
  1e:	b30c      	cbz	r4, 64 <GHASH+0x64>
  20:	f1b8 0f00 	cmp.w	r8, #0
  24:	d01e      	beq.n	64 <GHASH+0x64>
  26:	f024 090f 	bic.w	r9, r4, #15
  2a:	f004 0a0f 	and.w	sl, r4, #15
  2e:	44c1      	add	r9, r8
  30:	45c8      	cmp	r8, r9
  32:	d15f      	bne.n	f4 <GHASH+0xf4>
  34:	f1ba 0f00 	cmp.w	sl, #0
  38:	d014      	beq.n	64 <GHASH+0x64>
  3a:	2210      	movs	r2, #16
  3c:	2100      	movs	r1, #0
  3e:	eb0d 0002 	add.w	r0, sp, r2
  42:	f7ff fffe 	bl	0 <memset>
  46:	4652      	mov	r2, sl
  48:	4641      	mov	r1, r8
  4a:	a804      	add	r0, sp, #16
  4c:	f7ff fffe 	bl	0 <memcpy>
  50:	2210      	movs	r2, #16
  52:	eb0d 0102 	add.w	r1, sp, r2
  56:	4668      	mov	r0, sp
  58:	f7ff fffe 	bl	0 <GHASH>
  5c:	4639      	mov	r1, r7
  5e:	4668      	mov	r0, sp
  60:	f7ff fffe 	bl	0 <GHASH>
  64:	b1fd      	cbz	r5, a6 <GHASH+0xa6>
  66:	b1f6      	cbz	r6, a6 <GHASH+0xa6>
  68:	f025 080f 	bic.w	r8, r5, #15
  6c:	f005 090f 	and.w	r9, r5, #15
  70:	44b0      	add	r8, r6
  72:	4546      	cmp	r6, r8
  74:	d14a      	bne.n	10c <GHASH+0x10c>
  76:	f1b9 0f00 	cmp.w	r9, #0
  7a:	d014      	beq.n	a6 <GHASH+0xa6>
  7c:	2210      	movs	r2, #16
  7e:	2100      	movs	r1, #0
  80:	eb0d 0002 	add.w	r0, sp, r2
  84:	f7ff fffe 	bl	0 <memset>
  88:	464a      	mov	r2, r9
  8a:	4631      	mov	r1, r6
  8c:	a804      	add	r0, sp, #16
  8e:	f7ff fffe 	bl	0 <memcpy>
  92:	2210      	movs	r2, #16
  94:	eb0d 0102 	add.w	r1, sp, r2
  98:	4668      	mov	r0, sp
  9a:	f7ff fffe 	bl	0 <GHASH>
  9e:	4639      	mov	r1, r7
  a0:	4668      	mov	r0, sp
  a2:	f7ff fffe 	bl	0 <GHASH>
  a6:	2300      	movs	r3, #0
  a8:	0f62      	lsrs	r2, r4, #29
  aa:	f8ad 3010 	strh.w	r3, [sp, #16]
  ae:	f88d 3012 	strb.w	r3, [sp, #18]
  b2:	f8ad 3018 	strh.w	r3, [sp, #24]
  b6:	f88d 301a 	strb.w	r3, [sp, #26]
  ba:	0f6b      	lsrs	r3, r5, #29
  bc:	f88d 2013 	strb.w	r2, [sp, #19]
  c0:	f88d 301b 	strb.w	r3, [sp, #27]
  c4:	2210      	movs	r2, #16
  c6:	00e4      	lsls	r4, r4, #3
  c8:	00eb      	lsls	r3, r5, #3
  ca:	eb0d 0102 	add.w	r1, sp, r2
  ce:	ba1b      	rev	r3, r3
  d0:	4668      	mov	r0, sp
  d2:	ba24      	rev	r4, r4
  d4:	9307      	str	r3, [sp, #28]
  d6:	9405      	str	r4, [sp, #20]
  d8:	f7ff fffe 	bl	0 <GHASH>
  dc:	4639      	mov	r1, r7
  de:	4668      	mov	r0, sp
  e0:	f7ff fffe 	bl	0 <GHASH>
  e4:	9a12      	ldr	r2, [sp, #72]	@ 0x48
  e6:	9811      	ldr	r0, [sp, #68]	@ 0x44
  e8:	4669      	mov	r1, sp
  ea:	f7ff fffe 	bl	0 <memcpy>
  ee:	b008      	add	sp, #32
  f0:	e8bd 87f0 	ldmia.w	sp!, {r4, r5, r6, r7, r8, r9, sl, pc}
  f4:	4641      	mov	r1, r8
  f6:	2210      	movs	r2, #16
  f8:	4668      	mov	r0, sp
  fa:	f7ff fffe 	bl	0 <GHASH>
  fe:	4639      	mov	r1, r7
 100:	4668      	mov	r0, sp
 102:	f7ff fffe 	bl	0 <GHASH>
 106:	f108 0810 	add.w	r8, r8, #16
 10a:	e791      	b.n	30 <GHASH+0x30>
 10c:	4631      	mov	r1, r6
 10e:	2210      	movs	r2, #16
 110:	4668      	mov	r0, sp
 112:	f7ff fffe 	bl	0 <GHASH>
 116:	4639      	mov	r1, r7
 118:	4668      	mov	r0, sp
 11a:	f7ff fffe 	bl	0 <GHASH>
 11e:	3610      	adds	r6, #16
 120:	e7a7      	b.n	72 <GHASH+0x72>

Disassembly of section .text.wc_AesGcmEncrypt:

00000000 <wc_AesGcmEncrypt>:
   0:	e92d 4ff0 	stmdb	sp!, {r4, r5, r6, r7, r8, r9, sl, fp, lr}
   4:	b093      	sub	sp, #76	@ 0x4c
   6:	4616      	mov	r6, r2
   8:	461d      	mov	r5, r3
   a:	9f1f      	ldr	r7, [sp, #124]	@ 0x7c
   c:	e9dd 321c 	ldrd	r3, r2, [sp, #112]	@ 0x70
  10:	4688      	mov	r8, r1
  12:	4604      	mov	r4, r0
  14:	2800      	cmp	r0, #0
  16:	d07b      	beq.n	110 <wc_AesGcmEncrypt+0x110>
  18:	2f10      	cmp	r7, #16
  1a:	d879      	bhi.n	110 <wc_AesGcmEncrypt+0x110>
  1c:	2a00      	cmp	r2, #0
  1e:	d077      	beq.n	110 <wc_AesGcmEncrypt+0x110>
  20:	2f00      	cmp	r7, #0
  22:	d075      	beq.n	110 <wc_AesGcmEncrypt+0x110>
  24:	991e      	ldr	r1, [sp, #120]	@ 0x78
  26:	2900      	cmp	r1, #0
  28:	d072      	beq.n	110 <wc_AesGcmEncrypt+0x110>
  2a:	9921      	ldr	r1, [sp, #132]	@ 0x84
  2c:	b111      	cbz	r1, 34 <wc_AesGcmEncrypt+0x34>
  2e:	9920      	ldr	r1, [sp, #128]	@ 0x80
  30:	2900      	cmp	r1, #0
  32:	d06d      	beq.n	110 <wc_AesGcmEncrypt+0x110>
  34:	2f0b      	cmp	r7, #11
  36:	d96b      	bls.n	110 <wc_AesGcmEncrypt+0x110>
  38:	2a0c      	cmp	r2, #12
  3a:	ea4f 1b15 	mov.w	fp, r5, lsr #4
  3e:	f10d 0a18 	add.w	sl, sp, #24
  42:	d145      	bne.n	d0 <wc_AesGcmEncrypt+0xd0>
  44:	4619      	mov	r1, r3
  46:	4650      	mov	r0, sl
  48:	f7ff fffe 	bl	0 <memcpy>
  4c:	2203      	movs	r2, #3
  4e:	2100      	movs	r1, #0
  50:	a809      	add	r0, sp, #36	@ 0x24
  52:	f7ff fffe 	bl	0 <memset>
  56:	2301      	movs	r3, #1
  58:	f88d 3027 	strb.w	r3, [sp, #39]	@ 0x27
  5c:	2210      	movs	r2, #16
  5e:	4651      	mov	r1, sl
  60:	a80a      	add	r0, sp, #40	@ 0x28
  62:	f7ff fffe 	bl	0 <memcpy>
  66:	eb08 1b0b 	add.w	fp, r8, fp, lsl #4
  6a:	46c1      	mov	r9, r8
  6c:	45d9      	cmp	r9, fp
  6e:	d13a      	bne.n	e6 <wc_AesGcmEncrypt+0xe6>
  70:	f015 0a0f 	ands.w	sl, r5, #15
  74:	d00f      	beq.n	96 <wc_AesGcmEncrypt+0x96>
  76:	a806      	add	r0, sp, #24
  78:	f7ff fffe 	bl	0 <wc_AesGcmEncrypt>
  7c:	a906      	add	r1, sp, #24
  7e:	aa0e      	add	r2, sp, #56	@ 0x38
  80:	4620      	mov	r0, r4
  82:	f7ff fffe 	bl	0 <wc_AesGcmEncrypt>
  86:	4603      	mov	r3, r0
  88:	b9f0      	cbnz	r0, c8 <wc_AesGcmEncrypt+0xc8>
  8a:	4653      	mov	r3, sl
  8c:	4632      	mov	r2, r6
  8e:	a90e      	add	r1, sp, #56	@ 0x38
  90:	4648      	mov	r0, r9
  92:	f7ff fffe 	bl	0 <wc_AesGcmEncrypt>
  96:	9b1e      	ldr	r3, [sp, #120]	@ 0x78
  98:	9702      	str	r7, [sp, #8]
  9a:	e9dd 1220 	ldrd	r1, r2, [sp, #128]	@ 0x80
  9e:	e9cd 5300 	strd	r5, r3, [sp]
  a2:	f504 7092 	add.w	r0, r4, #292	@ 0x124
  a6:	4643      	mov	r3, r8
  a8:	f7ff fffe 	bl	0 <wc_AesGcmEncrypt>
  ac:	aa0e      	add	r2, sp, #56	@ 0x38
  ae:	a90a      	add	r1, sp, #40	@ 0x28
  b0:	4620      	mov	r0, r4
  b2:	f7ff fffe 	bl	0 <wc_AesGcmEncrypt>
  b6:	4603      	mov	r3, r0
  b8:	b930      	cbnz	r0, c8 <wc_AesGcmEncrypt+0xc8>
  ba:	9005      	str	r0, [sp, #20]
  bc:	463a      	mov	r2, r7
  be:	981e      	ldr	r0, [sp, #120]	@ 0x78
  c0:	a90e      	add	r1, sp, #56	@ 0x38
  c2:	f7ff fffe 	bl	0 <wc_AesGcmEncrypt>
  c6:	9b05      	ldr	r3, [sp, #20]
  c8:	4618      	mov	r0, r3
  ca:	b013      	add	sp, #76	@ 0x4c
  cc:	e8bd 8ff0 	ldmia.w	sp!, {r4, r5, r6, r7, r8, r9, sl, fp, pc}
  d0:	2110      	movs	r1, #16
  d2:	9200      	str	r2, [sp, #0]
  d4:	2200      	movs	r2, #0
  d6:	e9cd a101 	strd	sl, r1, [sp, #4]
  da:	f504 7092 	add.w	r0, r4, #292	@ 0x124
  de:	4611      	mov	r1, r2
  e0:	f7ff fffe 	bl	0 <wc_AesGcmEncrypt>
  e4:	e7ba      	b.n	5c <wc_AesGcmEncrypt+0x5c>
  e6:	4650      	mov	r0, sl
  e8:	f7ff fffe 	bl	0 <wc_AesGcmEncrypt>
  ec:	4651      	mov	r1, sl
  ee:	aa0e      	add	r2, sp, #56	@ 0x38
  f0:	4620      	mov	r0, r4
  f2:	f7ff fffe 	bl	0 <wc_AesGcmEncrypt>
  f6:	4603      	mov	r3, r0
  f8:	2800      	cmp	r0, #0
  fa:	d1e5      	bne.n	c8 <wc_AesGcmEncrypt+0xc8>
  fc:	4632      	mov	r2, r6
  fe:	4648      	mov	r0, r9
 100:	2310      	movs	r3, #16
 102:	a90e      	add	r1, sp, #56	@ 0x38
 104:	f7ff fffe 	bl	0 <wc_AesGcmEncrypt>
 108:	3610      	adds	r6, #16
 10a:	f109 0910 	add.w	r9, r9, #16
 10e:	e7ad      	b.n	6c <wc_AesGcmEncrypt+0x6c>
 110:	f06f 03ac 	mvn.w	r3, #172	@ 0xac
 114:	e7d8      	b.n	c8 <wc_AesGcmEncrypt+0xc8>

Disassembly of section .text.wc_AesGcmDecrypt:

00000000 <wc_AesGcmDecrypt>:
   0:	e92d 4ff0 	stmdb	sp!, {r4, r5, r6, r7, r8, r9, sl, fp, lr}
   4:	b095      	sub	sp, #84	@ 0x54
   6:	4616      	mov	r6, r2
   8:	461c      	mov	r4, r3
   a:	460d      	mov	r5, r1
   c:	e9dd 321e 	ldrd	r3, r2, [sp, #120]	@ 0x78
  10:	4680      	mov	r8, r0
  12:	2800      	cmp	r0, #0
  14:	f000 808c 	beq.w	130 <wc_AesGcmDecrypt+0x130>
  18:	2b00      	cmp	r3, #0
  1a:	f000 8089 	beq.w	130 <wc_AesGcmDecrypt+0x130>
  1e:	b12c      	cbz	r4, 2c <wc_AesGcmDecrypt+0x2c>
  20:	2e00      	cmp	r6, #0
  22:	f000 8085 	beq.w	130 <wc_AesGcmDecrypt+0x130>
  26:	2900      	cmp	r1, #0
  28:	f000 8082 	beq.w	130 <wc_AesGcmDecrypt+0x130>
  2c:	9920      	ldr	r1, [sp, #128]	@ 0x80
  2e:	2900      	cmp	r1, #0
  30:	d07e      	beq.n	130 <wc_AesGcmDecrypt+0x130>
  32:	9921      	ldr	r1, [sp, #132]	@ 0x84
  34:	3901      	subs	r1, #1
  36:	290f      	cmp	r1, #15
  38:	d87a      	bhi.n	130 <wc_AesGcmDecrypt+0x130>
  3a:	2a00      	cmp	r2, #0
  3c:	d078      	beq.n	130 <wc_AesGcmDecrypt+0x130>
  3e:	2a0c      	cmp	r2, #12
  40:	f10d 0910 	add.w	r9, sp, #16
  44:	f508 7792 	add.w	r7, r8, #292	@ 0x124
  48:	d155      	bne.n	f6 <wc_AesGcmDecrypt+0xf6>
  4a:	4619      	mov	r1, r3
  4c:	4648      	mov	r0, r9
  4e:	f7ff fffe 	bl	0 <memcpy>
  52:	2203      	movs	r2, #3
  54:	2100      	movs	r1, #0
  56:	a807      	add	r0, sp, #28
  58:	f7ff fffe 	bl	0 <memset>
  5c:	2301      	movs	r3, #1
  5e:	f88d 301f 	strb.w	r3, [sp, #31]
  62:	f04f 0b10 	mov.w	fp, #16
  66:	f10d 0a30 	add.w	sl, sp, #48	@ 0x30
  6a:	e9dd 1222 	ldrd	r1, r2, [sp, #136]	@ 0x88
  6e:	4638      	mov	r0, r7
  70:	4633      	mov	r3, r6
  72:	e9cd 4a00 	strd	r4, sl, [sp]
  76:	f8cd b008 	str.w	fp, [sp, #8]
  7a:	f7ff fffe 	bl	0 <wc_AesGcmDecrypt>
  7e:	aa10      	add	r2, sp, #64	@ 0x40
  80:	4649      	mov	r1, r9
  82:	4640      	mov	r0, r8
  84:	f7ff fffe 	bl	0 <wc_AesGcmDecrypt>
  88:	4607      	mov	r7, r0
  8a:	bb88      	cbnz	r0, f0 <wc_AesGcmDecrypt+0xf0>
  8c:	465a      	mov	r2, fp
  8e:	a910      	add	r1, sp, #64	@ 0x40
  90:	4650      	mov	r0, sl
  92:	f7ff fffe 	bl	0 <wc_AesGcmDecrypt>
  96:	f024 0b0f 	bic.w	fp, r4, #15
  9a:	44ab      	add	fp, r5
  9c:	455d      	cmp	r5, fp
  9e:	d134      	bne.n	10a <wc_AesGcmDecrypt+0x10a>
  a0:	f014 040f 	ands.w	r4, r4, #15
  a4:	d012      	beq.n	cc <wc_AesGcmDecrypt+0xcc>
  a6:	4648      	mov	r0, r9
  a8:	f7ff fffe 	bl	0 <wc_AesGcmDecrypt>
  ac:	4649      	mov	r1, r9
  ae:	aa08      	add	r2, sp, #32
  b0:	4640      	mov	r0, r8
  b2:	f7ff fffe 	bl	0 <wc_AesGcmDecrypt>
  b6:	b9d8      	cbnz	r0, f0 <wc_AesGcmDecrypt+0xf0>
  b8:	4622      	mov	r2, r4
  ba:	4631      	mov	r1, r6
  bc:	a808      	add	r0, sp, #32
  be:	f7ff fffe 	bl	0 <wc_AesGcmDecrypt>
  c2:	4622      	mov	r2, r4
  c4:	a908      	add	r1, sp, #32
  c6:	4628      	mov	r0, r5
  c8:	f7ff fffe 	bl	0 <memcpy>
  cc:	e9dd 3220 	ldrd	r3, r2, [sp, #128]	@ 0x80
  d0:	189a      	adds	r2, r3, r2
  d2:	f813 1b01 	ldrb.w	r1, [r3], #1
  d6:	f81a 0b01 	ldrb.w	r0, [sl], #1
  da:	429a      	cmp	r2, r3
  dc:	ea81 0100 	eor.w	r1, r1, r0
  e0:	ea47 0701 	orr.w	r7, r7, r1
  e4:	d1f5      	bne.n	d2 <wc_AesGcmDecrypt+0xd2>
  e6:	2f00      	cmp	r7, #0
  e8:	bfcc      	ite	gt
  ea:	f06f 00b3 	mvngt.w	r0, #179	@ 0xb3
  ee:	2000      	movle	r0, #0
  f0:	b015      	add	sp, #84	@ 0x54
  f2:	e8bd 8ff0 	ldmia.w	sp!, {r4, r5, r6, r7, r8, r9, sl, fp, pc}
  f6:	2110      	movs	r1, #16
  f8:	9200      	str	r2, [sp, #0]
  fa:	2200      	movs	r2, #0
  fc:	e9cd 9101 	strd	r9, r1, [sp, #4]
 100:	4638      	mov	r0, r7
 102:	4611      	mov	r1, r2
 104:	f7ff fffe 	bl	0 <wc_AesGcmDecrypt>
 108:	e7ab      	b.n	62 <wc_AesGcmDecrypt+0x62>
 10a:	4648      	mov	r0, r9
 10c:	f7ff fffe 	bl	0 <wc_AesGcmDecrypt>
 110:	4649      	mov	r1, r9
 112:	aa08      	add	r2, sp, #32
 114:	4640      	mov	r0, r8
 116:	f7ff fffe 	bl	0 <wc_AesGcmDecrypt>
 11a:	2800      	cmp	r0, #0
 11c:	d1e8      	bne.n	f0 <wc_AesGcmDecrypt+0xf0>
 11e:	4632      	mov	r2, r6
 120:	4628      	mov	r0, r5
 122:	2310      	movs	r3, #16
 124:	a908      	add	r1, sp, #32
 126:	f7ff fffe 	bl	0 <wc_AesGcmDecrypt>
 12a:	3510      	adds	r5, #16
 12c:	3610      	adds	r6, #16
 12e:	e7b5      	b.n	9c <wc_AesGcmDecrypt+0x9c>
 130:	f06f 00ac 	mvn.w	r0, #172	@ 0xac
 134:	e7dc      	b.n	f0 <wc_AesGcmDecrypt+0xf0>

Disassembly of section .text.wc_AesGcmSetExtIV:

00000000 <wc_AesGcmSetExtIV>:
   0:	b538      	push	{r3, r4, r5, lr}
   2:	4615      	mov	r5, r2
   4:	4604      	mov	r4, r0
   6:	b1c0      	cbz	r0, 3a <wc_AesGcmSetExtIV+0x3a>
   8:	b1b9      	cbz	r1, 3a <wc_AesGcmSetExtIV+0x3a>
   a:	f1a2 0008 	sub.w	r0, r2, #8
   e:	2808      	cmp	r0, #8
  10:	d813      	bhi.n	3a <wc_AesGcmSetExtIV+0x3a>
  12:	f240 1311 	movw	r3, #273	@ 0x111
  16:	40c3      	lsrs	r3, r0
  18:	07db      	lsls	r3, r3, #31
  1a:	d50e      	bpl.n	3a <wc_AesGcmSetExtIV+0x3a>
  1c:	f104 00f8 	add.w	r0, r4, #248	@ 0xf8
  20:	f7ff fffe 	bl	0 <memcpy>
  24:	f1b5 030c 	subs.w	r3, r5, #12
  28:	bf18      	it	ne
  2a:	f04f 33ff 	movne.w	r3, #4294967295	@ 0xffffffff
  2e:	e9c4 3547 	strd	r3, r5, [r4, #284]	@ 0x11c
  32:	2000      	movs	r0, #0
  34:	f8c4 0118 	str.w	r0, [r4, #280]	@ 0x118
  38:	bd38      	pop	{r3, r4, r5, pc}
  3a:	f06f 00ac 	mvn.w	r0, #172	@ 0xac
  3e:	e7fb      	b.n	38 <wc_AesGcmSetExtIV+0x38>

Disassembly of section .text.wc_AesGcmSetIV:

00000000 <wc_AesGcmSetIV>:
   0:	e92d 41f0 	stmdb	sp!, {r4, r5, r6, r7, r8, lr}
   4:	f8dd 8018 	ldr.w	r8, [sp, #24]
   8:	460e      	mov	r6, r1
   a:	461d      	mov	r5, r3
   c:	4611      	mov	r1, r2
   e:	4604      	mov	r4, r0
  10:	b168      	cbz	r0, 2e <wc_AesGcmSetIV+0x2e>
  12:	f1b8 0f00 	cmp.w	r8, #0
  16:	d00a      	beq.n	2e <wc_AesGcmSetIV+0x2e>
  18:	f1a6 0208 	sub.w	r2, r6, #8
  1c:	2a08      	cmp	r2, #8
  1e:	d806      	bhi.n	2e <wc_AesGcmSetIV+0x2e>
  20:	f240 1311 	movw	r3, #273	@ 0x111
  24:	40d3      	lsrs	r3, r2
  26:	07db      	lsls	r3, r3, #31
  28:	d501      	bpl.n	2e <wc_AesGcmSetIV+0x2e>
  2a:	b919      	cbnz	r1, 34 <wc_AesGcmSetIV+0x34>
  2c:	b1dd      	cbz	r5, 66 <wc_AesGcmSetIV+0x66>
  2e:	f06f 00ac 	mvn.w	r0, #172	@ 0xac
  32:	e016      	b.n	62 <wc_AesGcmSetIV+0x62>
  34:	2d04      	cmp	r5, #4
  36:	d1fa      	bne.n	2e <wc_AesGcmSetIV+0x2e>
  38:	f100 07f8 	add.w	r7, r0, #248	@ 0xf8
  3c:	462a      	mov	r2, r5
  3e:	4638      	mov	r0, r7
  40:	f7ff fffe 	bl	0 <memcpy>
  44:	1b72      	subs	r2, r6, r5
  46:	1979      	adds	r1, r7, r5
  48:	4640      	mov	r0, r8
  4a:	f7ff fffe 	bl	0 <wc_RNG_GenerateBlock>
  4e:	b940      	cbnz	r0, 62 <wc_AesGcmSetIV+0x62>
  50:	f1b6 030c 	subs.w	r3, r6, #12
  54:	bf18      	it	ne
  56:	f04f 33ff 	movne.w	r3, #4294967295	@ 0xffffffff
  5a:	e9c4 3647 	strd	r3, r6, [r4, #284]	@ 0x11c
  5e:	f8c4 0118 	str.w	r0, [r4, #280]	@ 0x118
  62:	e8bd 81f0 	ldmia.w	sp!, {r4, r5, r6, r7, r8, pc}
  66:	f100 07f8 	add.w	r7, r0, #248	@ 0xf8
  6a:	e7eb      	b.n	44 <wc_AesGcmSetIV+0x44>

Disassembly of section .text.wc_AesGcmEncrypt_ex:

00000000 <wc_AesGcmEncrypt_ex>:
   0:	e92d 4ff0 	stmdb	sp!, {r4, r5, r6, r7, r8, r9, sl, fp, lr}
   4:	4604      	mov	r4, r0
   6:	b087      	sub	sp, #28
   8:	e9dd 0510 	ldrd	r0, r5, [sp, #64]	@ 0x40
   c:	e9dd 9a14 	ldrd	r9, sl, [sp, #80]	@ 0x50
  10:	460f      	mov	r7, r1
  12:	4690      	mov	r8, r2
  14:	469b      	mov	fp, r3
  16:	2c00      	cmp	r4, #0
  18:	d047      	beq.n	aa <wc_AesGcmEncrypt_ex+0xaa>
  1a:	b11b      	cbz	r3, 24 <wc_AesGcmEncrypt_ex+0x24>
  1c:	2a00      	cmp	r2, #0
  1e:	d044      	beq.n	aa <wc_AesGcmEncrypt_ex+0xaa>
  20:	2900      	cmp	r1, #0
  22:	d042      	beq.n	aa <wc_AesGcmEncrypt_ex+0xaa>
  24:	2800      	cmp	r0, #0
  26:	d040      	beq.n	aa <wc_AesGcmEncrypt_ex+0xaa>
  28:	f8d4 3120 	ldr.w	r3, [r4, #288]	@ 0x120
  2c:	42ab      	cmp	r3, r5
  2e:	d13c      	bne.n	aa <wc_AesGcmEncrypt_ex+0xaa>
  30:	f1b9 0f00 	cmp.w	r9, #0
  34:	d102      	bne.n	3c <wc_AesGcmEncrypt_ex+0x3c>
  36:	f1ba 0f00 	cmp.w	sl, #0
  3a:	d136      	bne.n	aa <wc_AesGcmEncrypt_ex+0xaa>
  3c:	f8d4 3118 	ldr.w	r3, [r4, #280]	@ 0x118
  40:	3301      	adds	r3, #1
  42:	f8c4 3118 	str.w	r3, [r4, #280]	@ 0x118
  46:	b33b      	cbz	r3, 98 <wc_AesGcmEncrypt_ex+0x98>
  48:	f104 06f8 	add.w	r6, r4, #248	@ 0xf8
  4c:	462a      	mov	r2, r5
  4e:	4631      	mov	r1, r6
  50:	f7ff fffe 	bl	0 <memcpy>
  54:	9b13      	ldr	r3, [sp, #76]	@ 0x4c
  56:	9303      	str	r3, [sp, #12]
  58:	9b12      	ldr	r3, [sp, #72]	@ 0x48
  5a:	9600      	str	r6, [sp, #0]
  5c:	e9cd 5301 	strd	r5, r3, [sp, #4]
  60:	e9cd 9a04 	strd	r9, sl, [sp, #16]
  64:	465b      	mov	r3, fp
  66:	4642      	mov	r2, r8
  68:	4639      	mov	r1, r7
  6a:	4620      	mov	r0, r4
  6c:	f7ff fffe 	bl	0 <wc_AesGcmEncrypt_ex>
  70:	b978      	cbnz	r0, 92 <wc_AesGcmEncrypt_ex+0x92>
  72:	35f8      	adds	r5, #248	@ 0xf8
  74:	4425      	add	r5, r4
  76:	f1c4 24ff 	rsb	r4, r4, #4278255360	@ 0xff00ff00
  7a:	f504 047f 	add.w	r4, r4, #16711680	@ 0xff0000
  7e:	3407      	adds	r4, #7
  80:	42ec      	cmn	r4, r5
  82:	d406      	bmi.n	92 <wc_AesGcmEncrypt_ex+0x92>
  84:	f815 3d01 	ldrb.w	r3, [r5, #-1]!
  88:	3301      	adds	r3, #1
  8a:	b2db      	uxtb	r3, r3
  8c:	702b      	strb	r3, [r5, #0]
  8e:	2b00      	cmp	r3, #0
  90:	d0f6      	beq.n	80 <wc_AesGcmEncrypt_ex+0x80>
  92:	b007      	add	sp, #28
  94:	e8bd 8ff0 	ldmia.w	sp!, {r4, r5, r6, r7, r8, r9, sl, fp, pc}
  98:	f8d4 611c 	ldr.w	r6, [r4, #284]	@ 0x11c
  9c:	3601      	adds	r6, #1
  9e:	f8c4 611c 	str.w	r6, [r4, #284]	@ 0x11c
  a2:	2e00      	cmp	r6, #0
  a4:	d1d0      	bne.n	48 <wc_AesGcmEncrypt_ex+0x48>
  a6:	4802      	ldr	r0, [pc, #8]	@ (b0 <wc_AesGcmEncrypt_ex+0xb0>)
  a8:	e7f3      	b.n	92 <wc_AesGcmEncrypt_ex+0x92>
  aa:	f06f 00ac 	mvn.w	r0, #172	@ 0xac
  ae:	e7f0      	b.n	92 <wc_AesGcmEncrypt_ex+0x92>
  b0:	fffffefc 	.word	0xfffffefc

Disassembly of section .text.wc_Gmac:

00000000 <wc_Gmac>:
   0:	e92d 4ff0 	stmdb	sp!, {r4, r5, r6, r7, r8, r9, sl, fp, lr}
   4:	b0d5      	sub	sp, #340	@ 0x154
   6:	468c      	mov	ip, r1
   8:	e9dd 9a5e 	ldrd	r9, sl, [sp, #376]	@ 0x178
   c:	e9dd 7860 	ldrd	r7, r8, [sp, #384]	@ 0x180
  10:	f8dd b188 	ldr.w	fp, [sp, #392]	@ 0x188
  14:	4615      	mov	r5, r2
  16:	461e      	mov	r6, r3
  18:	4601      	mov	r1, r0
  1a:	b3b8      	cbz	r0, 8c <wc_Gmac+0x8c>
  1c:	b3b2      	cbz	r2, 8c <wc_Gmac+0x8c>
  1e:	f1b9 0f00 	cmp.w	r9, #0
  22:	d102      	bne.n	2a <wc_Gmac+0x2a>
  24:	f1ba 0f00 	cmp.w	sl, #0
  28:	d130      	bne.n	8c <wc_Gmac+0x8c>
  2a:	b37f      	cbz	r7, 8c <wc_Gmac+0x8c>
  2c:	f1b8 0f00 	cmp.w	r8, #0
  30:	d02c      	beq.n	8c <wc_Gmac+0x8c>
  32:	f1bb 0f00 	cmp.w	fp, #0
  36:	d029      	beq.n	8c <wc_Gmac+0x8c>
  38:	ac06      	add	r4, sp, #24
  3a:	2300      	movs	r3, #0
  3c:	4662      	mov	r2, ip
  3e:	4620      	mov	r0, r4
  40:	f8c4 3134 	str.w	r3, [r4, #308]	@ 0x134
  44:	f8c4 30f0 	str.w	r3, [r4, #240]	@ 0xf0
  48:	f7ff fffe 	bl	0 <wc_Gmac>
  4c:	b9a0      	cbnz	r0, 78 <wc_Gmac+0x78>
  4e:	4603      	mov	r3, r0
  50:	4602      	mov	r2, r0
  52:	f8cd b000 	str.w	fp, [sp]
  56:	4631      	mov	r1, r6
  58:	4620      	mov	r0, r4
  5a:	f7ff fffe 	bl	0 <wc_Gmac>
  5e:	b958      	cbnz	r0, 78 <wc_Gmac+0x78>
  60:	4603      	mov	r3, r0
  62:	4602      	mov	r2, r0
  64:	4601      	mov	r1, r0
  66:	e9cd 9a04 	strd	r9, sl, [sp, #16]
  6a:	e9cd 7802 	strd	r7, r8, [sp, #8]
  6e:	e9cd 5600 	strd	r5, r6, [sp]
  72:	4620      	mov	r0, r4
  74:	f7ff fffe 	bl	0 <wc_Gmac>
  78:	2200      	movs	r2, #0
  7a:	4611      	mov	r1, r2
  7c:	54a1      	strb	r1, [r4, r2]
  7e:	3201      	adds	r2, #1
  80:	f5b2 7f9c 	cmp.w	r2, #312	@ 0x138
  84:	d1fa      	bne.n	7c <wc_Gmac+0x7c>
  86:	b055      	add	sp, #340	@ 0x154
  88:	e8bd 8ff0 	ldmia.w	sp!, {r4, r5, r6, r7, r8, r9, sl, fp, pc}
  8c:	f06f 00ac 	mvn.w	r0, #172	@ 0xac
  90:	e7f9      	b.n	86 <wc_Gmac+0x86>

Disassembly of section .text.wc_GmacVerify:

00000000 <wc_GmacVerify>:
   0:	e92d 47f0 	stmdb	sp!, {r4, r5, r6, r7, r8, r9, sl, lr}
   4:	b0d4      	sub	sp, #336	@ 0x150
   6:	468c      	mov	ip, r1
   8:	e9dd 895c 	ldrd	r8, r9, [sp, #368]	@ 0x170
   c:	e9dd 675e 	ldrd	r6, r7, [sp, #376]	@ 0x178
  10:	4615      	mov	r5, r2
  12:	469a      	mov	sl, r3
  14:	4601      	mov	r1, r0
  16:	b358      	cbz	r0, 70 <wc_GmacVerify+0x70>
  18:	b352      	cbz	r2, 70 <wc_GmacVerify+0x70>
  1a:	f1b8 0f00 	cmp.w	r8, #0
  1e:	d102      	bne.n	26 <wc_GmacVerify+0x26>
  20:	f1b9 0f00 	cmp.w	r9, #0
  24:	d124      	bne.n	70 <wc_GmacVerify+0x70>
  26:	b31e      	cbz	r6, 70 <wc_GmacVerify+0x70>
  28:	1e7b      	subs	r3, r7, #1
  2a:	2b0f      	cmp	r3, #15
  2c:	d820      	bhi.n	70 <wc_GmacVerify+0x70>
  2e:	ac06      	add	r4, sp, #24
  30:	2300      	movs	r3, #0
  32:	4662      	mov	r2, ip
  34:	4620      	mov	r0, r4
  36:	f8c4 3134 	str.w	r3, [r4, #308]	@ 0x134
  3a:	f8c4 30f0 	str.w	r3, [r4, #240]	@ 0xf0
  3e:	f7ff fffe 	bl	0 <wc_GmacVerify>
  42:	b958      	cbnz	r0, 5c <wc_GmacVerify+0x5c>
  44:	4603      	mov	r3, r0
  46:	4602      	mov	r2, r0
  48:	4601      	mov	r1, r0
  4a:	e9cd 8904 	strd	r8, r9, [sp, #16]
  4e:	e9cd 6702 	strd	r6, r7, [sp, #8]
  52:	e9cd 5a00 	strd	r5, sl, [sp]
  56:	4620      	mov	r0, r4
  58:	f7ff fffe 	bl	0 <wc_GmacVerify>
  5c:	2300      	movs	r3, #0
  5e:	461a      	mov	r2, r3
  60:	54e2      	strb	r2, [r4, r3]
  62:	3301      	adds	r3, #1
  64:	f5b3 7f9c 	cmp.w	r3, #312	@ 0x138
  68:	d1fa      	bne.n	60 <wc_GmacVerify+0x60>
  6a:	b054      	add	sp, #336	@ 0x150
  6c:	e8bd 87f0 	ldmia.w	sp!, {r4, r5, r6, r7, r8, r9, sl, pc}
  70:	f06f 00ac 	mvn.w	r0, #172	@ 0xac
  74:	e7f9      	b.n	6a <wc_GmacVerify+0x6a>

Disassembly of section .text.wc_GmacSetKey:

00000000 <wc_GmacSetKey>:
   0:	b110      	cbz	r0, 8 <wc_GmacSetKey+0x8>
   2:	b109      	cbz	r1, 8 <wc_GmacSetKey+0x8>
   4:	f7ff bffe 	b.w	0 <wc_GmacSetKey>
   8:	f06f 00ac 	mvn.w	r0, #172	@ 0xac
   c:	4770      	bx	lr

Disassembly of section .text.wc_GmacUpdate:

00000000 <wc_GmacUpdate>:
   0:	b510      	push	{r4, lr}
   2:	b086      	sub	sp, #24
   4:	b178      	cbz	r0, 26 <wc_GmacUpdate+0x26>
   6:	9c08      	ldr	r4, [sp, #32]
   8:	9100      	str	r1, [sp, #0]
   a:	e9cd 3404 	strd	r3, r4, [sp, #16]
   e:	9b0a      	ldr	r3, [sp, #40]	@ 0x28
  10:	9303      	str	r3, [sp, #12]
  12:	9b09      	ldr	r3, [sp, #36]	@ 0x24
  14:	e9cd 2301 	strd	r2, r3, [sp, #4]
  18:	2300      	movs	r3, #0
  1a:	461a      	mov	r2, r3
  1c:	4619      	mov	r1, r3
  1e:	f7ff fffe 	bl	0 <wc_GmacUpdate>
  22:	b006      	add	sp, #24
  24:	bd10      	pop	{r4, pc}
  26:	f06f 00ac 	mvn.w	r0, #172	@ 0xac
  2a:	e7fa      	b.n	22 <wc_GmacUpdate+0x22>

Disassembly of section .text.wc_AesInit:

00000000 <wc_AesInit>:
   0:	4603      	mov	r3, r0
   2:	b128      	cbz	r0, 10 <wc_AesInit+0x10>
   4:	f8c0 1134 	str.w	r1, [r0, #308]	@ 0x134
   8:	2000      	movs	r0, #0
   a:	f8c3 00f0 	str.w	r0, [r3, #240]	@ 0xf0
   e:	4770      	bx	lr
  10:	f06f 00ac 	mvn.w	r0, #172	@ 0xac
  14:	4770      	bx	lr

Disassembly of section .text.wc_AesFree:

00000000 <wc_AesFree>:
   0:	4770      	bx	lr

Disassembly of section .text.wc_AesGetKeySize:

00000000 <wc_AesGetKeySize>:
   0:	b190      	cbz	r0, 28 <wc_AesGetKeySize+0x28>
   2:	b189      	cbz	r1, 28 <wc_AesGetKeySize+0x28>
   4:	f8d0 30f0 	ldr.w	r3, [r0, #240]	@ 0xf0
   8:	2b0c      	cmp	r3, #12
   a:	d007      	beq.n	1c <wc_AesGetKeySize+0x1c>
   c:	2b0e      	cmp	r3, #14
   e:	d007      	beq.n	20 <wc_AesGetKeySize+0x20>
  10:	2b0a      	cmp	r3, #10
  12:	d107      	bne.n	24 <wc_AesGetKeySize+0x24>
  14:	2310      	movs	r3, #16
  16:	600b      	str	r3, [r1, #0]
  18:	2000      	movs	r0, #0
  1a:	4770      	bx	lr
  1c:	2318      	movs	r3, #24
  1e:	e7fa      	b.n	16 <wc_AesGetKeySize+0x16>
  20:	2320      	movs	r3, #32
  22:	e7f8      	b.n	16 <wc_AesGetKeySize+0x16>
  24:	2300      	movs	r3, #0
  26:	600b      	str	r3, [r1, #0]
  28:	f06f 00ac 	mvn.w	r0, #172	@ 0xac
  2c:	4770      	bx	lr

cmac.o:     file format elf32-littlearm


des3.o:     file format elf32-littlearm


dh.o:     file format elf32-littlearm


Disassembly of section .text._ffc_validate_public_key:

00000000 <_ffc_validate_public_key>:
   0:	e92d 41f0 	stmdb	sp!, {r4, r5, r6, r7, r8, lr}
   4:	f5ad 6d13 	sub.w	sp, sp, #2352	@ 0x930
   8:	460c      	mov	r4, r1
   a:	f8dd 794c 	ldr.w	r7, [sp, #2380]	@ 0x94c
   e:	4690      	mov	r8, r2
  10:	461e      	mov	r6, r3
  12:	4605      	mov	r5, r0
  14:	2800      	cmp	r0, #0
  16:	d05e      	beq.n	d6 <_ffc_validate_public_key+0xd6>
  18:	2900      	cmp	r1, #0
  1a:	d05c      	beq.n	d6 <_ffc_validate_public_key+0xd6>
  1c:	2300      	movs	r3, #0
  1e:	e9cd 3300 	strd	r3, r3, [sp]
  22:	f20d 6224 	addw	r2, sp, #1572	@ 0x624
  26:	a9c6      	add	r1, sp, #792	@ 0x318
  28:	a803      	add	r0, sp, #12
  2a:	f7ff fffe 	bl	0 <sp_init_multi>
  2e:	2800      	cmp	r0, #0
  30:	d154      	bne.n	dc <_ffc_validate_public_key+0xdc>
  32:	4621      	mov	r1, r4
  34:	4642      	mov	r2, r8
  36:	a803      	add	r0, sp, #12
  38:	f7ff fffe 	bl	0 <sp_read_unsigned_bin>
  3c:	4604      	mov	r4, r0
  3e:	bb90      	cbnz	r0, a6 <_ffc_validate_public_key+0xa6>
  40:	b39e      	cbz	r6, aa <_ffc_validate_public_key+0xaa>
  42:	f8dd 2948 	ldr.w	r2, [sp, #2376]	@ 0x948
  46:	4631      	mov	r1, r6
  48:	f20d 6024 	addw	r0, sp, #1572	@ 0x624
  4c:	f7ff fffe 	bl	0 <sp_read_unsigned_bin>
  50:	bb80      	cbnz	r0, b4 <_ffc_validate_public_key+0xb4>
  52:	2102      	movs	r1, #2
  54:	a803      	add	r0, sp, #12
  56:	f7ff fffe 	bl	0 <sp_cmp_d>
  5a:	3001      	adds	r0, #1
  5c:	d012      	beq.n	84 <_ffc_validate_public_key+0x84>
  5e:	a9c6      	add	r1, sp, #792	@ 0x318
  60:	4628      	mov	r0, r5
  62:	f7ff fffe 	bl	0 <sp_copy>
  66:	bb80      	cbnz	r0, ca <_ffc_validate_public_key+0xca>
  68:	aac6      	add	r2, sp, #792	@ 0x318
  6a:	2102      	movs	r1, #2
  6c:	4610      	mov	r0, r2
  6e:	f7ff fffe 	bl	0 <sp_sub_d>
  72:	4604      	mov	r4, r0
  74:	2800      	cmp	r0, #0
  76:	d155      	bne.n	124 <_ffc_validate_public_key+0x124>
  78:	a9c6      	add	r1, sp, #792	@ 0x318
  7a:	a803      	add	r0, sp, #12
  7c:	f7ff fffe 	bl	0 <sp_cmp>
  80:	2801      	cmp	r0, #1
  82:	d12e      	bne.n	e2 <_ffc_validate_public_key+0xe2>
  84:	f06f 0477 	mvn.w	r4, #119	@ 0x77
  88:	a803      	add	r0, sp, #12
  8a:	f7ff fffe 	bl	0 <sp_clear>
  8e:	a8c6      	add	r0, sp, #792	@ 0x318
  90:	f7ff fffe 	bl	0 <sp_clear>
  94:	f20d 6024 	addw	r0, sp, #1572	@ 0x624
  98:	f7ff fffe 	bl	0 <sp_clear>
  9c:	4620      	mov	r0, r4
  9e:	f50d 6d13 	add.w	sp, sp, #2352	@ 0x930
  a2:	e8bd 81f0 	ldmia.w	sp!, {r4, r5, r6, r7, r8, pc}
  a6:	f06f 046e 	mvn.w	r4, #110	@ 0x6e
  aa:	f8d5 3618 	ldr.w	r3, [r5, #1560]	@ 0x618
  ae:	b923      	cbnz	r3, ba <_ffc_validate_public_key+0xba>
  b0:	2c00      	cmp	r4, #0
  b2:	d0ce      	beq.n	52 <_ffc_validate_public_key+0x52>
  b4:	f06f 046e 	mvn.w	r4, #110	@ 0x6e
  b8:	e7e6      	b.n	88 <_ffc_validate_public_key+0x88>
  ba:	f20d 6124 	addw	r1, sp, #1572	@ 0x624
  be:	f505 60c3 	add.w	r0, r5, #1560	@ 0x618
  c2:	f7ff fffe 	bl	0 <sp_copy>
  c6:	2800      	cmp	r0, #0
  c8:	d0f2      	beq.n	b0 <_ffc_validate_public_key+0xb0>
  ca:	f06f 046d 	mvn.w	r4, #109	@ 0x6d
  ce:	e7db      	b.n	88 <_ffc_validate_public_key+0x88>
  d0:	f06f 046f 	mvn.w	r4, #111	@ 0x6f
  d4:	e7d8      	b.n	88 <_ffc_validate_public_key+0x88>
  d6:	f06f 04ac 	mvn.w	r4, #172	@ 0xac
  da:	e7df      	b.n	9c <_ffc_validate_public_key+0x9c>
  dc:	f06f 046d 	mvn.w	r4, #109	@ 0x6d
  e0:	e7dc      	b.n	9c <_ffc_validate_public_key+0x9c>
  e2:	2f00      	cmp	r7, #0
  e4:	d1d0      	bne.n	88 <_ffc_validate_public_key+0x88>
  e6:	b91e      	cbnz	r6, f0 <_ffc_validate_public_key+0xf0>
  e8:	f8d5 3618 	ldr.w	r3, [r5, #1560]	@ 0x618
  ec:	2b00      	cmp	r3, #0
  ee:	d0cb      	beq.n	88 <_ffc_validate_public_key+0x88>
  f0:	a9c6      	add	r1, sp, #792	@ 0x318
  f2:	4628      	mov	r0, r5
  f4:	f7ff fffe 	bl	0 <sp_copy>
  f8:	2800      	cmp	r0, #0
  fa:	d1e6      	bne.n	ca <_ffc_validate_public_key+0xca>
  fc:	2e00      	cmp	r6, #0
  fe:	d0c3      	beq.n	88 <_ffc_validate_public_key+0x88>
 100:	ab03      	add	r3, sp, #12
 102:	aac6      	add	r2, sp, #792	@ 0x318
 104:	f20d 6124 	addw	r1, sp, #1572	@ 0x624
 108:	4618      	mov	r0, r3
 10a:	f7ff fffe 	bl	0 <sp_exptmod>
 10e:	2800      	cmp	r0, #0
 110:	d1de      	bne.n	d0 <_ffc_validate_public_key+0xd0>
 112:	2101      	movs	r1, #1
 114:	a803      	add	r0, sp, #12
 116:	f7ff fffe 	bl	0 <sp_cmp_d>
 11a:	2800      	cmp	r0, #0
 11c:	bf18      	it	ne
 11e:	f06f 0477 	mvnne.w	r4, #119	@ 0x77
 122:	e7b1      	b.n	88 <_ffc_validate_public_key+0x88>
 124:	f06f 0471 	mvn.w	r4, #113	@ 0x71
 128:	e7ae      	b.n	88 <_ffc_validate_public_key+0x88>

Disassembly of section .text._ffc_pairwise_consistency_test:

00000000 <_ffc_pairwise_consistency_test>:
   0:	b5f0      	push	{r4, r5, r6, r7, lr}
   2:	460e      	mov	r6, r1
   4:	f6ad 1d34 	subw	sp, sp, #2356	@ 0x934
   8:	4617      	mov	r7, r2
   a:	461d      	mov	r5, r3
   c:	4604      	mov	r4, r0
   e:	2800      	cmp	r0, #0
  10:	d047      	beq.n	a2 <_ffc_pairwise_consistency_test+0xa2>
  12:	2900      	cmp	r1, #0
  14:	d045      	beq.n	a2 <_ffc_pairwise_consistency_test+0xa2>
  16:	2b00      	cmp	r3, #0
  18:	d043      	beq.n	a2 <_ffc_pairwise_consistency_test+0xa2>
  1a:	6803      	ldr	r3, [r0, #0]
  1c:	b113      	cbz	r3, 24 <_ffc_pairwise_consistency_test+0x24>
  1e:	6883      	ldr	r3, [r0, #8]
  20:	07db      	lsls	r3, r3, #31
  22:	d541      	bpl.n	a8 <_ffc_pairwise_consistency_test+0xa8>
  24:	2300      	movs	r3, #0
  26:	e9cd 3300 	strd	r3, r3, [sp]
  2a:	f20d 6224 	addw	r2, sp, #1572	@ 0x624
  2e:	a9c6      	add	r1, sp, #792	@ 0x318
  30:	a803      	add	r0, sp, #12
  32:	f7ff fffe 	bl	0 <sp_init_multi>
  36:	2800      	cmp	r0, #0
  38:	d139      	bne.n	ae <_ffc_pairwise_consistency_test+0xae>
  3a:	463a      	mov	r2, r7
  3c:	4631      	mov	r1, r6
  3e:	a803      	add	r0, sp, #12
  40:	f7ff fffe 	bl	0 <sp_read_unsigned_bin>
  44:	b178      	cbz	r0, 66 <_ffc_pairwise_consistency_test+0x66>
  46:	f06f 046e 	mvn.w	r4, #110	@ 0x6e
  4a:	a8c6      	add	r0, sp, #792	@ 0x318
  4c:	f7ff fffe 	bl	0 <sp_forcezero>
  50:	a803      	add	r0, sp, #12
  52:	f7ff fffe 	bl	0 <sp_clear>
  56:	f20d 6024 	addw	r0, sp, #1572	@ 0x624
  5a:	f7ff fffe 	bl	0 <sp_clear>
  5e:	4620      	mov	r0, r4
  60:	f60d 1d34 	addw	sp, sp, #2356	@ 0x934
  64:	bdf0      	pop	{r4, r5, r6, r7, pc}
  66:	f8dd 2948 	ldr.w	r2, [sp, #2376]	@ 0x948
  6a:	4629      	mov	r1, r5
  6c:	a8c6      	add	r0, sp, #792	@ 0x318
  6e:	f7ff fffe 	bl	0 <sp_read_unsigned_bin>
  72:	2800      	cmp	r0, #0
  74:	d1e7      	bne.n	46 <_ffc_pairwise_consistency_test+0x46>
  76:	f20d 6324 	addw	r3, sp, #1572	@ 0x624
  7a:	4622      	mov	r2, r4
  7c:	a9c6      	add	r1, sp, #792	@ 0x318
  7e:	f504 7043 	add.w	r0, r4, #780	@ 0x30c
  82:	f7ff fffe 	bl	0 <sp_exptmod>
  86:	b948      	cbnz	r0, 9c <_ffc_pairwise_consistency_test+0x9c>
  88:	a903      	add	r1, sp, #12
  8a:	f20d 6024 	addw	r0, sp, #1572	@ 0x624
  8e:	f7ff fffe 	bl	0 <sp_cmp>
  92:	1e04      	subs	r4, r0, #0
  94:	bf18      	it	ne
  96:	f06f 0477 	mvnne.w	r4, #119	@ 0x77
  9a:	e7d6      	b.n	4a <_ffc_pairwise_consistency_test+0x4a>
  9c:	f06f 046f 	mvn.w	r4, #111	@ 0x6f
  a0:	e7d3      	b.n	4a <_ffc_pairwise_consistency_test+0x4a>
  a2:	f06f 04ac 	mvn.w	r4, #172	@ 0xac
  a6:	e7da      	b.n	5e <_ffc_pairwise_consistency_test+0x5e>
  a8:	f06f 0402 	mvn.w	r4, #2
  ac:	e7d7      	b.n	5e <_ffc_pairwise_consistency_test+0x5e>
  ae:	f06f 046d 	mvn.w	r4, #109	@ 0x6d
  b2:	e7d4      	b.n	5e <_ffc_pairwise_consistency_test+0x5e>

Disassembly of section .text.GeneratePrivateDh186:

00000000 <GeneratePrivateDh186>:
   0:	e92d 43f0 	stmdb	sp!, {r4, r5, r6, r7, r8, r9, lr}
   4:	461d      	mov	r5, r3
   6:	f8d0 3618 	ldr.w	r3, [r0, #1560]	@ 0x618
   a:	f5ad 5d91 	sub.w	sp, sp, #4640	@ 0x1220
   e:	b083      	sub	sp, #12
  10:	4681      	mov	r9, r0
  12:	4688      	mov	r8, r1
  14:	4616      	mov	r6, r2
  16:	b1a3      	cbz	r3, 42 <GeneratePrivateDh186+0x42>
  18:	f500 67c3 	add.w	r7, r0, #1560	@ 0x618
  1c:	4638      	mov	r0, r7
  1e:	f7ff fffe 	bl	0 <sp_unsigned_bin_size>
  22:	4604      	mov	r4, r0
  24:	4648      	mov	r0, r9
  26:	f7ff fffe 	bl	0 <sp_unsigned_bin_size>
  2a:	f8d9 3928 	ldr.w	r3, [r9, #2344]	@ 0x928
  2e:	b993      	cbnz	r3, 56 <GeneratePrivateDh186+0x56>
  30:	00c0      	lsls	r0, r0, #3
  32:	f5b0 6f80 	cmp.w	r0, #1024	@ 0x400
  36:	ea4f 03c4 	mov.w	r3, r4, lsl #3
  3a:	d00a      	beq.n	52 <GeneratePrivateDh186+0x52>
  3c:	f5b0 6f00 	cmp.w	r0, #2048	@ 0x800
  40:	d02f      	beq.n	a2 <GeneratePrivateDh186+0xa2>
  42:	f06f 04ac 	mvn.w	r4, #172	@ 0xac
  46:	4620      	mov	r0, r4
  48:	f50d 5d91 	add.w	sp, sp, #4640	@ 0x1220
  4c:	b003      	add	sp, #12
  4e:	e8bd 83f0 	ldmia.w	sp!, {r4, r5, r6, r7, r8, r9, pc}
  52:	2ba0      	cmp	r3, #160	@ 0xa0
  54:	d1f5      	bne.n	42 <GeneratePrivateDh186+0x42>
  56:	2300      	movs	r3, #0
  58:	f8d5 9000 	ldr.w	r9, [r5]
  5c:	461a      	mov	r2, r3
  5e:	e9cd 3300 	strd	r3, r3, [sp]
  62:	a902      	add	r1, sp, #8
  64:	a8c5      	add	r0, sp, #788	@ 0x314
  66:	f7ff fffe 	bl	0 <sp_init_multi>
  6a:	4604      	mov	r4, r0
  6c:	2800      	cmp	r0, #0
  6e:	d1ea      	bne.n	46 <GeneratePrivateDh186+0x46>
  70:	f109 0908 	add.w	r9, r9, #8
  74:	464a      	mov	r2, r9
  76:	f50d 61c4 	add.w	r1, sp, #1568	@ 0x620
  7a:	4640      	mov	r0, r8
  7c:	f7ff fffe 	bl	0 <wc_RNG_GenerateBlock>
  80:	4604      	mov	r4, r0
  82:	b938      	cbnz	r0, 94 <GeneratePrivateDh186+0x94>
  84:	464a      	mov	r2, r9
  86:	f50d 61c4 	add.w	r1, sp, #1568	@ 0x620
  8a:	a8c5      	add	r0, sp, #788	@ 0x314
  8c:	f7ff fffe 	bl	0 <sp_read_unsigned_bin>
  90:	4604      	mov	r4, r0
  92:	b158      	cbz	r0, ac <GeneratePrivateDh186+0xac>
  94:	a8c5      	add	r0, sp, #788	@ 0x314
  96:	f7ff fffe 	bl	0 <sp_clear>
  9a:	a802      	add	r0, sp, #8
  9c:	f7ff fffe 	bl	0 <sp_clear>
  a0:	e7d1      	b.n	46 <GeneratePrivateDh186+0x46>
  a2:	2be0      	cmp	r3, #224	@ 0xe0
  a4:	d0d7      	beq.n	56 <GeneratePrivateDh186+0x56>
  a6:	f5b3 7f80 	cmp.w	r3, #256	@ 0x100
  aa:	e7d3      	b.n	54 <GeneratePrivateDh186+0x54>
  ac:	2101      	movs	r1, #1
  ae:	a8c5      	add	r0, sp, #788	@ 0x314
  b0:	f7ff fffe 	bl	0 <sp_cmp_d>
  b4:	2801      	cmp	r0, #1
  b6:	d1dd      	bne.n	74 <GeneratePrivateDh186+0x74>
  b8:	f50d 63c4 	add.w	r3, sp, #1568	@ 0x620
  bc:	4620      	mov	r0, r4
  be:	f1b9 0901 	subs.w	r9, r9, #1
  c2:	d22e      	bcs.n	122 <GeneratePrivateDh186+0x122>
  c4:	6829      	ldr	r1, [r5, #0]
  c6:	a802      	add	r0, sp, #8
  c8:	00c9      	lsls	r1, r1, #3
  ca:	f7ff fffe 	bl	0 <sp_2expt>
  ce:	4604      	mov	r4, r0
  d0:	bb88      	cbnz	r0, 136 <GeneratePrivateDh186+0x136>
  d2:	4639      	mov	r1, r7
  d4:	a802      	add	r0, sp, #8
  d6:	f7ff fffe 	bl	0 <sp_cmp>
  da:	2801      	cmp	r0, #1
  dc:	d024      	beq.n	128 <GeneratePrivateDh186+0x128>
  de:	aa02      	add	r2, sp, #8
  e0:	2101      	movs	r1, #1
  e2:	4610      	mov	r0, r2
  e4:	f7ff fffe 	bl	0 <sp_sub_d>
  e8:	4604      	mov	r4, r0
  ea:	bb20      	cbnz	r0, 136 <GeneratePrivateDh186+0x136>
  ec:	aac5      	add	r2, sp, #788	@ 0x314
  ee:	a902      	add	r1, sp, #8
  f0:	4610      	mov	r0, r2
  f2:	f7ff fffe 	bl	0 <sp_mod>
  f6:	4604      	mov	r4, r0
  f8:	b9e8      	cbnz	r0, 136 <GeneratePrivateDh186+0x136>
  fa:	aac5      	add	r2, sp, #788	@ 0x314
  fc:	2101      	movs	r1, #1
  fe:	4610      	mov	r0, r2
 100:	f7ff fffe 	bl	0 <sp_add_d>
 104:	4604      	mov	r4, r0
 106:	b9b0      	cbnz	r0, 136 <GeneratePrivateDh186+0x136>
 108:	a8c5      	add	r0, sp, #788	@ 0x314
 10a:	f7ff fffe 	bl	0 <sp_unsigned_bin_size>
 10e:	682b      	ldr	r3, [r5, #0]
 110:	4283      	cmp	r3, r0
 112:	d314      	bcc.n	13e <GeneratePrivateDh186+0x13e>
 114:	6028      	str	r0, [r5, #0]
 116:	4631      	mov	r1, r6
 118:	a8c5      	add	r0, sp, #788	@ 0x314
 11a:	f7ff fffe 	bl	0 <sp_to_unsigned_bin>
 11e:	4604      	mov	r4, r0
 120:	e009      	b.n	136 <GeneratePrivateDh186+0x136>
 122:	f803 0b01 	strb.w	r0, [r3], #1
 126:	e7ca      	b.n	be <GeneratePrivateDh186+0xbe>
 128:	a902      	add	r1, sp, #8
 12a:	4638      	mov	r0, r7
 12c:	f7ff fffe 	bl	0 <sp_copy>
 130:	4604      	mov	r4, r0
 132:	2800      	cmp	r0, #0
 134:	d0d3      	beq.n	de <GeneratePrivateDh186+0xde>
 136:	a8c5      	add	r0, sp, #788	@ 0x314
 138:	f7ff fffe 	bl	0 <sp_forcezero>
 13c:	e7ad      	b.n	9a <GeneratePrivateDh186+0x9a>
 13e:	f06f 04ac 	mvn.w	r4, #172	@ 0xac
 142:	e7f8      	b.n	136 <GeneratePrivateDh186+0x136>

Disassembly of section .text.GeneratePublicDh:

00000000 <GeneratePublicDh>:
   0:	e92d 43f0 	stmdb	sp!, {r4, r5, r6, r7, r8, r9, lr}
   4:	f2ad 6d24 	subw	sp, sp, #1572	@ 0x624
   8:	4605      	mov	r5, r0
   a:	f8dd 8640 	ldr.w	r8, [sp, #1600]	@ 0x640
   e:	460e      	mov	r6, r1
  10:	f8d8 9000 	ldr.w	r9, [r8]
  14:	4617      	mov	r7, r2
  16:	461c      	mov	r4, r3
  18:	f7ff fffe 	bl	0 <sp_unsigned_bin_size>
  1c:	4581      	cmp	r9, r0
  1e:	d335      	bcc.n	8c <GeneratePublicDh+0x8c>
  20:	2300      	movs	r3, #0
  22:	e9cd 3300 	strd	r3, r3, [sp]
  26:	461a      	mov	r2, r3
  28:	a9c5      	add	r1, sp, #788	@ 0x314
  2a:	a802      	add	r0, sp, #8
  2c:	f7ff fffe 	bl	0 <sp_init_multi>
  30:	bb78      	cbnz	r0, 92 <GeneratePublicDh+0x92>
  32:	463a      	mov	r2, r7
  34:	4631      	mov	r1, r6
  36:	a802      	add	r0, sp, #8
  38:	f7ff fffe 	bl	0 <sp_read_unsigned_bin>
  3c:	b9e8      	cbnz	r0, 7a <GeneratePublicDh+0x7a>
  3e:	abc5      	add	r3, sp, #788	@ 0x314
  40:	462a      	mov	r2, r5
  42:	a902      	add	r1, sp, #8
  44:	f505 7043 	add.w	r0, r5, #780	@ 0x30c
  48:	f7ff fffe 	bl	0 <sp_exptmod>
  4c:	b9c0      	cbnz	r0, 80 <GeneratePublicDh+0x80>
  4e:	4621      	mov	r1, r4
  50:	a8c5      	add	r0, sp, #788	@ 0x314
  52:	f7ff fffe 	bl	0 <sp_to_unsigned_bin>
  56:	4604      	mov	r4, r0
  58:	b9a8      	cbnz	r0, 86 <GeneratePublicDh+0x86>
  5a:	a8c5      	add	r0, sp, #788	@ 0x314
  5c:	f7ff fffe 	bl	0 <sp_unsigned_bin_size>
  60:	f8c8 0000 	str.w	r0, [r8]
  64:	a8c5      	add	r0, sp, #788	@ 0x314
  66:	f7ff fffe 	bl	0 <sp_clear>
  6a:	a802      	add	r0, sp, #8
  6c:	f7ff fffe 	bl	0 <sp_forcezero>
  70:	4620      	mov	r0, r4
  72:	f20d 6d24 	addw	sp, sp, #1572	@ 0x624
  76:	e8bd 83f0 	ldmia.w	sp!, {r4, r5, r6, r7, r8, r9, pc}
  7a:	f06f 046e 	mvn.w	r4, #110	@ 0x6e
  7e:	e7f1      	b.n	64 <GeneratePublicDh+0x64>
  80:	f06f 046f 	mvn.w	r4, #111	@ 0x6f
  84:	e7ee      	b.n	64 <GeneratePublicDh+0x64>
  86:	f06f 0470 	mvn.w	r4, #112	@ 0x70
  8a:	e7eb      	b.n	64 <GeneratePublicDh+0x64>
  8c:	f06f 04e9 	mvn.w	r4, #233	@ 0xe9
  90:	e7ee      	b.n	70 <GeneratePublicDh+0x70>
  92:	f06f 046d 	mvn.w	r4, #109	@ 0x6d
  96:	e7eb      	b.n	70 <GeneratePublicDh+0x70>

Disassembly of section .text.wc_DhAgree_Sync:

00000000 <wc_DhAgree_Sync>:
   0:	b5f0      	push	{r4, r5, r6, r7, lr}
   2:	461f      	mov	r7, r3
   4:	6803      	ldr	r3, [r0, #0]
   6:	f6ad 1d34 	subw	sp, sp, #2356	@ 0x934
   a:	4604      	mov	r4, r0
   c:	460e      	mov	r6, r1
   e:	4615      	mov	r5, r2
  10:	b113      	cbz	r3, 18 <wc_DhAgree_Sync+0x18>
  12:	6883      	ldr	r3, [r0, #8]
  14:	07db      	lsls	r3, r3, #31
  16:	d54e      	bpl.n	b6 <wc_DhAgree_Sync+0xb6>
  18:	2300      	movs	r3, #0
  1a:	e9cd 3300 	strd	r3, r3, [sp]
  1e:	f20d 6224 	addw	r2, sp, #1572	@ 0x624
  22:	a903      	add	r1, sp, #12
  24:	a8c6      	add	r0, sp, #792	@ 0x318
  26:	f7ff fffe 	bl	0 <sp_init_multi>
  2a:	2800      	cmp	r0, #0
  2c:	d146      	bne.n	bc <wc_DhAgree_Sync+0xbc>
  2e:	f8dd 2948 	ldr.w	r2, [sp, #2376]	@ 0x948
  32:	4639      	mov	r1, r7
  34:	a8c6      	add	r0, sp, #792	@ 0x318
  36:	f7ff fffe 	bl	0 <sp_read_unsigned_bin>
  3a:	b178      	cbz	r0, 5c <wc_DhAgree_Sync+0x5c>
  3c:	f06f 046e 	mvn.w	r4, #110	@ 0x6e
  40:	f20d 6024 	addw	r0, sp, #1572	@ 0x624
  44:	f7ff fffe 	bl	0 <sp_forcezero>
  48:	a803      	add	r0, sp, #12
  4a:	f7ff fffe 	bl	0 <sp_clear>
  4e:	a8c6      	add	r0, sp, #792	@ 0x318
  50:	f7ff fffe 	bl	0 <sp_forcezero>
  54:	4620      	mov	r0, r4
  56:	f60d 1d34 	addw	sp, sp, #2356	@ 0x934
  5a:	bdf0      	pop	{r4, r5, r6, r7, pc}
  5c:	f8dd 2950 	ldr.w	r2, [sp, #2384]	@ 0x950
  60:	f8dd 194c 	ldr.w	r1, [sp, #2380]	@ 0x94c
  64:	a803      	add	r0, sp, #12
  66:	f7ff fffe 	bl	0 <sp_read_unsigned_bin>
  6a:	2800      	cmp	r0, #0
  6c:	d1e6      	bne.n	3c <wc_DhAgree_Sync+0x3c>
  6e:	f20d 6324 	addw	r3, sp, #1572	@ 0x624
  72:	4622      	mov	r2, r4
  74:	a9c6      	add	r1, sp, #792	@ 0x318
  76:	a803      	add	r0, sp, #12
  78:	f7ff fffe 	bl	0 <sp_exptmod>
  7c:	b990      	cbnz	r0, a4 <wc_DhAgree_Sync+0xa4>
  7e:	2101      	movs	r1, #1
  80:	f20d 6024 	addw	r0, sp, #1572	@ 0x624
  84:	f7ff fffe 	bl	0 <sp_cmp_d>
  88:	b178      	cbz	r0, aa <wc_DhAgree_Sync+0xaa>
  8a:	4631      	mov	r1, r6
  8c:	f20d 6024 	addw	r0, sp, #1572	@ 0x624
  90:	f7ff fffe 	bl	0 <sp_to_unsigned_bin>
  94:	4604      	mov	r4, r0
  96:	b958      	cbnz	r0, b0 <wc_DhAgree_Sync+0xb0>
  98:	f20d 6024 	addw	r0, sp, #1572	@ 0x624
  9c:	f7ff fffe 	bl	0 <sp_unsigned_bin_size>
  a0:	6028      	str	r0, [r5, #0]
  a2:	e7cd      	b.n	40 <wc_DhAgree_Sync+0x40>
  a4:	f06f 046f 	mvn.w	r4, #111	@ 0x6f
  a8:	e7ca      	b.n	40 <wc_DhAgree_Sync+0x40>
  aa:	f06f 0402 	mvn.w	r4, #2
  ae:	e7c7      	b.n	40 <wc_DhAgree_Sync+0x40>
  b0:	f06f 0470 	mvn.w	r4, #112	@ 0x70
  b4:	e7c4      	b.n	40 <wc_DhAgree_Sync+0x40>
  b6:	f06f 0402 	mvn.w	r4, #2
  ba:	e7cb      	b.n	54 <wc_DhAgree_Sync+0x54>
  bc:	f06f 046d 	mvn.w	r4, #109	@ 0x6d
  c0:	e7c8      	b.n	54 <wc_DhAgree_Sync+0x54>

Disassembly of section .text._DhSetKey:

00000000 <_DhSetKey>:
   0:	e92d 4ff7 	stmdb	sp!, {r0, r1, r2, r4, r5, r6, r7, r8, r9, sl, fp, lr}
   4:	460c      	mov	r4, r1
   6:	e9dd 870c 	ldrd	r8, r7, [sp, #48]	@ 0x30
   a:	e9dd 9a0e 	ldrd	r9, sl, [sp, #56]	@ 0x38
   e:	4693      	mov	fp, r2
  10:	461e      	mov	r6, r3
  12:	4605      	mov	r5, r0
  14:	2800      	cmp	r0, #0
  16:	d063      	beq.n	e0 <_DhSetKey+0xe0>
  18:	2900      	cmp	r1, #0
  1a:	d061      	beq.n	e0 <_DhSetKey+0xe0>
  1c:	2b00      	cmp	r3, #0
  1e:	d05f      	beq.n	e0 <_DhSetKey+0xe0>
  20:	2a00      	cmp	r2, #0
  22:	d05d      	beq.n	e0 <_DhSetKey+0xe0>
  24:	f1b8 0f00 	cmp.w	r8, #0
  28:	d05a      	beq.n	e0 <_DhSetKey+0xe0>
  2a:	780b      	ldrb	r3, [r1, #0]
  2c:	b913      	cbnz	r3, 34 <_DhSetKey+0x34>
  2e:	f102 3bff 	add.w	fp, r2, #4294967295	@ 0xffffffff
  32:	3401      	adds	r4, #1
  34:	7833      	ldrb	r3, [r6, #0]
  36:	b913      	cbnz	r3, 3e <_DhSetKey+0x3e>
  38:	f108 38ff 	add.w	r8, r8, #4294967295	@ 0xffffffff
  3c:	3601      	adds	r6, #1
  3e:	b127      	cbz	r7, 4a <_DhSetKey+0x4a>
  40:	783b      	ldrb	r3, [r7, #0]
  42:	b913      	cbnz	r3, 4a <_DhSetKey+0x4a>
  44:	f109 39ff 	add.w	r9, r9, #4294967295	@ 0xffffffff
  48:	3701      	adds	r7, #1
  4a:	4628      	mov	r0, r5
  4c:	f7ff fffe 	bl	0 <sp_init>
  50:	2800      	cmp	r0, #0
  52:	d13f      	bne.n	d4 <_DhSetKey+0xd4>
  54:	465a      	mov	r2, fp
  56:	4621      	mov	r1, r4
  58:	4628      	mov	r0, r5
  5a:	f7ff fffe 	bl	0 <sp_read_unsigned_bin>
  5e:	2800      	cmp	r0, #0
  60:	d141      	bne.n	e6 <_DhSetKey+0xe6>
  62:	f1ba 0f00 	cmp.w	sl, #0
  66:	d115      	bne.n	94 <_DhSetKey+0x94>
  68:	9b10      	ldr	r3, [sp, #64]	@ 0x40
  6a:	f8cd a004 	str.w	sl, [sp, #4]
  6e:	aa01      	add	r2, sp, #4
  70:	2108      	movs	r1, #8
  72:	4628      	mov	r0, r5
  74:	b15b      	cbz	r3, 8e <_DhSetKey+0x8e>
  76:	f7ff fffe 	bl	0 <sp_prime_is_prime_ex>
  7a:	4604      	mov	r4, r0
  7c:	b918      	cbnz	r0, 86 <_DhSetKey+0x86>
  7e:	9b01      	ldr	r3, [sp, #4]
  80:	b943      	cbnz	r3, 94 <_DhSetKey+0x94>
  82:	f06f 04f2 	mvn.w	r4, #242	@ 0xf2
  86:	4628      	mov	r0, r5
  88:	f7ff fffe 	bl	0 <sp_clear>
  8c:	e01e      	b.n	cc <_DhSetKey+0xcc>
  8e:	f7ff fffe 	bl	0 <sp_prime_is_prime>
  92:	e7f2      	b.n	7a <_DhSetKey+0x7a>
  94:	f505 7b43 	add.w	fp, r5, #780	@ 0x30c
  98:	4658      	mov	r0, fp
  9a:	f7ff fffe 	bl	0 <sp_init>
  9e:	bb40      	cbnz	r0, f2 <_DhSetKey+0xf2>
  a0:	4642      	mov	r2, r8
  a2:	4631      	mov	r1, r6
  a4:	4658      	mov	r0, fp
  a6:	f7ff fffe 	bl	0 <sp_read_unsigned_bin>
  aa:	4604      	mov	r4, r0
  ac:	b9a8      	cbnz	r0, da <_DhSetKey+0xda>
  ae:	b16f      	cbz	r7, cc <_DhSetKey+0xcc>
  b0:	f505 66c3 	add.w	r6, r5, #1560	@ 0x618
  b4:	4630      	mov	r0, r6
  b6:	f7ff fffe 	bl	0 <sp_init>
  ba:	b9b8      	cbnz	r0, ec <_DhSetKey+0xec>
  bc:	464a      	mov	r2, r9
  be:	4639      	mov	r1, r7
  c0:	4630      	mov	r0, r6
  c2:	f7ff fffe 	bl	0 <sp_read_unsigned_bin>
  c6:	b988      	cbnz	r0, ec <_DhSetKey+0xec>
  c8:	f8c5 a928 	str.w	sl, [r5, #2344]	@ 0x928
  cc:	4620      	mov	r0, r4
  ce:	b003      	add	sp, #12
  d0:	e8bd 8ff0 	ldmia.w	sp!, {r4, r5, r6, r7, r8, r9, sl, fp, pc}
  d4:	f06f 046d 	mvn.w	r4, #109	@ 0x6d
  d8:	e7f8      	b.n	cc <_DhSetKey+0xcc>
  da:	f06f 049d 	mvn.w	r4, #157	@ 0x9d
  de:	e7d2      	b.n	86 <_DhSetKey+0x86>
  e0:	f06f 04ac 	mvn.w	r4, #172	@ 0xac
  e4:	e7f2      	b.n	cc <_DhSetKey+0xcc>
  e6:	f06f 049d 	mvn.w	r4, #157	@ 0x9d
  ea:	e7ef      	b.n	cc <_DhSetKey+0xcc>
  ec:	4658      	mov	r0, fp
  ee:	f7ff fffe 	bl	0 <sp_clear>
  f2:	f06f 046d 	mvn.w	r4, #109	@ 0x6d
  f6:	e7c6      	b.n	86 <_DhSetKey+0x86>

Disassembly of section .text.wc_InitDhKey_ex:

00000000 <wc_InitDhKey_ex>:
   0:	b513      	push	{r0, r1, r4, lr}
   2:	4604      	mov	r4, r0
   4:	b188      	cbz	r0, 2a <wc_InitDhKey_ex+0x2a>
   6:	2300      	movs	r3, #0
   8:	f8c0 1924 	str.w	r1, [r0, #2340]	@ 0x924
   c:	f8c0 3928 	str.w	r3, [r0, #2344]	@ 0x928
  10:	f500 62c3 	add.w	r2, r0, #1560	@ 0x618
  14:	e9cd 3300 	strd	r3, r3, [sp]
  18:	f500 7143 	add.w	r1, r0, #780	@ 0x30c
  1c:	f7ff fffe 	bl	0 <sp_init_multi>
  20:	b930      	cbnz	r0, 30 <wc_InitDhKey_ex+0x30>
  22:	f8c4 0928 	str.w	r0, [r4, #2344]	@ 0x928
  26:	b002      	add	sp, #8
  28:	bd10      	pop	{r4, pc}
  2a:	f06f 00ac 	mvn.w	r0, #172	@ 0xac
  2e:	e7fa      	b.n	26 <wc_InitDhKey_ex+0x26>
  30:	f06f 007c 	mvn.w	r0, #124	@ 0x7c
  34:	e7f7      	b.n	26 <wc_InitDhKey_ex+0x26>

Disassembly of section .text.wc_InitDhKey:

00000000 <wc_InitDhKey>:
   0:	f06f 0201 	mvn.w	r2, #1
   4:	2100      	movs	r1, #0
   6:	f7ff bffe 	b.w	0 <wc_InitDhKey>

Disassembly of section .text.wc_FreeDhKey:

00000000 <wc_FreeDhKey>:
   0:	b510      	push	{r4, lr}
   2:	4604      	mov	r4, r0
   4:	b148      	cbz	r0, 1a <wc_FreeDhKey+0x1a>
   6:	f7ff fffe 	bl	0 <sp_clear>
   a:	f504 7043 	add.w	r0, r4, #780	@ 0x30c
   e:	f7ff fffe 	bl	0 <sp_clear>
  12:	f504 60c3 	add.w	r0, r4, #1560	@ 0x618
  16:	f7ff fffe 	bl	0 <sp_clear>
  1a:	2000      	movs	r0, #0
  1c:	bd10      	pop	{r4, pc}

Disassembly of section .text.wc_DhCheckPubKey_ex:

00000000 <wc_DhCheckPubKey_ex>:
   0:	b513      	push	{r0, r1, r4, lr}
   2:	2400      	movs	r4, #0
   4:	9401      	str	r4, [sp, #4]
   6:	9c04      	ldr	r4, [sp, #16]
   8:	9400      	str	r4, [sp, #0]
   a:	f7ff fffe 	bl	0 <wc_DhCheckPubKey_ex>
   e:	b002      	add	sp, #8
  10:	bd10      	pop	{r4, pc}

Disassembly of section .text.wc_DhCheckPubKey:

00000000 <wc_DhCheckPubKey>:
   0:	b507      	push	{r0, r1, r2, lr}
   2:	2300      	movs	r3, #0
   4:	f04f 0c01 	mov.w	ip, #1
   8:	e9cd 3c00 	strd	r3, ip, [sp]
   c:	f7ff fffe 	bl	0 <wc_DhCheckPubKey>
  10:	b003      	add	sp, #12
  12:	f85d fb04 	ldr.w	pc, [sp], #4

Disassembly of section .text.wc_DhCheckPubValue:

00000000 <wc_DhCheckPubValue>:
   0:	b570      	push	{r4, r5, r6, lr}
   2:	2400      	movs	r4, #0
   4:	429c      	cmp	r4, r3
   6:	4615      	mov	r5, r2
   8:	d021      	beq.n	4e <wc_DhCheckPubValue+0x4e>
   a:	782e      	ldrb	r6, [r5, #0]
   c:	3201      	adds	r2, #1
   e:	b14e      	cbz	r6, 24 <wc_DhCheckPubValue+0x24>
  10:	1b1b      	subs	r3, r3, r4
  12:	2b01      	cmp	r3, #1
  14:	d101      	bne.n	1a <wc_DhCheckPubValue+0x1a>
  16:	2e01      	cmp	r6, #1
  18:	d019      	beq.n	4e <wc_DhCheckPubValue+0x4e>
  1a:	428b      	cmp	r3, r1
  1c:	d11a      	bne.n	54 <wc_DhCheckPubValue+0x54>
  1e:	2200      	movs	r2, #0
  20:	3b01      	subs	r3, #1
  22:	e002      	b.n	2a <wc_DhCheckPubValue+0x2a>
  24:	3401      	adds	r4, #1
  26:	e7ed      	b.n	4 <wc_DhCheckPubValue+0x4>
  28:	3201      	adds	r2, #1
  2a:	4293      	cmp	r3, r2
  2c:	5cac      	ldrb	r4, [r5, r2]
  2e:	5c81      	ldrb	r1, [r0, r2]
  30:	d907      	bls.n	42 <wc_DhCheckPubValue+0x42>
  32:	428c      	cmp	r4, r1
  34:	d0f8      	beq.n	28 <wc_DhCheckPubValue+0x28>
  36:	428c      	cmp	r4, r1
  38:	bf8c      	ite	hi
  3a:	f06f 0002 	mvnhi.w	r0, #2
  3e:	2000      	movls	r0, #0
  40:	bd70      	pop	{r4, r5, r6, pc}
  42:	d1f8      	bne.n	36 <wc_DhCheckPubValue+0x36>
  44:	428c      	cmp	r4, r1
  46:	d002      	beq.n	4e <wc_DhCheckPubValue+0x4e>
  48:	1e4b      	subs	r3, r1, #1
  4a:	429c      	cmp	r4, r3
  4c:	d1f3      	bne.n	36 <wc_DhCheckPubValue+0x36>
  4e:	f06f 0002 	mvn.w	r0, #2
  52:	e7f5      	b.n	40 <wc_DhCheckPubValue+0x40>
  54:	d8fb      	bhi.n	4e <wc_DhCheckPubValue+0x4e>
  56:	2000      	movs	r0, #0
  58:	e7f2      	b.n	40 <wc_DhCheckPubValue+0x40>

Disassembly of section .text.wc_DhCheckPrivKey_ex:

00000000 <wc_DhCheckPrivKey_ex>:
   0:	b5f0      	push	{r4, r5, r6, r7, lr}
   2:	460c      	mov	r4, r1
   4:	f2ad 6d24 	subw	sp, sp, #1572	@ 0x624
   8:	4617      	mov	r7, r2
   a:	461e      	mov	r6, r3
   c:	4605      	mov	r5, r0
   e:	2800      	cmp	r0, #0
  10:	d058      	beq.n	c4 <wc_DhCheckPrivKey_ex+0xc4>
  12:	2900      	cmp	r1, #0
  14:	d056      	beq.n	c4 <wc_DhCheckPrivKey_ex+0xc4>
  16:	2300      	movs	r3, #0
  18:	e9cd 3300 	strd	r3, r3, [sp]
  1c:	461a      	mov	r2, r3
  1e:	a9c5      	add	r1, sp, #788	@ 0x314
  20:	a802      	add	r0, sp, #8
  22:	f7ff fffe 	bl	0 <sp_init_multi>
  26:	2800      	cmp	r0, #0
  28:	d14f      	bne.n	ca <wc_DhCheckPrivKey_ex+0xca>
  2a:	4621      	mov	r1, r4
  2c:	463a      	mov	r2, r7
  2e:	a802      	add	r0, sp, #8
  30:	f7ff fffe 	bl	0 <sp_read_unsigned_bin>
  34:	4604      	mov	r4, r0
  36:	b158      	cbz	r0, 50 <wc_DhCheckPrivKey_ex+0x50>
  38:	f06f 046e 	mvn.w	r4, #110	@ 0x6e
  3c:	a802      	add	r0, sp, #8
  3e:	f7ff fffe 	bl	0 <sp_forcezero>
  42:	a8c5      	add	r0, sp, #788	@ 0x314
  44:	f7ff fffe 	bl	0 <sp_clear>
  48:	4620      	mov	r0, r4
  4a:	f20d 6d24 	addw	sp, sp, #1572	@ 0x624
  4e:	bdf0      	pop	{r4, r5, r6, r7, pc}
  50:	b326      	cbz	r6, 9c <wc_DhCheckPrivKey_ex+0x9c>
  52:	f8dd 2638 	ldr.w	r2, [sp, #1592]	@ 0x638
  56:	4631      	mov	r1, r6
  58:	a8c5      	add	r0, sp, #788	@ 0x314
  5a:	f7ff fffe 	bl	0 <sp_read_unsigned_bin>
  5e:	2800      	cmp	r0, #0
  60:	d1ea      	bne.n	38 <wc_DhCheckPrivKey_ex+0x38>
  62:	2100      	movs	r1, #0
  64:	a802      	add	r0, sp, #8
  66:	f7ff fffe 	bl	0 <sp_cmp_d>
  6a:	b328      	cbz	r0, b8 <wc_DhCheckPrivKey_ex+0xb8>
  6c:	9bc5      	ldr	r3, [sp, #788]	@ 0x314
  6e:	2b00      	cmp	r3, #0
  70:	d0e4      	beq.n	3c <wc_DhCheckPrivKey_ex+0x3c>
  72:	a9c5      	add	r1, sp, #788	@ 0x314
  74:	f505 60c3 	add.w	r0, r5, #1560	@ 0x618
  78:	f7ff fffe 	bl	0 <sp_copy>
  7c:	b9c8      	cbnz	r0, b2 <wc_DhCheckPrivKey_ex+0xb2>
  7e:	aac5      	add	r2, sp, #788	@ 0x314
  80:	2101      	movs	r1, #1
  82:	4610      	mov	r0, r2
  84:	f7ff fffe 	bl	0 <sp_sub_d>
  88:	b9c8      	cbnz	r0, be <wc_DhCheckPrivKey_ex+0xbe>
  8a:	a9c5      	add	r1, sp, #788	@ 0x314
  8c:	a802      	add	r0, sp, #8
  8e:	f7ff fffe 	bl	0 <sp_cmp>
  92:	2801      	cmp	r0, #1
  94:	bf08      	it	eq
  96:	f46f 7483 	mvneq.w	r4, #262	@ 0x106
  9a:	e7cf      	b.n	3c <wc_DhCheckPrivKey_ex+0x3c>
  9c:	f8d5 3618 	ldr.w	r3, [r5, #1560]	@ 0x618
  a0:	2b00      	cmp	r3, #0
  a2:	d0de      	beq.n	62 <wc_DhCheckPrivKey_ex+0x62>
  a4:	a9c5      	add	r1, sp, #788	@ 0x314
  a6:	f505 60c3 	add.w	r0, r5, #1560	@ 0x618
  aa:	f7ff fffe 	bl	0 <sp_copy>
  ae:	2800      	cmp	r0, #0
  b0:	d0d7      	beq.n	62 <wc_DhCheckPrivKey_ex+0x62>
  b2:	f06f 046d 	mvn.w	r4, #109	@ 0x6d
  b6:	e7c1      	b.n	3c <wc_DhCheckPrivKey_ex+0x3c>
  b8:	f06f 0477 	mvn.w	r4, #119	@ 0x77
  bc:	e7be      	b.n	3c <wc_DhCheckPrivKey_ex+0x3c>
  be:	f06f 0471 	mvn.w	r4, #113	@ 0x71
  c2:	e7bb      	b.n	3c <wc_DhCheckPrivKey_ex+0x3c>
  c4:	f06f 04ac 	mvn.w	r4, #172	@ 0xac
  c8:	e7be      	b.n	48 <wc_DhCheckPrivKey_ex+0x48>
  ca:	f06f 046d 	mvn.w	r4, #109	@ 0x6d
  ce:	e7bb      	b.n	48 <wc_DhCheckPrivKey_ex+0x48>

Disassembly of section .text.wc_DhCheckPrivKey:

00000000 <wc_DhCheckPrivKey>:
   0:	b507      	push	{r0, r1, r2, lr}
   2:	2300      	movs	r3, #0
   4:	9300      	str	r3, [sp, #0]
   6:	f7ff fffe 	bl	0 <wc_DhCheckPrivKey>
   a:	b003      	add	sp, #12
   c:	f85d fb04 	ldr.w	pc, [sp], #4

Disassembly of section .text.wc_DhCheckKeyPair:

00000000 <wc_DhCheckKeyPair>:
   0:	f7ff bffe 	b.w	0 <wc_DhCheckKeyPair>

Disassembly of section .text.wc_DhGenerateKeyPair:

00000000 <wc_DhGenerateKeyPair>:
   0:	e92d 4ff0 	stmdb	sp!, {r4, r5, r6, r7, r8, r9, sl, fp, lr}
   4:	ed2d 8b02 	vpush	{d8}
   8:	b083      	sub	sp, #12
   a:	e9dd 890e 	ldrd	r8, r9, [sp, #56]	@ 0x38
   e:	468a      	mov	sl, r1
  10:	4616      	mov	r6, r2
  12:	461f      	mov	r7, r3
  14:	4605      	mov	r5, r0
  16:	2800      	cmp	r0, #0
  18:	f000 80a5 	beq.w	166 <wc_DhGenerateKeyPair+0x166>
  1c:	2900      	cmp	r1, #0
  1e:	f000 80a2 	beq.w	166 <wc_DhGenerateKeyPair+0x166>
  22:	2a00      	cmp	r2, #0
  24:	f000 809f 	beq.w	166 <wc_DhGenerateKeyPair+0x166>
  28:	2b00      	cmp	r3, #0
  2a:	f000 809c 	beq.w	166 <wc_DhGenerateKeyPair+0x166>
  2e:	f1b8 0f00 	cmp.w	r8, #0
  32:	f000 8098 	beq.w	166 <wc_DhGenerateKeyPair+0x166>
  36:	f1b9 0f00 	cmp.w	r9, #0
  3a:	f000 8094 	beq.w	166 <wc_DhGenerateKeyPair+0x166>
  3e:	6803      	ldr	r3, [r0, #0]
  40:	b11b      	cbz	r3, 4a <wc_DhGenerateKeyPair+0x4a>
  42:	6883      	ldr	r3, [r0, #8]
  44:	07db      	lsls	r3, r3, #31
  46:	f140 8095 	bpl.w	174 <wc_DhGenerateKeyPair+0x174>
  4a:	f8d5 4618 	ldr.w	r4, [r5, #1560]	@ 0x618
  4e:	b1ac      	cbz	r4, 7c <wc_DhGenerateKeyPair+0x7c>
  50:	463b      	mov	r3, r7
  52:	4632      	mov	r2, r6
  54:	4651      	mov	r1, sl
  56:	4628      	mov	r0, r5
  58:	f7ff fffe 	bl	0 <wc_DhGenerateKeyPair>
  5c:	2800      	cmp	r0, #0
  5e:	f040 8084 	bne.w	16a <wc_DhGenerateKeyPair+0x16a>
  62:	f8cd 9038 	str.w	r9, [sp, #56]	@ 0x38
  66:	683a      	ldr	r2, [r7, #0]
  68:	4643      	mov	r3, r8
  6a:	4631      	mov	r1, r6
  6c:	4628      	mov	r0, r5
  6e:	b003      	add	sp, #12
  70:	ecbd 8b02 	vpop	{d8}
  74:	e8bd 4ff0 	ldmia.w	sp!, {r4, r5, r6, r7, r8, r9, sl, fp, lr}
  78:	f7ff bffe 	b.w	0 <wc_DhGenerateKeyPair>
  7c:	4628      	mov	r0, r5
  7e:	f7ff fffe 	bl	0 <sp_unsigned_bin_size>
  82:	f5b0 7f20 	cmp.w	r0, #640	@ 0x280
  86:	4683      	mov	fp, r0
  88:	d05f      	beq.n	14a <wc_DhGenerateKeyPair+0x14a>
  8a:	dc53      	bgt.n	134 <wc_DhGenerateKeyPair+0x134>
  8c:	f5b0 7fc0 	cmp.w	r0, #384	@ 0x180
  90:	d05d      	beq.n	14e <wc_DhGenerateKeyPair+0x14e>
  92:	dc1e      	bgt.n	d2 <wc_DhGenerateKeyPair+0xd2>
  94:	2880      	cmp	r0, #128	@ 0x80
  96:	d05c      	beq.n	152 <wc_DhGenerateKeyPair+0x152>
  98:	f5b0 7f80 	cmp.w	r0, #256	@ 0x100
  9c:	d05b      	beq.n	156 <wc_DhGenerateKeyPair+0x156>
  9e:	ea4f 00cb 	mov.w	r0, fp, lsl #3
  a2:	2804      	cmp	r0, #4
  a4:	d819      	bhi.n	da <wc_DhGenerateKeyPair+0xda>
  a6:	f3c4 049c 	ubfx	r4, r4, #2, #29
  aa:	3401      	adds	r4, #1
  ac:	455c      	cmp	r4, fp
  ae:	bf28      	it	cs
  b0:	465c      	movcs	r4, fp
  b2:	683b      	ldr	r3, [r7, #0]
  b4:	42a3      	cmp	r3, r4
  b6:	d360      	bcc.n	17a <wc_DhGenerateKeyPair+0x17a>
  b8:	4622      	mov	r2, r4
  ba:	4631      	mov	r1, r6
  bc:	4650      	mov	r0, sl
  be:	f7ff fffe 	bl	0 <wc_RNG_GenerateBlock>
  c2:	2800      	cmp	r0, #0
  c4:	d151      	bne.n	16a <wc_DhGenerateKeyPair+0x16a>
  c6:	7833      	ldrb	r3, [r6, #0]
  c8:	f043 030c 	orr.w	r3, r3, #12
  cc:	7033      	strb	r3, [r6, #0]
  ce:	603c      	str	r4, [r7, #0]
  d0:	e7c7      	b.n	62 <wc_DhGenerateKeyPair+0x62>
  d2:	f5b0 7f00 	cmp.w	r0, #512	@ 0x200
  d6:	d040      	beq.n	15a <wc_DhGenerateKeyPair+0x15a>
  d8:	00c0      	lsls	r0, r0, #3
  da:	f7ff fffe 	bl	0 <__aeabi_ui2d>
  de:	ec41 0b18 	vmov	d8, r0, r1
  e2:	ed9f 1b27 	vldr	d1, [pc, #156]	@ 180 <wc_DhGenerateKeyPair+0x180>
  e6:	eeb0 0a48 	vmov.f32	s0, s16
  ea:	eef0 0a68 	vmov.f32	s1, s17
  ee:	f7ff fffe 	bl	0 <pow>
  f2:	a328      	add	r3, pc, #160	@ (adr r3, 194 <wc_DhGenerateKeyPair+0x194>)
  f4:	e9d3 2300 	ldrd	r2, r3, [r3]
  f8:	ec51 0b10 	vmov	r0, r1, d0
  fc:	f7ff fffe 	bl	0 <__aeabi_dmul>
 100:	eeb0 0a48 	vmov.f32	s0, s16
 104:	eef0 0a68 	vmov.f32	s1, s17
 108:	e9cd 0100 	strd	r0, r1, [sp]
 10c:	f7ff fffe 	bl	0 <log>
 110:	ed9f 1b1d 	vldr	d1, [pc, #116]	@ 188 <wc_DhGenerateKeyPair+0x188>
 114:	f7ff fffe 	bl	0 <pow>
 118:	e9dd 0100 	ldrd	r0, r1, [sp]
 11c:	ec53 2b10 	vmov	r2, r3, d0
 120:	f7ff fffe 	bl	0 <__aeabi_dmul>
 124:	4b1a      	ldr	r3, [pc, #104]	@ (190 <wc_DhGenerateKeyPair+0x190>)
 126:	2200      	movs	r2, #0
 128:	f7ff fffe 	bl	0 <__aeabi_dsub>
 12c:	f7ff fffe 	bl	0 <__aeabi_d2uiz>
 130:	4604      	mov	r4, r0
 132:	e7b8      	b.n	a6 <wc_DhGenerateKeyPair+0xa6>
 134:	f5b0 7f60 	cmp.w	r0, #896	@ 0x380
 138:	d011      	beq.n	15e <wc_DhGenerateKeyPair+0x15e>
 13a:	f5b0 6f80 	cmp.w	r0, #1024	@ 0x400
 13e:	d010      	beq.n	162 <wc_DhGenerateKeyPair+0x162>
 140:	f5b0 7f40 	cmp.w	r0, #768	@ 0x300
 144:	d1ab      	bne.n	9e <wc_DhGenerateKeyPair+0x9e>
 146:	242e      	movs	r4, #46	@ 0x2e
 148:	e7b3      	b.n	b2 <wc_DhGenerateKeyPair+0xb2>
 14a:	242a      	movs	r4, #42	@ 0x2a
 14c:	e7b1      	b.n	b2 <wc_DhGenerateKeyPair+0xb2>
 14e:	2422      	movs	r4, #34	@ 0x22
 150:	e7af      	b.n	b2 <wc_DhGenerateKeyPair+0xb2>
 152:	2415      	movs	r4, #21
 154:	e7ad      	b.n	b2 <wc_DhGenerateKeyPair+0xb2>
 156:	241d      	movs	r4, #29
 158:	e7ab      	b.n	b2 <wc_DhGenerateKeyPair+0xb2>
 15a:	2427      	movs	r4, #39	@ 0x27
 15c:	e7a9      	b.n	b2 <wc_DhGenerateKeyPair+0xb2>
 15e:	2431      	movs	r4, #49	@ 0x31
 160:	e7a7      	b.n	b2 <wc_DhGenerateKeyPair+0xb2>
 162:	2434      	movs	r4, #52	@ 0x34
 164:	e7a5      	b.n	b2 <wc_DhGenerateKeyPair+0xb2>
 166:	f06f 00ac 	mvn.w	r0, #172	@ 0xac
 16a:	b003      	add	sp, #12
 16c:	ecbd 8b02 	vpop	{d8}
 170:	e8bd 8ff0 	ldmia.w	sp!, {r4, r5, r6, r7, r8, r9, sl, fp, pc}
 174:	f06f 0002 	mvn.w	r0, #2
 178:	e7f7      	b.n	16a <wc_DhGenerateKeyPair+0x16a>
 17a:	f06f 00e9 	mvn.w	r0, #233	@ 0xe9
 17e:	e7f4      	b.n	16a <wc_DhGenerateKeyPair+0x16a>
 180:	55555555 	.word	0x55555555
 184:	3fd55555 	.word	0x3fd55555
 188:	55555555 	.word	0x55555555
 18c:	3fe55555 	.word	0x3fe55555
 190:	40140000 	.word	0x40140000
 194:	33333333 	.word	0x33333333
 198:	40033333 	.word	0x40033333

Disassembly of section .text.wc_DhAgree:

00000000 <wc_DhAgree>:
   0:	b5f0      	push	{r4, r5, r6, r7, lr}
   2:	f8dd e01c 	ldr.w	lr, [sp, #28]
   6:	e9dd c705 	ldrd	ip, r7, [sp, #20]
   a:	b158      	cbz	r0, 24 <wc_DhAgree+0x24>
   c:	b151      	cbz	r1, 24 <wc_DhAgree+0x24>
   e:	b14a      	cbz	r2, 24 <wc_DhAgree+0x24>
  10:	b143      	cbz	r3, 24 <wc_DhAgree+0x24>
  12:	b13f      	cbz	r7, 24 <wc_DhAgree+0x24>
  14:	e9cd 7e06 	strd	r7, lr, [sp, #24]
  18:	f8cd c014 	str.w	ip, [sp, #20]
  1c:	e8bd 40f0 	ldmia.w	sp!, {r4, r5, r6, r7, lr}
  20:	f7ff bffe 	b.w	0 <wc_DhAgree>
  24:	f06f 00ac 	mvn.w	r0, #172	@ 0xac
  28:	bdf0      	pop	{r4, r5, r6, r7, pc}

Disassembly of section .text.wc_DhSetCheckKey:

00000000 <wc_DhSetCheckKey>:
   0:	f7ff bffe 	b.w	0 <wc_DhSetCheckKey>

Disassembly of section .text.wc_DhSetKey_ex:

00000000 <wc_DhSetKey_ex>:
   0:	b510      	push	{r4, lr}
   2:	b086      	sub	sp, #24
   4:	2400      	movs	r4, #0
   6:	e9cd 4403 	strd	r4, r4, [sp, #12]
   a:	9c0a      	ldr	r4, [sp, #40]	@ 0x28
   c:	9402      	str	r4, [sp, #8]
   e:	9c09      	ldr	r4, [sp, #36]	@ 0x24
  10:	9401      	str	r4, [sp, #4]
  12:	9c08      	ldr	r4, [sp, #32]
  14:	9400      	str	r4, [sp, #0]
  16:	f7ff fffe 	bl	0 <wc_DhSetKey_ex>
  1a:	b006      	add	sp, #24
  1c:	bd10      	pop	{r4, pc}

Disassembly of section .text.wc_DhSetKey:

00000000 <wc_DhSetKey>:
   0:	b530      	push	{r4, r5, lr}
   2:	b087      	sub	sp, #28
   4:	2400      	movs	r4, #0
   6:	2501      	movs	r5, #1
   8:	e9cd 5403 	strd	r5, r4, [sp, #12]
   c:	e9cd 4401 	strd	r4, r4, [sp, #4]
  10:	9c0a      	ldr	r4, [sp, #40]	@ 0x28
  12:	9400      	str	r4, [sp, #0]
  14:	f7ff fffe 	bl	0 <wc_DhSetKey>
  18:	b007      	add	sp, #28
  1a:	bd30      	pop	{r4, r5, pc}

Disassembly of section .text.wc_DhSetNamedKey:

00000000 <wc_DhSetNamedKey>:
   0:	b57f      	push	{r0, r1, r2, r3, r4, r5, r6, lr}
   2:	2300      	movs	r3, #0
   4:	2201      	movs	r2, #1
   6:	e9cd 2303 	strd	r2, r3, [sp, #12]
   a:	e9cd 3301 	strd	r3, r3, [sp, #4]
   e:	9300      	str	r3, [sp, #0]
  10:	461a      	mov	r2, r3
  12:	4619      	mov	r1, r3
  14:	f7ff fffe 	bl	0 <wc_DhSetNamedKey>
  18:	b007      	add	sp, #28
  1a:	f85d fb04 	ldr.w	pc, [sp], #4

Disassembly of section .text.wc_DhGetNamedKeyMinSize:

00000000 <wc_DhGetNamedKeyMinSize>:
   0:	2000      	movs	r0, #0
   2:	4770      	bx	lr

Disassembly of section .text.wc_DhCmpNamedKey:

00000000 <wc_DhCmpNamedKey>:
   0:	2000      	movs	r0, #0
   2:	4770      	bx	lr

Disassembly of section .text.wc_DhGetNamedKeyParamSize:

00000000 <wc_DhGetNamedKeyParamSize>:
   0:	b109      	cbz	r1, 6 <wc_DhGetNamedKeyParamSize+0x6>
   2:	2000      	movs	r0, #0
   4:	6008      	str	r0, [r1, #0]
   6:	b10a      	cbz	r2, c <wc_DhGetNamedKeyParamSize+0xc>
   8:	2100      	movs	r1, #0
   a:	6011      	str	r1, [r2, #0]
   c:	b10b      	cbz	r3, 12 <wc_DhGetNamedKeyParamSize+0x12>
   e:	2200      	movs	r2, #0
  10:	601a      	str	r2, [r3, #0]
  12:	2000      	movs	r0, #0
  14:	4770      	bx	lr

Disassembly of section .text.wc_DhCopyNamedKey:

00000000 <wc_DhCopyNamedKey>:
   0:	9900      	ldr	r1, [sp, #0]
   2:	9b02      	ldr	r3, [sp, #8]
   4:	b10a      	cbz	r2, a <wc_DhCopyNamedKey+0xa>
   6:	2000      	movs	r0, #0
   8:	6010      	str	r0, [r2, #0]
   a:	b109      	cbz	r1, 10 <wc_DhCopyNamedKey+0x10>
   c:	2200      	movs	r2, #0
   e:	600a      	str	r2, [r1, #0]
  10:	b10b      	cbz	r3, 16 <wc_DhCopyNamedKey+0x16>
  12:	2200      	movs	r2, #0
  14:	601a      	str	r2, [r3, #0]
  16:	2000      	movs	r0, #0
  18:	4770      	bx	lr

ecc.o:     file format elf32-littlearm


hmac.o:     file format elf32-littlearm


Disassembly of section .text.HmacKeyInnerHash:

00000000 <HmacKeyInnerHash>:
   0:	b510      	push	{r4, lr}
   2:	f890 3114 	ldrb.w	r3, [r0, #276]	@ 0x114
   6:	2b04      	cmp	r3, #4
   8:	4604      	mov	r4, r0
   a:	d006      	beq.n	1a <HmacKeyInnerHash+0x1a>
   c:	2b06      	cmp	r3, #6
   e:	d00c      	beq.n	2a <HmacKeyInnerHash+0x2a>
  10:	2301      	movs	r3, #1
  12:	f884 3115 	strb.w	r3, [r4, #277]	@ 0x115
  16:	2000      	movs	r0, #0
  18:	e006      	b.n	28 <HmacKeyInnerHash+0x28>
  1a:	2240      	movs	r2, #64	@ 0x40
  1c:	f100 0170 	add.w	r1, r0, #112	@ 0x70
  20:	f7ff fffe 	bl	0 <wc_ShaUpdate>
  24:	2800      	cmp	r0, #0
  26:	d0f3      	beq.n	10 <HmacKeyInnerHash+0x10>
  28:	bd10      	pop	{r4, pc}
  2a:	2240      	movs	r2, #64	@ 0x40
  2c:	f100 0170 	add.w	r1, r0, #112	@ 0x70
  30:	f7ff fffe 	bl	0 <wc_Sha256Update>
  34:	e7f6      	b.n	24 <HmacKeyInnerHash+0x24>

Disassembly of section .text.wc_HmacSizeByType:

00000000 <wc_HmacSizeByType>:
   0:	1ec3      	subs	r3, r0, #3
   2:	2b05      	cmp	r3, #5
   4:	d807      	bhi.n	16 <wc_HmacSizeByType+0x16>
   6:	2804      	cmp	r0, #4
   8:	d008      	beq.n	1c <wc_HmacSizeByType+0x1c>
   a:	2806      	cmp	r0, #6
   c:	bf14      	ite	ne
   e:	f06f 00ac 	mvnne.w	r0, #172	@ 0xac
  12:	2020      	moveq	r0, #32
  14:	4770      	bx	lr
  16:	f06f 00ac 	mvn.w	r0, #172	@ 0xac
  1a:	4770      	bx	lr
  1c:	2014      	movs	r0, #20
  1e:	4770      	bx	lr

Disassembly of section .text._InitHmac:

00000000 <_InitHmac>:
   0:	2904      	cmp	r1, #4
   2:	b538      	push	{r3, r4, r5, lr}
   4:	4605      	mov	r5, r0
   6:	4614      	mov	r4, r2
   8:	d006      	beq.n	18 <_InitHmac+0x18>
   a:	2906      	cmp	r1, #6
   c:	d00a      	beq.n	24 <_InitHmac+0x24>
   e:	f06f 00ac 	mvn.w	r0, #172	@ 0xac
  12:	f8c5 4110 	str.w	r4, [r5, #272]	@ 0x110
  16:	bd38      	pop	{r3, r4, r5, pc}
  18:	f06f 0201 	mvn.w	r2, #1
  1c:	4621      	mov	r1, r4
  1e:	f7ff fffe 	bl	0 <wc_InitSha_ex>
  22:	e7f6      	b.n	12 <_InitHmac+0x12>
  24:	f06f 0201 	mvn.w	r2, #1
  28:	4621      	mov	r1, r4
  2a:	f7ff fffe 	bl	0 <wc_InitSha256_ex>
  2e:	e7f0      	b.n	12 <_InitHmac+0x12>

Disassembly of section .text.wc_HmacUpdate:

00000000 <wc_HmacUpdate>:
   0:	b570      	push	{r4, r5, r6, lr}
   2:	460d      	mov	r5, r1
   4:	4616      	mov	r6, r2
   6:	4604      	mov	r4, r0
   8:	b300      	cbz	r0, 4c <wc_HmacUpdate+0x4c>
   a:	b901      	cbnz	r1, e <wc_HmacUpdate+0xe>
   c:	b9f2      	cbnz	r2, 4c <wc_HmacUpdate+0x4c>
   e:	f894 3115 	ldrb.w	r3, [r4, #277]	@ 0x115
  12:	b13b      	cbz	r3, 24 <wc_HmacUpdate+0x24>
  14:	f894 3114 	ldrb.w	r3, [r4, #276]	@ 0x114
  18:	2b04      	cmp	r3, #4
  1a:	d009      	beq.n	30 <wc_HmacUpdate+0x30>
  1c:	2b06      	cmp	r3, #6
  1e:	d00e      	beq.n	3e <wc_HmacUpdate+0x3e>
  20:	2000      	movs	r0, #0
  22:	bd70      	pop	{r4, r5, r6, pc}
  24:	4620      	mov	r0, r4
  26:	f7ff fffe 	bl	0 <wc_HmacUpdate>
  2a:	2800      	cmp	r0, #0
  2c:	d0f2      	beq.n	14 <wc_HmacUpdate+0x14>
  2e:	e7f8      	b.n	22 <wc_HmacUpdate+0x22>
  30:	4632      	mov	r2, r6
  32:	4629      	mov	r1, r5
  34:	4620      	mov	r0, r4
  36:	e8bd 4070 	ldmia.w	sp!, {r4, r5, r6, lr}
  3a:	f7ff bffe 	b.w	0 <wc_ShaUpdate>
  3e:	4632      	mov	r2, r6
  40:	4629      	mov	r1, r5
  42:	4620      	mov	r0, r4
  44:	e8bd 4070 	ldmia.w	sp!, {r4, r5, r6, lr}
  48:	f7ff bffe 	b.w	0 <wc_Sha256Update>
  4c:	f06f 00ac 	mvn.w	r0, #172	@ 0xac
  50:	e7e7      	b.n	22 <wc_HmacUpdate+0x22>

Disassembly of section .text.wc_HmacFinal:

00000000 <wc_HmacFinal>:
   0:	b570      	push	{r4, r5, r6, lr}
   2:	460d      	mov	r5, r1
   4:	4604      	mov	r4, r0
   6:	b148      	cbz	r0, 1c <wc_HmacFinal+0x1c>
   8:	b141      	cbz	r1, 1c <wc_HmacFinal+0x1c>
   a:	f890 3115 	ldrb.w	r3, [r0, #277]	@ 0x115
   e:	b143      	cbz	r3, 22 <wc_HmacFinal+0x22>
  10:	f894 3114 	ldrb.w	r3, [r4, #276]	@ 0x114
  14:	2b04      	cmp	r3, #4
  16:	d009      	beq.n	2c <wc_HmacFinal+0x2c>
  18:	2b06      	cmp	r3, #6
  1a:	d027      	beq.n	6c <wc_HmacFinal+0x6c>
  1c:	f06f 00ac 	mvn.w	r0, #172	@ 0xac
  20:	bd70      	pop	{r4, r5, r6, pc}
  22:	f7ff fffe 	bl	0 <wc_HmacFinal>
  26:	2800      	cmp	r0, #0
  28:	d0f2      	beq.n	10 <wc_HmacFinal+0x10>
  2a:	e7f9      	b.n	20 <wc_HmacFinal+0x20>
  2c:	f104 06f0 	add.w	r6, r4, #240	@ 0xf0
  30:	4631      	mov	r1, r6
  32:	4620      	mov	r0, r4
  34:	f7ff fffe 	bl	0 <wc_ShaFinal>
  38:	2800      	cmp	r0, #0
  3a:	d1f1      	bne.n	20 <wc_HmacFinal+0x20>
  3c:	2240      	movs	r2, #64	@ 0x40
  3e:	f104 01b0 	add.w	r1, r4, #176	@ 0xb0
  42:	4620      	mov	r0, r4
  44:	f7ff fffe 	bl	0 <wc_ShaUpdate>
  48:	2800      	cmp	r0, #0
  4a:	d1e9      	bne.n	20 <wc_HmacFinal+0x20>
  4c:	2214      	movs	r2, #20
  4e:	4631      	mov	r1, r6
  50:	4620      	mov	r0, r4
  52:	f7ff fffe 	bl	0 <wc_ShaUpdate>
  56:	2800      	cmp	r0, #0
  58:	d1e2      	bne.n	20 <wc_HmacFinal+0x20>
  5a:	4629      	mov	r1, r5
  5c:	4620      	mov	r0, r4
  5e:	f7ff fffe 	bl	0 <wc_ShaFinal>
  62:	2800      	cmp	r0, #0
  64:	d1dc      	bne.n	20 <wc_HmacFinal+0x20>
  66:	f884 0115 	strb.w	r0, [r4, #277]	@ 0x115
  6a:	e7d9      	b.n	20 <wc_HmacFinal+0x20>
  6c:	f104 06f0 	add.w	r6, r4, #240	@ 0xf0
  70:	4631      	mov	r1, r6
  72:	4620      	mov	r0, r4
  74:	f7ff fffe 	bl	0 <wc_Sha256Final>
  78:	2800      	cmp	r0, #0
  7a:	d1d1      	bne.n	20 <wc_HmacFinal+0x20>
  7c:	2240      	movs	r2, #64	@ 0x40
  7e:	f104 01b0 	add.w	r1, r4, #176	@ 0xb0
  82:	4620      	mov	r0, r4
  84:	f7ff fffe 	bl	0 <wc_Sha256Update>
  88:	2800      	cmp	r0, #0
  8a:	d1c9      	bne.n	20 <wc_HmacFinal+0x20>
  8c:	2220      	movs	r2, #32
  8e:	4631      	mov	r1, r6
  90:	4620      	mov	r0, r4
  92:	f7ff fffe 	bl	0 <wc_Sha256Update>
  96:	2800      	cmp	r0, #0
  98:	d1c2      	bne.n	20 <wc_HmacFinal+0x20>
  9a:	4629      	mov	r1, r5
  9c:	4620      	mov	r0, r4
  9e:	f7ff fffe 	bl	0 <wc_Sha256Final>
  a2:	e7de      	b.n	62 <wc_HmacFinal+0x62>

Disassembly of section .text.wc_HmacInit:

00000000 <wc_HmacInit>:
   0:	b538      	push	{r3, r4, r5, lr}
   2:	460d      	mov	r5, r1
   4:	4604      	mov	r4, r0
   6:	b150      	cbz	r0, 1e <wc_HmacInit+0x1e>
   8:	f44f 728c 	mov.w	r2, #280	@ 0x118
   c:	2100      	movs	r1, #0
   e:	f7ff fffe 	bl	0 <memset>
  12:	2000      	movs	r0, #0
  14:	f884 0114 	strb.w	r0, [r4, #276]	@ 0x114
  18:	f8c4 5110 	str.w	r5, [r4, #272]	@ 0x110
  1c:	bd38      	pop	{r3, r4, r5, pc}
  1e:	f06f 00ac 	mvn.w	r0, #172	@ 0xac
  22:	e7fb      	b.n	1c <wc_HmacInit+0x1c>

Disassembly of section .text.wc_HmacFree:

00000000 <wc_HmacFree>:
   0:	b510      	push	{r4, lr}
   2:	4604      	mov	r4, r0
   4:	b168      	cbz	r0, 22 <wc_HmacFree+0x22>
   6:	f890 3114 	ldrb.w	r3, [r0, #276]	@ 0x114
   a:	2b04      	cmp	r3, #4
   c:	d00a      	beq.n	24 <wc_HmacFree+0x24>
   e:	2b06      	cmp	r3, #6
  10:	d00b      	beq.n	2a <wc_HmacFree+0x2a>
  12:	f504 738c 	add.w	r3, r4, #280	@ 0x118
  16:	2100      	movs	r1, #0
  18:	4622      	mov	r2, r4
  1a:	3401      	adds	r4, #1
  1c:	429c      	cmp	r4, r3
  1e:	7011      	strb	r1, [r2, #0]
  20:	d1fa      	bne.n	18 <wc_HmacFree+0x18>
  22:	bd10      	pop	{r4, pc}
  24:	f7ff fffe 	bl	0 <wc_ShaFree>
  28:	e7f3      	b.n	12 <wc_HmacFree+0x12>
  2a:	f7ff fffe 	bl	0 <wc_Sha256Free>
  2e:	e7f0      	b.n	12 <wc_HmacFree+0x12>

Disassembly of section .text.wc_HmacSetKey_ex:

00000000 <wc_HmacSetKey_ex>:
   0:	e92d 41f0 	stmdb	sp!, {r4, r5, r6, r7, r8, lr}
   4:	9f06      	ldr	r7, [sp, #24]
   6:	460e      	mov	r6, r1
   8:	4690      	mov	r8, r2
   a:	461d      	mov	r5, r3
   c:	4604      	mov	r4, r0
   e:	b320      	cbz	r0, 5a <wc_HmacSetKey_ex+0x5a>
  10:	b902      	cbnz	r2, 14 <wc_HmacSetKey_ex+0x14>
  12:	bb13      	cbnz	r3, 5a <wc_HmacSetKey_ex+0x5a>
  14:	1ef3      	subs	r3, r6, #3
  16:	2b05      	cmp	r3, #5
  18:	d903      	bls.n	22 <wc_HmacSetKey_ex+0x22>
  1a:	f1a6 030a 	sub.w	r3, r6, #10
  1e:	2b03      	cmp	r3, #3
  20:	d81b      	bhi.n	5a <wc_HmacSetKey_ex+0x5a>
  22:	f894 3114 	ldrb.w	r3, [r4, #276]	@ 0x114
  26:	b113      	cbz	r3, 2e <wc_HmacSetKey_ex+0x2e>
  28:	4620      	mov	r0, r4
  2a:	f7ff fffe 	bl	0 <wc_HmacSetKey_ex>
  2e:	2200      	movs	r2, #0
  30:	f884 6114 	strb.w	r6, [r4, #276]	@ 0x114
  34:	4631      	mov	r1, r6
  36:	f884 2115 	strb.w	r2, [r4, #277]	@ 0x115
  3a:	4620      	mov	r0, r4
  3c:	f7ff fffe 	bl	0 <wc_HmacSetKey_ex>
  40:	4606      	mov	r6, r0
  42:	b960      	cbnz	r0, 5e <wc_HmacSetKey_ex+0x5e>
  44:	b90f      	cbnz	r7, 4a <wc_HmacSetKey_ex+0x4a>
  46:	2d0d      	cmp	r5, #13
  48:	d949      	bls.n	de <wc_HmacSetKey_ex+0xde>
  4a:	f894 3114 	ldrb.w	r3, [r4, #276]	@ 0x114
  4e:	2b04      	cmp	r3, #4
  50:	f104 0770 	add.w	r7, r4, #112	@ 0x70
  54:	d006      	beq.n	64 <wc_HmacSetKey_ex+0x64>
  56:	2b06      	cmp	r3, #6
  58:	d032      	beq.n	c0 <wc_HmacSetKey_ex+0xc0>
  5a:	f06f 06ac 	mvn.w	r6, #172	@ 0xac
  5e:	4630      	mov	r0, r6
  60:	e8bd 81f0 	ldmia.w	sp!, {r4, r5, r6, r7, r8, pc}
  64:	2d40      	cmp	r5, #64	@ 0x40
  66:	d818      	bhi.n	9a <wc_HmacSetKey_ex+0x9a>
  68:	f1b8 0f00 	cmp.w	r8, #0
  6c:	d004      	beq.n	78 <wc_HmacSetKey_ex+0x78>
  6e:	462a      	mov	r2, r5
  70:	4641      	mov	r1, r8
  72:	4638      	mov	r0, r7
  74:	f7ff fffe 	bl	0 <memcpy>
  78:	2d40      	cmp	r5, #64	@ 0x40
  7a:	d11a      	bne.n	b2 <wc_HmacSetKey_ex+0xb2>
  7c:	f104 036f 	add.w	r3, r4, #111	@ 0x6f
  80:	34af      	adds	r4, #175	@ 0xaf
  82:	f813 2f01 	ldrb.w	r2, [r3, #1]!
  86:	f082 015c 	eor.w	r1, r2, #92	@ 0x5c
  8a:	42a3      	cmp	r3, r4
  8c:	f082 0236 	eor.w	r2, r2, #54	@ 0x36
  90:	f883 1040 	strb.w	r1, [r3, #64]	@ 0x40
  94:	701a      	strb	r2, [r3, #0]
  96:	d1f4      	bne.n	82 <wc_HmacSetKey_ex+0x82>
  98:	e7e1      	b.n	5e <wc_HmacSetKey_ex+0x5e>
  9a:	462a      	mov	r2, r5
  9c:	4641      	mov	r1, r8
  9e:	4620      	mov	r0, r4
  a0:	f7ff fffe 	bl	0 <wc_ShaUpdate>
  a4:	b9f0      	cbnz	r0, e4 <wc_HmacSetKey_ex+0xe4>
  a6:	4639      	mov	r1, r7
  a8:	4620      	mov	r0, r4
  aa:	f7ff fffe 	bl	0 <wc_ShaFinal>
  ae:	b9c8      	cbnz	r0, e4 <wc_HmacSetKey_ex+0xe4>
  b0:	2514      	movs	r5, #20
  b2:	f1c5 0240 	rsb	r2, r5, #64	@ 0x40
  b6:	2100      	movs	r1, #0
  b8:	1978      	adds	r0, r7, r5
  ba:	f7ff fffe 	bl	0 <memset>
  be:	e7dd      	b.n	7c <wc_HmacSetKey_ex+0x7c>
  c0:	2d40      	cmp	r5, #64	@ 0x40
  c2:	d9d1      	bls.n	68 <wc_HmacSetKey_ex+0x68>
  c4:	462a      	mov	r2, r5
  c6:	4641      	mov	r1, r8
  c8:	4620      	mov	r0, r4
  ca:	f7ff fffe 	bl	0 <wc_Sha256Update>
  ce:	b948      	cbnz	r0, e4 <wc_HmacSetKey_ex+0xe4>
  d0:	4639      	mov	r1, r7
  d2:	4620      	mov	r0, r4
  d4:	f7ff fffe 	bl	0 <wc_Sha256Final>
  d8:	b920      	cbnz	r0, e4 <wc_HmacSetKey_ex+0xe4>
  da:	2520      	movs	r5, #32
  dc:	e7e9      	b.n	b2 <wc_HmacSetKey_ex+0xb2>
  de:	f06f 06c7 	mvn.w	r6, #199	@ 0xc7
  e2:	e7bc      	b.n	5e <wc_HmacSetKey_ex+0x5e>
  e4:	4606      	mov	r6, r0
  e6:	e7ba      	b.n	5e <wc_HmacSetKey_ex+0x5e>

Disassembly of section .text.wc_HmacSetKey:

00000000 <wc_HmacSetKey>:
   0:	b513      	push	{r0, r1, r4, lr}
   2:	2401      	movs	r4, #1
   4:	9400      	str	r4, [sp, #0]
   6:	f7ff fffe 	bl	0 <wc_HmacSetKey>
   a:	b002      	add	sp, #8
   c:	bd10      	pop	{r4, pc}

Disassembly of section .text.wolfSSL_GetHmacMaxSize:

00000000 <wolfSSL_GetHmacMaxSize>:
   0:	2020      	movs	r0, #32
   2:	4770      	bx	lr

kdf.o:     file format elf32-littlearm


random.o:     file format elf32-littlearm


Disassembly of section .text.ForceZero:

00000000 <ForceZero>:
   0:	4401      	add	r1, r0
   2:	2200      	movs	r2, #0
   4:	4603      	mov	r3, r0
   6:	3001      	adds	r0, #1
   8:	4288      	cmp	r0, r1
   a:	701a      	strb	r2, [r3, #0]
   c:	d1fa      	bne.n	4 <ForceZero+0x4>
   e:	4770      	bx	lr

Disassembly of section .text.ConstantCompare:

00000000 <ConstantCompare>:
   0:	b570      	push	{r4, r5, r6, lr}
   2:	4604      	mov	r4, r0
   4:	2000      	movs	r0, #0
   6:	4603      	mov	r3, r0
   8:	4293      	cmp	r3, r2
   a:	d100      	bne.n	e <ConstantCompare+0xe>
   c:	bd70      	pop	{r4, r5, r6, pc}
   e:	5ce5      	ldrb	r5, [r4, r3]
  10:	5cce      	ldrb	r6, [r1, r3]
  12:	4075      	eors	r5, r6
  14:	4328      	orrs	r0, r5
  16:	3301      	adds	r3, #1
  18:	e7f6      	b.n	8 <ConstantCompare+0x8>

Disassembly of section .text.Hash_DRBG_Uninstantiate:

00000000 <Hash_DRBG_Uninstantiate>:
   0:	b510      	push	{r4, lr}
   2:	2178      	movs	r1, #120	@ 0x78
   4:	4604      	mov	r4, r0
   6:	f7ff fffe 	bl	0 <Hash_DRBG_Uninstantiate>
   a:	1e63      	subs	r3, r4, #1
   c:	2000      	movs	r0, #0
   e:	3477      	adds	r4, #119	@ 0x77
  10:	f813 2f01 	ldrb.w	r2, [r3, #1]!
  14:	42a3      	cmp	r3, r4
  16:	ea40 0002 	orr.w	r0, r0, r2
  1a:	d1f9      	bne.n	10 <Hash_DRBG_Uninstantiate+0x10>
  1c:	3800      	subs	r0, #0
  1e:	bf18      	it	ne
  20:	2001      	movne	r0, #1
  22:	bd10      	pop	{r4, pc}

Disassembly of section .text.array_add.part.0.constprop.0:

00000000 <array_add.part.0.constprop.0>:
   0:	b5f0      	push	{r4, r5, r6, r7, lr}
   2:	2300      	movs	r3, #0
   4:	f100 0537 	add.w	r5, r0, #55	@ 0x37
   8:	188c      	adds	r4, r1, r2
   a:	f814 7d01 	ldrb.w	r7, [r4, #-1]!
   e:	f815 6d01 	ldrb.w	r6, [r5, #-1]!
  12:	443e      	add	r6, r7
  14:	4433      	add	r3, r6
  16:	428c      	cmp	r4, r1
  18:	702b      	strb	r3, [r5, #0]
  1a:	f3c3 230f 	ubfx	r3, r3, #8, #16
  1e:	d1f4      	bne.n	a <array_add.part.0.constprop.0+0xa>
  20:	f1c2 0236 	rsb	r2, r2, #54	@ 0x36
  24:	4402      	add	r2, r0
  26:	1a11      	subs	r1, r2, r0
  28:	2900      	cmp	r1, #0
  2a:	da00      	bge.n	2e <array_add.part.0.constprop.0+0x2e>
  2c:	bdf0      	pop	{r4, r5, r6, r7, pc}
  2e:	7811      	ldrb	r1, [r2, #0]
  30:	440b      	add	r3, r1
  32:	b29b      	uxth	r3, r3
  34:	f802 3901 	strb.w	r3, [r2], #-1
  38:	0a1b      	lsrs	r3, r3, #8
  3a:	e7f4      	b.n	26 <array_add.part.0.constprop.0+0x26>

Disassembly of section .text.Hash_DRBG_Generate:

00000000 <Hash_DRBG_Generate>:
   0:	e92d 4ff0 	stmdb	sp!, {r4, r5, r6, r7, r8, r9, sl, fp, lr}
   4:	4689      	mov	r9, r1
   6:	b0b7      	sub	sp, #220	@ 0xdc
   8:	4614      	mov	r4, r2
   a:	4605      	mov	r5, r0
   c:	2800      	cmp	r0, #0
   e:	f000 809f 	beq.w	150 <Hash_DRBG_Generate+0x150>
  12:	6807      	ldr	r7, [r0, #0]
  14:	4b50      	ldr	r3, [pc, #320]	@ (158 <Hash_DRBG_Generate+0x158>)
  16:	429f      	cmp	r7, r3
  18:	f000 809c 	beq.w	154 <Hash_DRBG_Generate+0x154>
  1c:	2a01      	cmp	r2, #1
  1e:	bf38      	it	cc
  20:	2401      	movcc	r4, #1
  22:	f014 0a1f 	ands.w	sl, r4, #31
  26:	bf18      	it	ne
  28:	f04f 0a01 	movne.w	sl, #1
  2c:	2303      	movs	r3, #3
  2e:	f100 0804 	add.w	r8, r0, #4
  32:	ae0c      	add	r6, sp, #48	@ 0x30
  34:	f88d 300b 	strb.w	r3, [sp, #11]
  38:	2237      	movs	r2, #55	@ 0x37
  3a:	eb0a 1354 	add.w	r3, sl, r4, lsr #5
  3e:	4641      	mov	r1, r8
  40:	4630      	mov	r0, r6
  42:	9703      	str	r7, [sp, #12]
  44:	9301      	str	r3, [sp, #4]
  46:	f7ff fffe 	bl	0 <memcpy>
  4a:	f04f 0b00 	mov.w	fp, #0
  4e:	f04f 0a01 	mov.w	sl, #1
  52:	9b01      	ldr	r3, [sp, #4]
  54:	455b      	cmp	r3, fp
  56:	d140      	bne.n	da <Hash_DRBG_Generate+0xda>
  58:	2137      	movs	r1, #55	@ 0x37
  5a:	4630      	mov	r0, r6
  5c:	f7ff fffe 	bl	0 <Hash_DRBG_Generate>
  60:	f1ba 0f00 	cmp.w	sl, #0
  64:	d172      	bne.n	14c <Hash_DRBG_Generate+0x14c>
  66:	a81a      	add	r0, sp, #104	@ 0x68
  68:	f7ff fffe 	bl	0 <wc_InitSha256>
  6c:	4604      	mov	r4, r0
  6e:	b998      	cbnz	r0, 98 <Hash_DRBG_Generate+0x98>
  70:	2201      	movs	r2, #1
  72:	f10d 010b 	add.w	r1, sp, #11
  76:	a81a      	add	r0, sp, #104	@ 0x68
  78:	f7ff fffe 	bl	0 <wc_Sha256Update>
  7c:	4604      	mov	r4, r0
  7e:	b958      	cbnz	r0, 98 <Hash_DRBG_Generate+0x98>
  80:	2237      	movs	r2, #55	@ 0x37
  82:	4641      	mov	r1, r8
  84:	a81a      	add	r0, sp, #104	@ 0x68
  86:	f7ff fffe 	bl	0 <wc_Sha256Update>
  8a:	4604      	mov	r4, r0
  8c:	b920      	cbnz	r0, 98 <Hash_DRBG_Generate+0x98>
  8e:	4631      	mov	r1, r6
  90:	a81a      	add	r0, sp, #104	@ 0x68
  92:	f7ff fffe 	bl	0 <wc_Sha256Final>
  96:	4604      	mov	r4, r0
  98:	a81a      	add	r0, sp, #104	@ 0x68
  9a:	f7ff fffe 	bl	0 <wc_Sha256Free>
  9e:	b97c      	cbnz	r4, c0 <Hash_DRBG_Generate+0xc0>
  a0:	2220      	movs	r2, #32
  a2:	4631      	mov	r1, r6
  a4:	4640      	mov	r0, r8
  a6:	f7ff fffe 	bl	0 <Hash_DRBG_Generate>
  aa:	2237      	movs	r2, #55	@ 0x37
  ac:	f105 013b 	add.w	r1, r5, #59	@ 0x3b
  b0:	f7ff fffe 	bl	0 <Hash_DRBG_Generate>
  b4:	ba3f      	rev	r7, r7
  b6:	2204      	movs	r2, #4
  b8:	a903      	add	r1, sp, #12
  ba:	9703      	str	r7, [sp, #12]
  bc:	f7ff fffe 	bl	0 <Hash_DRBG_Generate>
  c0:	682b      	ldr	r3, [r5, #0]
  c2:	3301      	adds	r3, #1
  c4:	602b      	str	r3, [r5, #0]
  c6:	4630      	mov	r0, r6
  c8:	2120      	movs	r1, #32
  ca:	f7ff fffe 	bl	0 <Hash_DRBG_Generate>
  ce:	1e20      	subs	r0, r4, #0
  d0:	bf18      	it	ne
  d2:	2001      	movne	r0, #1
  d4:	b037      	add	sp, #220	@ 0xdc
  d6:	e8bd 8ff0 	ldmia.w	sp!, {r4, r5, r6, r7, r8, r9, sl, fp, pc}
  da:	a81a      	add	r0, sp, #104	@ 0x68
  dc:	f7ff fffe 	bl	0 <wc_InitSha256>
  e0:	4682      	mov	sl, r0
  e2:	b958      	cbnz	r0, fc <Hash_DRBG_Generate+0xfc>
  e4:	2237      	movs	r2, #55	@ 0x37
  e6:	4631      	mov	r1, r6
  e8:	a81a      	add	r0, sp, #104	@ 0x68
  ea:	f7ff fffe 	bl	0 <wc_Sha256Update>
  ee:	4682      	mov	sl, r0
  f0:	b920      	cbnz	r0, fc <Hash_DRBG_Generate+0xfc>
  f2:	a904      	add	r1, sp, #16
  f4:	a81a      	add	r0, sp, #104	@ 0x68
  f6:	f7ff fffe 	bl	0 <wc_Sha256Final>
  fa:	4682      	mov	sl, r0
  fc:	a81a      	add	r0, sp, #104	@ 0x68
  fe:	f7ff fffe 	bl	0 <wc_Sha256Free>
 102:	f1ba 0f00 	cmp.w	sl, #0
 106:	d1a7      	bne.n	58 <Hash_DRBG_Generate+0x58>
 108:	f1b9 0f00 	cmp.w	r9, #0
 10c:	d014      	beq.n	138 <Hash_DRBG_Generate+0x138>
 10e:	b1dc      	cbz	r4, 148 <Hash_DRBG_Generate+0x148>
 110:	2c1f      	cmp	r4, #31
 112:	d914      	bls.n	13e <Hash_DRBG_Generate+0x13e>
 114:	a904      	add	r1, sp, #16
 116:	4648      	mov	r0, r9
 118:	2220      	movs	r2, #32
 11a:	f7ff fffe 	bl	0 <memcpy>
 11e:	3c20      	subs	r4, #32
 120:	f109 0920 	add.w	r9, r9, #32
 124:	f10d 0167 	add.w	r1, sp, #103	@ 0x67
 128:	f811 2d01 	ldrb.w	r2, [r1, #-1]!
 12c:	3201      	adds	r2, #1
 12e:	b2d2      	uxtb	r2, r2
 130:	700a      	strb	r2, [r1, #0]
 132:	b90a      	cbnz	r2, 138 <Hash_DRBG_Generate+0x138>
 134:	428e      	cmp	r6, r1
 136:	d1f7      	bne.n	128 <Hash_DRBG_Generate+0x128>
 138:	f10b 0b01 	add.w	fp, fp, #1
 13c:	e789      	b.n	52 <Hash_DRBG_Generate+0x52>
 13e:	4622      	mov	r2, r4
 140:	a904      	add	r1, sp, #16
 142:	4648      	mov	r0, r9
 144:	f7ff fffe 	bl	0 <memcpy>
 148:	2400      	movs	r4, #0
 14a:	e7f5      	b.n	138 <Hash_DRBG_Generate+0x138>
 14c:	2401      	movs	r4, #1
 14e:	e7ba      	b.n	c6 <Hash_DRBG_Generate+0xc6>
 150:	2001      	movs	r0, #1
 152:	e7bf      	b.n	d4 <Hash_DRBG_Generate+0xd4>
 154:	2002      	movs	r0, #2
 156:	e7bd      	b.n	d4 <Hash_DRBG_Generate+0xd4>
 158:	000f4240 	.word	0x000f4240

Disassembly of section .text.Hash_df.constprop.0:

00000000 <Hash_df.constprop.0>:
   0:	e92d 47f0 	stmdb	sp!, {r4, r5, r6, r7, r8, r9, sl, lr}
   4:	b0a8      	sub	sp, #160	@ 0xa0
   6:	e9dd 8931 	ldrd	r8, r9, [sp, #196]	@ 0xc4
   a:	460d      	mov	r5, r1
   c:	461f      	mov	r7, r3
   e:	f88d 2007 	strb.w	r2, [sp, #7]
  12:	2401      	movs	r4, #1
  14:	2800      	cmp	r0, #0
  16:	d06c      	beq.n	f2 <Hash_df.constprop.0+0xf2>
  18:	4b37      	ldr	r3, [pc, #220]	@ (f8 <Hash_df.constprop.0+0xf8>)
  1a:	9303      	str	r3, [sp, #12]
  1c:	f88d 400b 	strb.w	r4, [sp, #11]
  20:	f04f 0a02 	mov.w	sl, #2
  24:	2637      	movs	r6, #55	@ 0x37
  26:	a80c      	add	r0, sp, #48	@ 0x30
  28:	f7ff fffe 	bl	0 <wc_InitSha256>
  2c:	4604      	mov	r4, r0
  2e:	bb70      	cbnz	r0, 8e <Hash_df.constprop.0+0x8e>
  30:	2201      	movs	r2, #1
  32:	f10d 010b 	add.w	r1, sp, #11
  36:	a80c      	add	r0, sp, #48	@ 0x30
  38:	f7ff fffe 	bl	0 <wc_Sha256Update>
  3c:	4604      	mov	r4, r0
  3e:	b9b0      	cbnz	r0, 6e <Hash_df.constprop.0+0x6e>
  40:	f89d 300b 	ldrb.w	r3, [sp, #11]
  44:	2204      	movs	r2, #4
  46:	3301      	adds	r3, #1
  48:	a903      	add	r1, sp, #12
  4a:	a80c      	add	r0, sp, #48	@ 0x30
  4c:	f88d 300b 	strb.w	r3, [sp, #11]
  50:	f7ff fffe 	bl	0 <wc_Sha256Update>
  54:	4604      	mov	r4, r0
  56:	b950      	cbnz	r0, 6e <Hash_df.constprop.0+0x6e>
  58:	f89d 3007 	ldrb.w	r3, [sp, #7]
  5c:	2b04      	cmp	r3, #4
  5e:	d123      	bne.n	a8 <Hash_df.constprop.0+0xa8>
  60:	9a30      	ldr	r2, [sp, #192]	@ 0xc0
  62:	4639      	mov	r1, r7
  64:	a80c      	add	r0, sp, #48	@ 0x30
  66:	f7ff fffe 	bl	0 <wc_Sha256Update>
  6a:	4604      	mov	r4, r0
  6c:	b330      	cbz	r0, bc <Hash_df.constprop.0+0xbc>
  6e:	a80c      	add	r0, sp, #48	@ 0x30
  70:	f7ff fffe 	bl	0 <wc_Sha256Free>
  74:	b944      	cbnz	r4, 88 <Hash_df.constprop.0+0x88>
  76:	2e20      	cmp	r6, #32
  78:	d935      	bls.n	e6 <Hash_df.constprop.0+0xe6>
  7a:	4628      	mov	r0, r5
  7c:	2220      	movs	r2, #32
  7e:	a904      	add	r1, sp, #16
  80:	f7ff fffe 	bl	0 <memcpy>
  84:	3e20      	subs	r6, #32
  86:	3520      	adds	r5, #32
  88:	f1ba 0f01 	cmp.w	sl, #1
  8c:	d109      	bne.n	a2 <Hash_df.constprop.0+0xa2>
  8e:	a804      	add	r0, sp, #16
  90:	2120      	movs	r1, #32
  92:	f7ff fffe 	bl	0 <Hash_df.constprop.0>
  96:	1e20      	subs	r0, r4, #0
  98:	bf18      	it	ne
  9a:	2001      	movne	r0, #1
  9c:	b028      	add	sp, #160	@ 0xa0
  9e:	e8bd 87f0 	ldmia.w	sp!, {r4, r5, r6, r7, r8, r9, sl, pc}
  a2:	f04f 0a01 	mov.w	sl, #1
  a6:	e7be      	b.n	26 <Hash_df.constprop.0+0x26>
  a8:	2201      	movs	r2, #1
  aa:	f10d 0107 	add.w	r1, sp, #7
  ae:	a80c      	add	r0, sp, #48	@ 0x30
  b0:	f7ff fffe 	bl	0 <wc_Sha256Update>
  b4:	4604      	mov	r4, r0
  b6:	2800      	cmp	r0, #0
  b8:	d1d9      	bne.n	6e <Hash_df.constprop.0+0x6e>
  ba:	e7d1      	b.n	60 <Hash_df.constprop.0+0x60>
  bc:	f1b8 0f00 	cmp.w	r8, #0
  c0:	d105      	bne.n	ce <Hash_df.constprop.0+0xce>
  c2:	a904      	add	r1, sp, #16
  c4:	a80c      	add	r0, sp, #48	@ 0x30
  c6:	f7ff fffe 	bl	0 <wc_Sha256Final>
  ca:	4604      	mov	r4, r0
  cc:	e7cf      	b.n	6e <Hash_df.constprop.0+0x6e>
  ce:	f1b9 0f00 	cmp.w	r9, #0
  d2:	d0f6      	beq.n	c2 <Hash_df.constprop.0+0xc2>
  d4:	464a      	mov	r2, r9
  d6:	4641      	mov	r1, r8
  d8:	a80c      	add	r0, sp, #48	@ 0x30
  da:	f7ff fffe 	bl	0 <wc_Sha256Update>
  de:	4604      	mov	r4, r0
  e0:	2800      	cmp	r0, #0
  e2:	d1c4      	bne.n	6e <Hash_df.constprop.0+0x6e>
  e4:	e7ed      	b.n	c2 <Hash_df.constprop.0+0xc2>
  e6:	4632      	mov	r2, r6
  e8:	a904      	add	r1, sp, #16
  ea:	4628      	mov	r0, r5
  ec:	f7ff fffe 	bl	0 <memcpy>
  f0:	e7ca      	b.n	88 <Hash_df.constprop.0+0x88>
  f2:	4620      	mov	r0, r4
  f4:	e7d2      	b.n	9c <Hash_df.constprop.0+0x9c>
  f6:	bf00      	nop
  f8:	b8010000 	.word	0xb8010000

Disassembly of section .text.Hash_DRBG_Reseed.part.0:

00000000 <Hash_DRBG_Reseed.part.0>:
   0:	b5f0      	push	{r4, r5, r6, r7, lr}
   2:	b093      	sub	sp, #76	@ 0x4c
   4:	4605      	mov	r5, r0
   6:	460c      	mov	r4, r1
   8:	4616      	mov	r6, r2
   a:	2100      	movs	r1, #0
   c:	2237      	movs	r2, #55	@ 0x37
   e:	a804      	add	r0, sp, #16
  10:	f7ff fffe 	bl	0 <memset>
  14:	1d2f      	adds	r7, r5, #4
  16:	e9cd 4601 	strd	r4, r6, [sp, #4]
  1a:	2637      	movs	r6, #55	@ 0x37
  1c:	9600      	str	r6, [sp, #0]
  1e:	463b      	mov	r3, r7
  20:	2201      	movs	r2, #1
  22:	a904      	add	r1, sp, #16
  24:	4628      	mov	r0, r5
  26:	f7ff fffe 	bl	0 <Hash_DRBG_Reseed.part.0>
  2a:	4604      	mov	r4, r0
  2c:	b9b0      	cbnz	r0, 5c <Hash_DRBG_Reseed.part.0+0x5c>
  2e:	4632      	mov	r2, r6
  30:	a904      	add	r1, sp, #16
  32:	4638      	mov	r0, r7
  34:	f7ff fffe 	bl	0 <memcpy>
  38:	4631      	mov	r1, r6
  3a:	a804      	add	r0, sp, #16
  3c:	f7ff fffe 	bl	0 <Hash_DRBG_Reseed.part.0>
  40:	e9cd 4401 	strd	r4, r4, [sp, #4]
  44:	4622      	mov	r2, r4
  46:	9600      	str	r6, [sp, #0]
  48:	463b      	mov	r3, r7
  4a:	f105 013b 	add.w	r1, r5, #59	@ 0x3b
  4e:	4628      	mov	r0, r5
  50:	f7ff fffe 	bl	0 <Hash_DRBG_Reseed.part.0>
  54:	4604      	mov	r4, r0
  56:	b908      	cbnz	r0, 5c <Hash_DRBG_Reseed.part.0+0x5c>
  58:	2301      	movs	r3, #1
  5a:	602b      	str	r3, [r5, #0]
  5c:	4620      	mov	r0, r4
  5e:	b013      	add	sp, #76	@ 0x4c
  60:	bdf0      	pop	{r4, r5, r6, r7, pc}

Disassembly of section .text.Hash_DRBG_Instantiate.isra.0:

00000000 <Hash_DRBG_Instantiate.isra.0>:
   0:	e92d 41ff 	stmdb	sp!, {r0, r1, r2, r3, r4, r5, r6, r7, r8, lr}
   4:	4604      	mov	r4, r0
   6:	460d      	mov	r5, r1
   8:	4616      	mov	r6, r2
   a:	2100      	movs	r1, #0
   c:	2278      	movs	r2, #120	@ 0x78
   e:	461f      	mov	r7, r3
  10:	f7ff fffe 	bl	0 <memset>
  14:	9b0b      	ldr	r3, [sp, #44]	@ 0x2c
  16:	6763      	str	r3, [r4, #116]	@ 0x74
  18:	9b0a      	ldr	r3, [sp, #40]	@ 0x28
  1a:	9600      	str	r6, [sp, #0]
  1c:	f104 0804 	add.w	r8, r4, #4
  20:	e9cd 7301 	strd	r7, r3, [sp, #4]
  24:	2204      	movs	r2, #4
  26:	462b      	mov	r3, r5
  28:	4641      	mov	r1, r8
  2a:	4620      	mov	r0, r4
  2c:	f7ff fffe 	bl	0 <Hash_DRBG_Instantiate.isra.0>
  30:	4602      	mov	r2, r0
  32:	b118      	cbz	r0, 3c <Hash_DRBG_Instantiate.isra.0+0x3c>
  34:	2001      	movs	r0, #1
  36:	b004      	add	sp, #16
  38:	e8bd 81f0 	ldmia.w	sp!, {r4, r5, r6, r7, r8, pc}
  3c:	2337      	movs	r3, #55	@ 0x37
  3e:	e9cd 0001 	strd	r0, r0, [sp, #4]
  42:	9300      	str	r3, [sp, #0]
  44:	f104 013b 	add.w	r1, r4, #59	@ 0x3b
  48:	4643      	mov	r3, r8
  4a:	4620      	mov	r0, r4
  4c:	f7ff fffe 	bl	0 <Hash_DRBG_Instantiate.isra.0>
  50:	2800      	cmp	r0, #0
  52:	d1ef      	bne.n	34 <Hash_DRBG_Instantiate.isra.0+0x34>
  54:	2301      	movs	r3, #1
  56:	6023      	str	r3, [r4, #0]
  58:	e7ed      	b.n	36 <Hash_DRBG_Instantiate.isra.0+0x36>

Disassembly of section .text.wc_RNG_DRBG_Reseed:

00000000 <wc_RNG_DRBG_Reseed>:
   0:	b120      	cbz	r0, c <wc_RNG_DRBG_Reseed+0xc>
   2:	b119      	cbz	r1, c <wc_RNG_DRBG_Reseed+0xc>
   4:	6880      	ldr	r0, [r0, #8]
   6:	b120      	cbz	r0, 12 <wc_RNG_DRBG_Reseed+0x12>
   8:	f7ff bffe 	b.w	0 <wc_RNG_DRBG_Reseed>
   c:	f06f 00ac 	mvn.w	r0, #172	@ 0xac
  10:	4770      	bx	lr
  12:	2001      	movs	r0, #1
  14:	4770      	bx	lr

Disassembly of section .text.wc_RNG_TestSeed:

00000000 <wc_RNG_TestSeed>:
   0:	e92d 41f0 	stmdb	sp!, {r4, r5, r6, r7, r8, lr}
   4:	f1a1 0804 	sub.w	r8, r1, #4
   8:	4642      	mov	r2, r8
   a:	2a04      	cmp	r2, #4
   c:	f04f 0400 	mov.w	r4, #0
  10:	4605      	mov	r5, r0
  12:	460e      	mov	r6, r1
  14:	bf28      	it	cs
  16:	2204      	movcs	r2, #4
  18:	4627      	mov	r7, r4
  1a:	45a0      	cmp	r8, r4
  1c:	d802      	bhi.n	24 <wc_RNG_TestSeed+0x24>
  1e:	4638      	mov	r0, r7
  20:	e8bd 81f0 	ldmia.w	sp!, {r4, r5, r6, r7, r8, pc}
  24:	18a1      	adds	r1, r4, r2
  26:	1928      	adds	r0, r5, r4
  28:	4429      	add	r1, r5
  2a:	f7ff fffe 	bl	0 <wc_RNG_TestSeed>
  2e:	3404      	adds	r4, #4
  30:	2800      	cmp	r0, #0
  32:	eba6 0204 	sub.w	r2, r6, r4
  36:	bf08      	it	eq
  38:	2703      	moveq	r7, #3
  3a:	2a04      	cmp	r2, #4
  3c:	bf28      	it	cs
  3e:	2204      	movcs	r2, #4
  40:	e7eb      	b.n	1a <wc_RNG_TestSeed+0x1a>

Disassembly of section .text.wc_FreeRng:

00000000 <wc_FreeRng>:
   0:	b510      	push	{r4, lr}
   2:	4604      	mov	r4, r0
   4:	b168      	cbz	r0, 22 <wc_FreeRng+0x22>
   6:	6880      	ldr	r0, [r0, #8]
   8:	b138      	cbz	r0, 1a <wc_FreeRng+0x1a>
   a:	f7ff fffe 	bl	0 <wc_FreeRng>
   e:	2300      	movs	r3, #0
  10:	2800      	cmp	r0, #0
  12:	bf18      	it	ne
  14:	f06f 00c6 	mvnne.w	r0, #198	@ 0xc6
  18:	60a3      	str	r3, [r4, #8]
  1a:	2300      	movs	r3, #0
  1c:	f884 3084 	strb.w	r3, [r4, #132]	@ 0x84
  20:	bd10      	pop	{r4, pc}
  22:	f06f 00ac 	mvn.w	r0, #172	@ 0xac
  26:	e7fb      	b.n	20 <wc_FreeRng+0x20>

Disassembly of section .text.wc_rng_free:

00000000 <wc_rng_free>:
   0:	b510      	push	{r4, lr}
   2:	4604      	mov	r4, r0
   4:	b138      	cbz	r0, 16 <wc_rng_free+0x16>
   6:	f7ff fffe 	bl	0 <wc_rng_free>
   a:	4620      	mov	r0, r4
   c:	2188      	movs	r1, #136	@ 0x88
   e:	e8bd 4010 	ldmia.w	sp!, {r4, lr}
  12:	f7ff bffe 	b.w	0 <wc_rng_free>
  16:	bd10      	pop	{r4, pc}

Disassembly of section .text.wc_RNG_HealthTest_ex:

00000000 <wc_RNG_HealthTest_ex>:
   0:	b570      	push	{r4, r5, r6, lr}
   2:	b0a0      	sub	sp, #128	@ 0x80
   4:	4604      	mov	r4, r0
   6:	9e25      	ldr	r6, [sp, #148]	@ 0x94
   8:	9d27      	ldr	r5, [sp, #156]	@ 0x9c
   a:	4608      	mov	r0, r1
   c:	4619      	mov	r1, r3
   e:	2b00      	cmp	r3, #0
  10:	d037      	beq.n	82 <wc_RNG_HealthTest_ex+0x82>
  12:	2d00      	cmp	r5, #0
  14:	d035      	beq.n	82 <wc_RNG_HealthTest_ex+0x82>
  16:	b10c      	cbz	r4, 1c <wc_RNG_HealthTest_ex+0x1c>
  18:	2e00      	cmp	r6, #0
  1a:	d032      	beq.n	82 <wc_RNG_HealthTest_ex+0x82>
  1c:	9b28      	ldr	r3, [sp, #160]	@ 0xa0
  1e:	2b80      	cmp	r3, #128	@ 0x80
  20:	d004      	beq.n	2c <wc_RNG_HealthTest_ex+0x2c>
  22:	f04f 34ff 	mov.w	r4, #4294967295	@ 0xffffffff
  26:	4620      	mov	r0, r4
  28:	b020      	add	sp, #128	@ 0x80
  2a:	bd70      	pop	{r4, r5, r6, pc}
  2c:	9b29      	ldr	r3, [sp, #164]	@ 0xa4
  2e:	e9cd 2300 	strd	r2, r3, [sp]
  32:	4603      	mov	r3, r0
  34:	9a24      	ldr	r2, [sp, #144]	@ 0x90
  36:	a802      	add	r0, sp, #8
  38:	f7ff fffe 	bl	0 <wc_RNG_HealthTest_ex>
  3c:	b138      	cbz	r0, 4e <wc_RNG_HealthTest_ex+0x4e>
  3e:	f04f 34ff 	mov.w	r4, #4294967295	@ 0xffffffff
  42:	a802      	add	r0, sp, #8
  44:	f7ff fffe 	bl	0 <wc_RNG_HealthTest_ex>
  48:	2800      	cmp	r0, #0
  4a:	d0ec      	beq.n	26 <wc_RNG_HealthTest_ex+0x26>
  4c:	e7e9      	b.n	22 <wc_RNG_HealthTest_ex+0x22>
  4e:	b984      	cbnz	r4, 72 <wc_RNG_HealthTest_ex+0x72>
  50:	2280      	movs	r2, #128	@ 0x80
  52:	4629      	mov	r1, r5
  54:	a802      	add	r0, sp, #8
  56:	f7ff fffe 	bl	0 <wc_RNG_HealthTest_ex>
  5a:	2800      	cmp	r0, #0
  5c:	d1ef      	bne.n	3e <wc_RNG_HealthTest_ex+0x3e>
  5e:	2280      	movs	r2, #128	@ 0x80
  60:	4629      	mov	r1, r5
  62:	a802      	add	r0, sp, #8
  64:	f7ff fffe 	bl	0 <wc_RNG_HealthTest_ex>
  68:	1e04      	subs	r4, r0, #0
  6a:	bf18      	it	ne
  6c:	2401      	movne	r4, #1
  6e:	4264      	negs	r4, r4
  70:	e7e7      	b.n	42 <wc_RNG_HealthTest_ex+0x42>
  72:	9a26      	ldr	r2, [sp, #152]	@ 0x98
  74:	4631      	mov	r1, r6
  76:	a802      	add	r0, sp, #8
  78:	f7ff fffe 	bl	0 <wc_RNG_HealthTest_ex>
  7c:	2800      	cmp	r0, #0
  7e:	d0e7      	beq.n	50 <wc_RNG_HealthTest_ex+0x50>
  80:	e7dd      	b.n	3e <wc_RNG_HealthTest_ex+0x3e>
  82:	f06f 04ac 	mvn.w	r4, #172	@ 0xac
  86:	e7ce      	b.n	26 <wc_RNG_HealthTest_ex+0x26>

Disassembly of section .text.wc_RNG_HealthTest:

00000000 <wc_RNG_HealthTest>:
   0:	b530      	push	{r4, r5, lr}
   2:	b089      	sub	sp, #36	@ 0x24
   4:	4614      	mov	r4, r2
   6:	f06f 0501 	mvn.w	r5, #1
   a:	2200      	movs	r2, #0
   c:	e9cd 2505 	strd	r2, r5, [sp, #20]
  10:	9d0e      	ldr	r5, [sp, #56]	@ 0x38
  12:	9504      	str	r5, [sp, #16]
  14:	9d0d      	ldr	r5, [sp, #52]	@ 0x34
  16:	9503      	str	r5, [sp, #12]
  18:	9d0c      	ldr	r5, [sp, #48]	@ 0x30
  1a:	9400      	str	r4, [sp, #0]
  1c:	e9cd 3501 	strd	r3, r5, [sp, #4]
  20:	460b      	mov	r3, r1
  22:	4611      	mov	r1, r2
  24:	f7ff fffe 	bl	0 <wc_RNG_HealthTest>
  28:	b009      	add	sp, #36	@ 0x24
  2a:	bd30      	pop	{r4, r5, pc}

Disassembly of section .text.wc_GenerateSeed:

00000000 <wc_GenerateSeed>:
   0:	e92d 41f0 	stmdb	sp!, {r4, r5, r6, r7, r8, lr}
   4:	460e      	mov	r6, r1
   6:	4615      	mov	r5, r2
   8:	2400      	movs	r4, #0
   a:	42ac      	cmp	r4, r5
   c:	d302      	bcc.n	14 <wc_GenerateSeed+0x14>
   e:	2000      	movs	r0, #0
  10:	e8bd 81f0 	ldmia.w	sp!, {r4, r5, r6, r7, r8, pc}
  14:	1d27      	adds	r7, r4, #4
  16:	42af      	cmp	r7, r5
  18:	eb06 0804 	add.w	r8, r6, r4
  1c:	d802      	bhi.n	24 <wc_GenerateSeed+0x24>
  1e:	f018 0f03 	tst.w	r8, #3
  22:	d006      	beq.n	32 <wc_GenerateSeed+0x32>
  24:	f7ff fffe 	bl	0 <my_rng_seed_gen>
  28:	1c67      	adds	r7, r4, #1
  2a:	f888 0000 	strb.w	r0, [r8]
  2e:	463c      	mov	r4, r7
  30:	e7eb      	b.n	a <wc_GenerateSeed+0xa>
  32:	f7ff fffe 	bl	0 <my_rng_seed_gen>
  36:	f8c8 0000 	str.w	r0, [r8]
  3a:	e7f8      	b.n	2e <wc_GenerateSeed+0x2e>

Disassembly of section .text._InitRng:

00000000 <_InitRng>:
   0:	e92d 47f0 	stmdb	sp!, {r4, r5, r6, r7, r8, r9, sl, lr}
   4:	b0a8      	sub	sp, #160	@ 0xa0
   6:	4688      	mov	r8, r1
   8:	f8dd a0c0 	ldr.w	sl, [sp, #192]	@ 0xc0
   c:	4616      	mov	r6, r2
   e:	461c      	mov	r4, r3
  10:	4605      	mov	r5, r0
  12:	2800      	cmp	r0, #0
  14:	d076      	beq.n	104 <_InitRng+0x104>
  16:	b909      	cbnz	r1, 1c <_InitRng+0x1c>
  18:	2a00      	cmp	r2, #0
  1a:	d173      	bne.n	104 <_InitRng+0x104>
  1c:	2200      	movs	r2, #0
  1e:	ab08      	add	r3, sp, #32
  20:	606c      	str	r4, [r5, #4]
  22:	60aa      	str	r2, [r5, #8]
  24:	f885 2084 	strb.w	r2, [r5, #132]	@ 0x84
  28:	f04f 0980 	mov.w	r9, #128	@ 0x80
  2c:	e9cd 2302 	strd	r2, r3, [sp, #8]
  30:	2330      	movs	r3, #48	@ 0x30
  32:	4296      	cmp	r6, r2
  34:	9300      	str	r3, [sp, #0]
  36:	e9cd 4a05 	strd	r4, sl, [sp, #20]
  3a:	4b34      	ldr	r3, [pc, #208]	@ (10c <_InitRng+0x10c>)
  3c:	f8cd 9010 	str.w	r9, [sp, #16]
  40:	9201      	str	r2, [sp, #4]
  42:	4611      	mov	r1, r2
  44:	4610      	mov	r0, r2
  46:	bf0c      	ite	eq
  48:	2734      	moveq	r7, #52	@ 0x34
  4a:	2724      	movne	r7, #36	@ 0x24
  4c:	f7ff fffe 	bl	0 <_InitRng>
  50:	2800      	cmp	r0, #0
  52:	d149      	bne.n	e8 <_InitRng+0xe8>
  54:	492e      	ldr	r1, [pc, #184]	@ (110 <_InitRng+0x110>)
  56:	464a      	mov	r2, r9
  58:	a808      	add	r0, sp, #32
  5a:	f7ff fffe 	bl	0 <_InitRng>
  5e:	2800      	cmp	r0, #0
  60:	d142      	bne.n	e8 <_InitRng+0xe8>
  62:	ab08      	add	r3, sp, #32
  64:	e9cd 0302 	strd	r0, r3, [sp, #8]
  68:	2320      	movs	r3, #32
  6a:	9300      	str	r3, [sp, #0]
  6c:	4b27      	ldr	r3, [pc, #156]	@ (10c <_InitRng+0x10c>)
  6e:	f8cd 9010 	str.w	r9, [sp, #16]
  72:	e9cd 4a05 	strd	r4, sl, [sp, #20]
  76:	9001      	str	r0, [sp, #4]
  78:	2210      	movs	r2, #16
  7a:	f103 0120 	add.w	r1, r3, #32
  7e:	f7ff fffe 	bl	0 <_InitRng>
  82:	bb88      	cbnz	r0, e8 <_InitRng+0xe8>
  84:	4922      	ldr	r1, [pc, #136]	@ (110 <_InitRng+0x110>)
  86:	464a      	mov	r2, r9
  88:	a808      	add	r0, sp, #32
  8a:	f7ff fffe 	bl	0 <_InitRng>
  8e:	bb58      	cbnz	r0, e8 <_InitRng+0xe8>
  90:	f105 030c 	add.w	r3, r5, #12
  94:	60ab      	str	r3, [r5, #8]
  96:	463a      	mov	r2, r7
  98:	a908      	add	r1, sp, #32
  9a:	4628      	mov	r0, r5
  9c:	f7ff fffe 	bl	0 <_InitRng>
  a0:	b9f0      	cbnz	r0, e0 <_InitRng+0xe0>
  a2:	4639      	mov	r1, r7
  a4:	a808      	add	r0, sp, #32
  a6:	f7ff fffe 	bl	0 <_InitRng>
  aa:	4604      	mov	r4, r0
  ac:	b950      	cbnz	r0, c4 <_InitRng+0xc4>
  ae:	686b      	ldr	r3, [r5, #4]
  b0:	e9cd 6300 	strd	r6, r3, [sp]
  b4:	1f3a      	subs	r2, r7, #4
  b6:	68a8      	ldr	r0, [r5, #8]
  b8:	4643      	mov	r3, r8
  ba:	a909      	add	r1, sp, #36	@ 0x24
  bc:	f7ff fffe 	bl	0 <_InitRng>
  c0:	4604      	mov	r4, r0
  c2:	b108      	cbz	r0, c8 <_InitRng+0xc8>
  c4:	2300      	movs	r3, #0
  c6:	60ab      	str	r3, [r5, #8]
  c8:	4639      	mov	r1, r7
  ca:	a808      	add	r0, sp, #32
  cc:	f7ff fffe 	bl	0 <_InitRng>
  d0:	b944      	cbnz	r4, e4 <_InitRng+0xe4>
  d2:	2301      	movs	r3, #1
  d4:	f885 3084 	strb.w	r3, [r5, #132]	@ 0x84
  d8:	4620      	mov	r0, r4
  da:	b028      	add	sp, #160	@ 0xa0
  dc:	e8bd 87f0 	ldmia.w	sp!, {r4, r5, r6, r7, r8, r9, sl, pc}
  e0:	2401      	movs	r4, #1
  e2:	e7ef      	b.n	c4 <_InitRng+0xc4>
  e4:	2c03      	cmp	r4, #3
  e6:	d105      	bne.n	f4 <_InitRng+0xf4>
  e8:	2303      	movs	r3, #3
  ea:	f885 3084 	strb.w	r3, [r5, #132]	@ 0x84
  ee:	f06f 04d0 	mvn.w	r4, #208	@ 0xd0
  f2:	e7f1      	b.n	d8 <_InitRng+0xd8>
  f4:	2302      	movs	r3, #2
  f6:	2c01      	cmp	r4, #1
  f8:	f885 3084 	strb.w	r3, [r5, #132]	@ 0x84
  fc:	d1ec      	bne.n	d8 <_InitRng+0xd8>
  fe:	f06f 04c6 	mvn.w	r4, #198	@ 0xc6
 102:	e7e9      	b.n	d8 <_InitRng+0xd8>
 104:	f06f 04ac 	mvn.w	r4, #172	@ 0xac
 108:	e7e6      	b.n	d8 <_InitRng+0xd8>
 10a:	bf00      	nop
	...

Disassembly of section .text.wc_rng_new:

00000000 <wc_rng_new>:
   0:	b508      	push	{r3, lr}
   2:	4b04      	ldr	r3, [pc, #16]	@ (14 <wc_rng_new+0x14>)
   4:	4904      	ldr	r1, [pc, #16]	@ (18 <wc_rng_new+0x18>)
   6:	681b      	ldr	r3, [r3, #0]
   8:	68d8      	ldr	r0, [r3, #12]
   a:	f7ff fffe 	bl	0 <fprintf>
   e:	2000      	movs	r0, #0
  10:	bd08      	pop	{r3, pc}
  12:	bf00      	nop
	...

Disassembly of section .text.wc_rng_new_ex:

00000000 <wc_rng_new_ex>:
   0:	4b06      	ldr	r3, [pc, #24]	@ (1c <wc_rng_new_ex+0x1c>)
   2:	4907      	ldr	r1, [pc, #28]	@ (20 <wc_rng_new_ex+0x20>)
   4:	681b      	ldr	r3, [r3, #0]
   6:	b510      	push	{r4, lr}
   8:	4604      	mov	r4, r0
   a:	68d8      	ldr	r0, [r3, #12]
   c:	f7ff fffe 	bl	0 <fprintf>
  10:	2300      	movs	r3, #0
  12:	6023      	str	r3, [r4, #0]
  14:	f06f 007c 	mvn.w	r0, #124	@ 0x7c
  18:	bd10      	pop	{r4, pc}
  1a:	bf00      	nop
	...

Disassembly of section .text.wc_InitRng:

00000000 <wc_InitRng>:
   0:	b507      	push	{r0, r1, r2, lr}
   2:	f06f 0301 	mvn.w	r3, #1
   6:	9300      	str	r3, [sp, #0]
   8:	2300      	movs	r3, #0
   a:	461a      	mov	r2, r3
   c:	4619      	mov	r1, r3
   e:	f7ff fffe 	bl	0 <wc_InitRng>
  12:	b003      	add	sp, #12
  14:	f85d fb04 	ldr.w	pc, [sp], #4

Disassembly of section .text.wc_InitRng_ex:

00000000 <wc_InitRng_ex>:
   0:	b507      	push	{r0, r1, r2, lr}
   2:	9200      	str	r2, [sp, #0]
   4:	2200      	movs	r2, #0
   6:	460b      	mov	r3, r1
   8:	4611      	mov	r1, r2
   a:	f7ff fffe 	bl	0 <wc_InitRng_ex>
   e:	b003      	add	sp, #12
  10:	f85d fb04 	ldr.w	pc, [sp], #4

Disassembly of section .text.wc_InitRngNonce:

00000000 <wc_InitRngNonce>:
   0:	b507      	push	{r0, r1, r2, lr}
   2:	f06f 0301 	mvn.w	r3, #1
   6:	9300      	str	r3, [sp, #0]
   8:	2300      	movs	r3, #0
   a:	f7ff fffe 	bl	0 <wc_InitRngNonce>
   e:	b003      	add	sp, #12
  10:	f85d fb04 	ldr.w	pc, [sp], #4

Disassembly of section .text.wc_InitRngNonce_ex:

00000000 <wc_InitRngNonce_ex>:
   0:	f7ff bffe 	b.w	0 <wc_InitRngNonce_ex>

Disassembly of section .text.wc_RNG_GenerateBlock:

00000000 <wc_RNG_GenerateBlock>:
   0:	e92d 43f0 	stmdb	sp!, {r4, r5, r6, r7, r8, r9, lr}
   4:	4688      	mov	r8, r1
   6:	b0a9      	sub	sp, #164	@ 0xa4
   8:	4617      	mov	r7, r2
   a:	4605      	mov	r5, r0
   c:	2800      	cmp	r0, #0
   e:	d061      	beq.n	d4 <wc_RNG_GenerateBlock+0xd4>
  10:	2900      	cmp	r1, #0
  12:	d05f      	beq.n	d4 <wc_RNG_GenerateBlock+0xd4>
  14:	b91a      	cbnz	r2, 1e <wc_RNG_GenerateBlock+0x1e>
  16:	2000      	movs	r0, #0
  18:	b029      	add	sp, #164	@ 0xa4
  1a:	e8bd 83f0 	ldmia.w	sp!, {r4, r5, r6, r7, r8, r9, pc}
  1e:	f5b2 3f80 	cmp.w	r2, #65536	@ 0x10000
  22:	d857      	bhi.n	d4 <wc_RNG_GenerateBlock+0xd4>
  24:	f890 9084 	ldrb.w	r9, [r0, #132]	@ 0x84
  28:	f1b9 0f01 	cmp.w	r9, #1
  2c:	d002      	beq.n	34 <wc_RNG_GenerateBlock+0x34>
  2e:	f06f 00c6 	mvn.w	r0, #198	@ 0xc6
  32:	e7f1      	b.n	18 <wc_RNG_GenerateBlock+0x18>
  34:	6880      	ldr	r0, [r0, #8]
  36:	f7ff fffe 	bl	0 <wc_RNG_GenerateBlock>
  3a:	2802      	cmp	r0, #2
  3c:	4604      	mov	r4, r0
  3e:	d139      	bne.n	b4 <wc_RNG_GenerateBlock+0xb4>
  40:	f06f 0301 	mvn.w	r3, #1
  44:	9306      	str	r3, [sp, #24]
  46:	686b      	ldr	r3, [r5, #4]
  48:	9305      	str	r3, [sp, #20]
  4a:	2320      	movs	r3, #32
  4c:	9302      	str	r3, [sp, #8]
  4e:	4b23      	ldr	r3, [pc, #140]	@ (dc <wc_RNG_GenerateBlock+0xdc>)
  50:	9301      	str	r3, [sp, #4]
  52:	2480      	movs	r4, #128	@ 0x80
  54:	2330      	movs	r3, #48	@ 0x30
  56:	ae08      	add	r6, sp, #32
  58:	2200      	movs	r2, #0
  5a:	9300      	str	r3, [sp, #0]
  5c:	9404      	str	r4, [sp, #16]
  5e:	4b20      	ldr	r3, [pc, #128]	@ (e0 <wc_RNG_GenerateBlock+0xe0>)
  60:	9603      	str	r6, [sp, #12]
  62:	4611      	mov	r1, r2
  64:	4648      	mov	r0, r9
  66:	f7ff fffe 	bl	0 <wc_RNG_GenerateBlock>
  6a:	bb38      	cbnz	r0, bc <wc_RNG_GenerateBlock+0xbc>
  6c:	491d      	ldr	r1, [pc, #116]	@ (e4 <wc_RNG_GenerateBlock+0xe4>)
  6e:	4622      	mov	r2, r4
  70:	4630      	mov	r0, r6
  72:	f7ff fffe 	bl	0 <wc_RNG_GenerateBlock>
  76:	bb08      	cbnz	r0, bc <wc_RNG_GenerateBlock+0xbc>
  78:	2224      	movs	r2, #36	@ 0x24
  7a:	4631      	mov	r1, r6
  7c:	4628      	mov	r0, r5
  7e:	f7ff fffe 	bl	0 <wc_RNG_GenerateBlock>
  82:	bb08      	cbnz	r0, c8 <wc_RNG_GenerateBlock+0xc8>
  84:	2124      	movs	r1, #36	@ 0x24
  86:	4630      	mov	r0, r6
  88:	f7ff fffe 	bl	0 <wc_RNG_GenerateBlock>
  8c:	4604      	mov	r4, r0
  8e:	b968      	cbnz	r0, ac <wc_RNG_GenerateBlock+0xac>
  90:	68a8      	ldr	r0, [r5, #8]
  92:	b1c8      	cbz	r0, c8 <wc_RNG_GenerateBlock+0xc8>
  94:	2220      	movs	r2, #32
  96:	a909      	add	r1, sp, #36	@ 0x24
  98:	f7ff fffe 	bl	0 <wc_RNG_GenerateBlock>
  9c:	4604      	mov	r4, r0
  9e:	b928      	cbnz	r0, ac <wc_RNG_GenerateBlock+0xac>
  a0:	68a8      	ldr	r0, [r5, #8]
  a2:	463a      	mov	r2, r7
  a4:	4641      	mov	r1, r8
  a6:	f7ff fffe 	bl	0 <wc_RNG_GenerateBlock>
  aa:	4604      	mov	r4, r0
  ac:	2124      	movs	r1, #36	@ 0x24
  ae:	4630      	mov	r0, r6
  b0:	f7ff fffe 	bl	0 <wc_RNG_GenerateBlock>
  b4:	2c00      	cmp	r4, #0
  b6:	d0ae      	beq.n	16 <wc_RNG_GenerateBlock+0x16>
  b8:	2c03      	cmp	r4, #3
  ba:	d107      	bne.n	cc <wc_RNG_GenerateBlock+0xcc>
  bc:	2303      	movs	r3, #3
  be:	f885 3084 	strb.w	r3, [r5, #132]	@ 0x84
  c2:	f06f 00d0 	mvn.w	r0, #208	@ 0xd0
  c6:	e7a7      	b.n	18 <wc_RNG_GenerateBlock+0x18>
  c8:	2401      	movs	r4, #1
  ca:	e7ef      	b.n	ac <wc_RNG_GenerateBlock+0xac>
  cc:	2302      	movs	r3, #2
  ce:	f885 3084 	strb.w	r3, [r5, #132]	@ 0x84
  d2:	e7ac      	b.n	2e <wc_RNG_GenerateBlock+0x2e>
  d4:	f06f 00ac 	mvn.w	r0, #172	@ 0xac
  d8:	e79e      	b.n	18 <wc_RNG_GenerateBlock+0x18>
  da:	bf00      	nop
	...

Disassembly of section .text.wc_RNG_GenerateByte:

00000000 <wc_RNG_GenerateByte>:
   0:	2201      	movs	r2, #1
   2:	f7ff bffe 	b.w	0 <wc_RNG_GenerateByte>

rsa.o:     file format elf32-littlearm


Disassembly of section .text.xorbuf:

00000000 <xorbuf>:
   0:	ea81 0300 	eor.w	r3, r1, r0
   4:	079b      	lsls	r3, r3, #30
   6:	b5f0      	push	{r4, r5, r6, r7, lr}
   8:	d10c      	bne.n	24 <xorbuf+0x24>
   a:	f000 0403 	and.w	r4, r0, #3
   e:	b104      	cbz	r4, 12 <xorbuf+0x12>
  10:	b96a      	cbnz	r2, 2e <xorbuf+0x2e>
  12:	f022 0503 	bic.w	r5, r2, #3
  16:	194e      	adds	r6, r1, r5
  18:	4603      	mov	r3, r0
  1a:	42b1      	cmp	r1, r6
  1c:	d110      	bne.n	40 <xorbuf+0x40>
  1e:	4428      	add	r0, r5
  20:	f002 0203 	and.w	r2, r2, #3
  24:	3901      	subs	r1, #1
  26:	4402      	add	r2, r0
  28:	4290      	cmp	r0, r2
  2a:	d111      	bne.n	50 <xorbuf+0x50>
  2c:	bdf0      	pop	{r4, r5, r6, r7, pc}
  2e:	f810 3b01 	ldrb.w	r3, [r0], #1
  32:	f811 5b01 	ldrb.w	r5, [r1], #1
  36:	406b      	eors	r3, r5
  38:	f800 3c01 	strb.w	r3, [r0, #-1]
  3c:	3a01      	subs	r2, #1
  3e:	e7e6      	b.n	e <xorbuf+0xe>
  40:	f853 4b04 	ldr.w	r4, [r3], #4
  44:	f851 7b04 	ldr.w	r7, [r1], #4
  48:	407c      	eors	r4, r7
  4a:	f843 4c04 	str.w	r4, [r3, #-4]
  4e:	e7e4      	b.n	1a <xorbuf+0x1a>
  50:	7803      	ldrb	r3, [r0, #0]
  52:	f811 4f01 	ldrb.w	r4, [r1, #1]!
  56:	4063      	eors	r3, r4
  58:	f800 3b01 	strb.w	r3, [r0], #1
  5c:	e7e4      	b.n	28 <xorbuf+0x28>

Disassembly of section .text.RsaMGF1.isra.0:

00000000 <RsaMGF1.isra.0>:
   0:	e92d 4ff0 	stmdb	sp!, {r4, r5, r6, r7, r8, r9, sl, fp, lr}
   4:	b0f1      	sub	sp, #452	@ 0x1c4
   6:	e9cd 0103 	strd	r0, r1, [sp, #12]
   a:	4617      	mov	r7, r2
   c:	9305      	str	r3, [sp, #20]
   e:	f7ff fffe 	bl	0 <wc_HashGetDigestSize>
  12:	2224      	movs	r2, #36	@ 0x24
  14:	4604      	mov	r4, r0
  16:	2100      	movs	r1, #0
  18:	a807      	add	r0, sp, #28
  1a:	f7ff fffe 	bl	0 <memset>
  1e:	2c00      	cmp	r4, #0
  20:	db3b      	blt.n	9a <RsaMGF1.isra.0+0x9a>
  22:	f107 0804 	add.w	r8, r7, #4
  26:	f1b8 0f24 	cmp.w	r8, #36	@ 0x24
  2a:	9402      	str	r4, [sp, #8]
  2c:	d801      	bhi.n	32 <RsaMGF1.isra.0+0x32>
  2e:	2c24      	cmp	r4, #36	@ 0x24
  30:	d909      	bls.n	46 <RsaMGF1.isra.0+0x46>
  32:	4544      	cmp	r4, r8
  34:	bf38      	it	cc
  36:	4644      	movcc	r4, r8
  38:	f5b4 7fc0 	cmp.w	r4, #384	@ 0x180
  3c:	46a1      	mov	r9, r4
  3e:	d904      	bls.n	4a <RsaMGF1.isra.0+0x4a>
  40:	f06f 04ac 	mvn.w	r4, #172	@ 0xac
  44:	e029      	b.n	9a <RsaMGF1.isra.0+0x9a>
  46:	f04f 0924 	mov.w	r9, #36	@ 0x24
  4a:	2500      	movs	r5, #0
  4c:	f10d 0b40 	add.w	fp, sp, #64	@ 0x40
  50:	462e      	mov	r6, r5
  52:	eb0b 0a07 	add.w	sl, fp, r7
  56:	9904      	ldr	r1, [sp, #16]
  58:	463a      	mov	r2, r7
  5a:	4658      	mov	r0, fp
  5c:	f7ff fffe 	bl	0 <memcpy>
  60:	0e32      	lsrs	r2, r6, #24
  62:	f80b 2007 	strb.w	r2, [fp, r7]
  66:	0c32      	lsrs	r2, r6, #16
  68:	f88a 2001 	strb.w	r2, [sl, #1]
  6c:	0a32      	lsrs	r2, r6, #8
  6e:	f88a 2002 	strb.w	r2, [sl, #2]
  72:	f88a 6003 	strb.w	r6, [sl, #3]
  76:	9803      	ldr	r0, [sp, #12]
  78:	f8cd 9000 	str.w	r9, [sp]
  7c:	465b      	mov	r3, fp
  7e:	4642      	mov	r2, r8
  80:	4659      	mov	r1, fp
  82:	f7ff fffe 	bl	0 <wc_Hash>
  86:	4604      	mov	r4, r0
  88:	b938      	cbnz	r0, 9a <RsaMGF1.isra.0+0x9a>
  8a:	9b02      	ldr	r3, [sp, #8]
  8c:	465a      	mov	r2, fp
  8e:	18e9      	adds	r1, r5, r3
  90:	428d      	cmp	r5, r1
  92:	d00c      	beq.n	ae <RsaMGF1.isra.0+0xae>
  94:	9b7a      	ldr	r3, [sp, #488]	@ 0x1e8
  96:	42ab      	cmp	r3, r5
  98:	d803      	bhi.n	a2 <RsaMGF1.isra.0+0xa2>
  9a:	4620      	mov	r0, r4
  9c:	b071      	add	sp, #452	@ 0x1c4
  9e:	e8bd 8ff0 	ldmia.w	sp!, {r4, r5, r6, r7, r8, r9, sl, fp, pc}
  a2:	9b05      	ldr	r3, [sp, #20]
  a4:	f812 0b01 	ldrb.w	r0, [r2], #1
  a8:	5558      	strb	r0, [r3, r5]
  aa:	3501      	adds	r5, #1
  ac:	e7f0      	b.n	90 <RsaMGF1.isra.0+0x90>
  ae:	9b7a      	ldr	r3, [sp, #488]	@ 0x1e8
  b0:	42ab      	cmp	r3, r5
  b2:	f106 0601 	add.w	r6, r6, #1
  b6:	d8ce      	bhi.n	56 <RsaMGF1.isra.0+0x56>
  b8:	e7ef      	b.n	9a <RsaMGF1.isra.0+0x9a>

Disassembly of section .text.RsaMGF.isra.0:

00000000 <RsaMGF.isra.0>:
   0:	b410      	push	{r4}
   2:	2801      	cmp	r0, #1
   4:	9c01      	ldr	r4, [sp, #4]
   6:	d007      	beq.n	18 <RsaMGF.isra.0+0x18>
   8:	281a      	cmp	r0, #26
   a:	d108      	bne.n	1e <RsaMGF.isra.0+0x1e>
   c:	9401      	str	r4, [sp, #4]
   e:	2004      	movs	r0, #4
  10:	f85d 4b04 	ldr.w	r4, [sp], #4
  14:	f7ff bffe 	b.w	0 <RsaMGF.isra.0>
  18:	9401      	str	r4, [sp, #4]
  1a:	2006      	movs	r0, #6
  1c:	e7f8      	b.n	10 <RsaMGF.isra.0+0x10>
  1e:	f06f 00ac 	mvn.w	r0, #172	@ 0xac
  22:	f85d 4b04 	ldr.w	r4, [sp], #4
  26:	4770      	bx	lr

Disassembly of section .text.RsaUnPad_PSS.isra.0:

00000000 <RsaUnPad_PSS.isra.0>:
   0:	e92d 47f0 	stmdb	sp!, {r4, r5, r6, r7, r8, r9, sl, lr}
   4:	b0e2      	sub	sp, #392	@ 0x188
   6:	f5b1 7fc0 	cmp.w	r1, #384	@ 0x180
   a:	4604      	mov	r4, r0
   c:	f8dd 81ac 	ldr.w	r8, [sp, #428]	@ 0x1ac
  10:	460f      	mov	r7, r1
  12:	4691      	mov	r9, r2
  14:	4618      	mov	r0, r3
  16:	d863      	bhi.n	e0 <RsaUnPad_PSS.isra.0+0xe0>
  18:	f7ff fffe 	bl	0 <wc_HashGetDigestSize>
  1c:	1e06      	subs	r6, r0, #0
  1e:	db62      	blt.n	e6 <RsaUnPad_PSS.isra.0+0xe6>
  20:	9b6c      	ldr	r3, [sp, #432]	@ 0x1b0
  22:	7822      	ldrb	r2, [r4, #0]
  24:	3b01      	subs	r3, #1
  26:	f003 0a07 	and.w	sl, r3, #7
  2a:	23ff      	movs	r3, #255	@ 0xff
  2c:	fa03 f30a 	lsl.w	r3, r3, sl
  30:	421a      	tst	r2, r3
  32:	d15d      	bne.n	f0 <RsaUnPad_PSS.isra.0+0xf0>
  34:	f1ba 0f00 	cmp.w	sl, #0
  38:	d101      	bne.n	3e <RsaUnPad_PSS.isra.0+0x3e>
  3a:	3401      	adds	r4, #1
  3c:	3f01      	subs	r7, #1
  3e:	1e7d      	subs	r5, r7, #1
  40:	1bad      	subs	r5, r5, r6
  42:	d452      	bmi.n	ea <RsaUnPad_PSS.isra.0+0xea>
  44:	f1b8 3fff 	cmp.w	r8, #4294967295	@ 0xffffffff
  48:	d044      	beq.n	d4 <RsaUnPad_PSS.isra.0+0xd4>
  4a:	4546      	cmp	r6, r8
  4c:	da05      	bge.n	5a <RsaUnPad_PSS.isra.0+0x5a>
  4e:	f06f 03f9 	mvn.w	r3, #249	@ 0xf9
  52:	4618      	mov	r0, r3
  54:	b062      	add	sp, #392	@ 0x188
  56:	e8bd 87f0 	ldmia.w	sp!, {r4, r5, r6, r7, r8, r9, sl, pc}
  5a:	f1b8 3fff 	cmp.w	r8, #4294967295	@ 0xffffffff
  5e:	dbf6      	blt.n	4e <RsaUnPad_PSS.isra.0+0x4e>
  60:	4545      	cmp	r5, r8
  62:	ddf4      	ble.n	4e <RsaUnPad_PSS.isra.0+0x4e>
  64:	4427      	add	r7, r4
  66:	f817 3c01 	ldrb.w	r3, [r7, #-1]
  6a:	2bbc      	cmp	r3, #188	@ 0xbc
  6c:	d140      	bne.n	f0 <RsaUnPad_PSS.isra.0+0xf0>
  6e:	ab02      	add	r3, sp, #8
  70:	986a      	ldr	r0, [sp, #424]	@ 0x1a8
  72:	9500      	str	r5, [sp, #0]
  74:	4632      	mov	r2, r6
  76:	1961      	adds	r1, r4, r5
  78:	f7ff fffe 	bl	0 <RsaUnPad_PSS.isra.0>
  7c:	4603      	mov	r3, r0
  7e:	2800      	cmp	r0, #0
  80:	d1e7      	bne.n	52 <RsaUnPad_PSS.isra.0+0x52>
  82:	2201      	movs	r2, #1
  84:	f89d 1008 	ldrb.w	r1, [sp, #8]
  88:	fa02 f20a 	lsl.w	r2, r2, sl
  8c:	3a01      	subs	r2, #1
  8e:	4011      	ands	r1, r2
  90:	f88d 1008 	strb.w	r1, [sp, #8]
  94:	7821      	ldrb	r1, [r4, #0]
  96:	f105 3cff 	add.w	ip, r5, #4294967295	@ 0xffffffff
  9a:	400a      	ands	r2, r1
  9c:	7022      	strb	r2, [r4, #0]
  9e:	46a6      	mov	lr, r4
  a0:	aa02      	add	r2, sp, #8
  a2:	ebac 0c08 	sub.w	ip, ip, r8
  a6:	4563      	cmp	r3, ip
  a8:	4611      	mov	r1, r2
  aa:	4670      	mov	r0, lr
  ac:	f812 ab01 	ldrb.w	sl, [r2], #1
  b0:	f81e 7b01 	ldrb.w	r7, [lr], #1
  b4:	db10      	blt.n	d8 <RsaUnPad_PSS.isra.0+0xd8>
  b6:	f087 0701 	eor.w	r7, r7, #1
  ba:	4557      	cmp	r7, sl
  bc:	d1c7      	bne.n	4e <RsaUnPad_PSS.isra.0+0x4e>
  be:	1aea      	subs	r2, r5, r3
  c0:	eba5 0508 	sub.w	r5, r5, r8
  c4:	442c      	add	r4, r5
  c6:	f7ff fffe 	bl	0 <RsaUnPad_PSS.isra.0>
  ca:	f8c9 4000 	str.w	r4, [r9]
  ce:	eb06 0308 	add.w	r3, r6, r8
  d2:	e7be      	b.n	52 <RsaUnPad_PSS.isra.0+0x52>
  d4:	46b0      	mov	r8, r6
  d6:	e7c3      	b.n	60 <RsaUnPad_PSS.isra.0+0x60>
  d8:	45ba      	cmp	sl, r7
  da:	d1b8      	bne.n	4e <RsaUnPad_PSS.isra.0+0x4e>
  dc:	3301      	adds	r3, #1
  de:	e7e2      	b.n	a6 <RsaUnPad_PSS.isra.0+0xa6>
  e0:	f06f 037c 	mvn.w	r3, #124	@ 0x7c
  e4:	e7b5      	b.n	52 <RsaUnPad_PSS.isra.0+0x52>
  e6:	4633      	mov	r3, r6
  e8:	e7b3      	b.n	52 <RsaUnPad_PSS.isra.0+0x52>
  ea:	f06f 03e9 	mvn.w	r3, #233	@ 0xe9
  ee:	e7b0      	b.n	52 <RsaUnPad_PSS.isra.0+0x52>
  f0:	f06f 03c0 	mvn.w	r3, #192	@ 0xc0
  f4:	e7ad      	b.n	52 <RsaUnPad_PSS.isra.0+0x52>

Disassembly of section .text.RsaUnPad_OAEP.isra.0:

00000000 <RsaUnPad_OAEP.isra.0>:
   0:	e92d 4ff0 	stmdb	sp!, {r4, r5, r6, r7, r8, r9, sl, fp, lr}
   4:	b0f1      	sub	sp, #452	@ 0x1c4
   6:	4607      	mov	r7, r0
   8:	9302      	str	r3, [sp, #8]
   a:	9b7b      	ldr	r3, [sp, #492]	@ 0x1ec
   c:	9204      	str	r2, [sp, #16]
   e:	4688      	mov	r8, r1
  10:	b91b      	cbnz	r3, 1a <RsaUnPad_OAEP.isra.0+0x1a>
  12:	9b7c      	ldr	r3, [sp, #496]	@ 0x1f0
  14:	2b00      	cmp	r3, #0
  16:	f040 8085 	bne.w	124 <RsaUnPad_OAEP.isra.0+0x124>
  1a:	9802      	ldr	r0, [sp, #8]
  1c:	f7ff fffe 	bl	0 <wc_HashGetDigestSize>
  20:	1e05      	subs	r5, r0, #0
  22:	f2c0 8082 	blt.w	12a <RsaUnPad_OAEP.isra.0+0x12a>
  26:	1c6e      	adds	r6, r5, #1
  28:	0073      	lsls	r3, r6, #1
  2a:	ebb8 0f46 	cmp.w	r8, r6, lsl #1
  2e:	46ab      	mov	fp, r5
  30:	9303      	str	r3, [sp, #12]
  32:	d37a      	bcc.n	12a <RsaUnPad_OAEP.isra.0+0x12a>
  34:	f108 39ff 	add.w	r9, r8, #4294967295	@ 0xffffffff
  38:	4642      	mov	r2, r8
  3a:	2100      	movs	r1, #0
  3c:	a80e      	add	r0, sp, #56	@ 0x38
  3e:	443e      	add	r6, r7
  40:	eba9 0a05 	sub.w	sl, r9, r5
  44:	f7ff fffe 	bl	0 <memset>
  48:	987a      	ldr	r0, [sp, #488]	@ 0x1e8
  4a:	9500      	str	r5, [sp, #0]
  4c:	ab0e      	add	r3, sp, #56	@ 0x38
  4e:	4652      	mov	r2, sl
  50:	4631      	mov	r1, r6
  52:	f7ff fffe 	bl	0 <RsaUnPad_OAEP.isra.0>
  56:	4604      	mov	r4, r0
  58:	b9c8      	cbnz	r0, 8e <RsaUnPad_OAEP.isra.0+0x8e>
  5a:	462a      	mov	r2, r5
  5c:	1c79      	adds	r1, r7, #1
  5e:	a80e      	add	r0, sp, #56	@ 0x38
  60:	f7ff fffe 	bl	0 <RsaUnPad_OAEP.isra.0>
  64:	ab0e      	add	r3, sp, #56	@ 0x38
  66:	442b      	add	r3, r5
  68:	987a      	ldr	r0, [sp, #488]	@ 0x1e8
  6a:	f8cd a000 	str.w	sl, [sp]
  6e:	462a      	mov	r2, r5
  70:	a90e      	add	r1, sp, #56	@ 0x38
  72:	9305      	str	r3, [sp, #20]
  74:	f7ff fffe 	bl	0 <RsaUnPad_OAEP.isra.0>
  78:	9b05      	ldr	r3, [sp, #20]
  7a:	4604      	mov	r4, r0
  7c:	b158      	cbz	r0, 96 <RsaUnPad_OAEP.isra.0+0x96>
  7e:	ab0e      	add	r3, sp, #56	@ 0x38
  80:	2200      	movs	r2, #0
  82:	e001      	b.n	88 <RsaUnPad_OAEP.isra.0+0x88>
  84:	f803 2b01 	strb.w	r2, [r3], #1
  88:	f1bb 0b01 	subs.w	fp, fp, #1
  8c:	d2fa      	bcs.n	84 <RsaUnPad_OAEP.isra.0+0x84>
  8e:	4620      	mov	r0, r4
  90:	b071      	add	sp, #452	@ 0x1c4
  92:	e8bd 8ff0 	ldmia.w	sp!, {r4, r5, r6, r7, r8, r9, sl, fp, pc}
  96:	4652      	mov	r2, sl
  98:	4619      	mov	r1, r3
  9a:	4630      	mov	r0, r6
  9c:	f7ff fffe 	bl	0 <RsaUnPad_OAEP.isra.0>
  a0:	4642      	mov	r2, r8
  a2:	ab0e      	add	r3, sp, #56	@ 0x38
  a4:	3a01      	subs	r2, #1
  a6:	d22b      	bcs.n	100 <RsaUnPad_OAEP.isra.0+0x100>
  a8:	9b03      	ldr	r3, [sp, #12]
  aa:	f103 3aff 	add.w	sl, r3, #4294967295	@ 0xffffffff
  ae:	4652      	mov	r2, sl
  b0:	2101      	movs	r1, #1
  b2:	454a      	cmp	r2, r9
  b4:	d327      	bcc.n	106 <RsaUnPad_OAEP.isra.0+0x106>
  b6:	e9dd 127b 	ldrd	r1, r2, [sp, #492]	@ 0x1ec
  ba:	9802      	ldr	r0, [sp, #8]
  bc:	9500      	str	r5, [sp, #0]
  be:	ab06      	add	r3, sp, #24
  c0:	f7ff fffe 	bl	0 <wc_Hash>
  c4:	4604      	mov	r4, r0
  c6:	2800      	cmp	r0, #0
  c8:	d1e1      	bne.n	8e <RsaUnPad_OAEP.isra.0+0x8e>
  ca:	ab06      	add	r3, sp, #24
  cc:	4435      	add	r5, r6
  ce:	42b5      	cmp	r5, r6
  d0:	d121      	bne.n	116 <RsaUnPad_OAEP.isra.0+0x116>
  d2:	f817 200a 	ldrb.w	r2, [r7, sl]
  d6:	783b      	ldrb	r3, [r7, #0]
  d8:	f082 0201 	eor.w	r2, r2, #1
  dc:	4422      	add	r2, r4
  de:	4413      	add	r3, r2
  e0:	3b01      	subs	r3, #1
  e2:	17db      	asrs	r3, r3, #31
  e4:	f10a 0a01 	add.w	sl, sl, #1
  e8:	ea28 0403 	bic.w	r4, r8, r3
  ec:	ea0a 0a03 	and.w	sl, sl, r3
  f0:	ea44 040a 	orr.w	r4, r4, sl
  f4:	9b04      	ldr	r3, [sp, #16]
  f6:	4427      	add	r7, r4
  f8:	601f      	str	r7, [r3, #0]
  fa:	eba8 0404 	sub.w	r4, r8, r4
  fe:	e7c6      	b.n	8e <RsaUnPad_OAEP.isra.0+0x8e>
 100:	f803 4b01 	strb.w	r4, [r3], #1
 104:	e7ce      	b.n	a4 <RsaUnPad_OAEP.isra.0+0xa4>
 106:	5cbb      	ldrb	r3, [r7, r2]
 108:	425b      	negs	r3, r3
 10a:	17db      	asrs	r3, r3, #31
 10c:	3301      	adds	r3, #1
 10e:	4019      	ands	r1, r3
 110:	448a      	add	sl, r1
 112:	3201      	adds	r2, #1
 114:	e7cd      	b.n	b2 <RsaUnPad_OAEP.isra.0+0xb2>
 116:	f816 2b01 	ldrb.w	r2, [r6], #1
 11a:	f813 1b01 	ldrb.w	r1, [r3], #1
 11e:	404a      	eors	r2, r1
 120:	4314      	orrs	r4, r2
 122:	e7d4      	b.n	ce <RsaUnPad_OAEP.isra.0+0xce>
 124:	f06f 0483 	mvn.w	r4, #131	@ 0x83
 128:	e7b1      	b.n	8e <RsaUnPad_OAEP.isra.0+0x8e>
 12a:	f06f 04ac 	mvn.w	r4, #172	@ 0xac
 12e:	e7ae      	b.n	8e <RsaUnPad_OAEP.isra.0+0x8e>

Disassembly of section .text.wc_InitRsaKey_ex:

00000000 <wc_InitRsaKey_ex>:
   0:	b538      	push	{r3, r4, r5, lr}
   2:	460d      	mov	r5, r1
   4:	4604      	mov	r4, r0
   6:	b318      	cbz	r0, 50 <wc_InitRsaKey_ex+0x50>
   8:	f44f 62c6 	mov.w	r2, #1584	@ 0x630
   c:	2100      	movs	r1, #0
   e:	f7ff fffe 	bl	0 <memset>
  12:	f04f 33ff 	mov.w	r3, #4294967295	@ 0xffffffff
  16:	f8c4 3620 	str.w	r3, [r4, #1568]	@ 0x620
  1a:	2300      	movs	r3, #0
  1c:	f8c4 5618 	str.w	r5, [r4, #1560]	@ 0x618
  20:	f8c4 3624 	str.w	r3, [r4, #1572]	@ 0x624
  24:	f8c4 361c 	str.w	r3, [r4, #1564]	@ 0x61c
  28:	f8c4 3628 	str.w	r3, [r4, #1576]	@ 0x628
  2c:	f8c4 362c 	str.w	r3, [r4, #1580]	@ 0x62c
  30:	4620      	mov	r0, r4
  32:	f7ff fffe 	bl	0 <sp_init>
  36:	4605      	mov	r5, r0
  38:	b940      	cbnz	r0, 4c <wc_InitRsaKey_ex+0x4c>
  3a:	f504 7043 	add.w	r0, r4, #780	@ 0x30c
  3e:	f7ff fffe 	bl	0 <sp_init>
  42:	4605      	mov	r5, r0
  44:	b110      	cbz	r0, 4c <wc_InitRsaKey_ex+0x4c>
  46:	4620      	mov	r0, r4
  48:	f7ff fffe 	bl	0 <sp_clear>
  4c:	4628      	mov	r0, r5
  4e:	bd38      	pop	{r3, r4, r5, pc}
  50:	f06f 05ac 	mvn.w	r5, #172	@ 0xac
  54:	e7fa      	b.n	4c <wc_InitRsaKey_ex+0x4c>

Disassembly of section .text.wc_InitRsaKey:

00000000 <wc_InitRsaKey>:
   0:	f06f 0201 	mvn.w	r2, #1
   4:	f7ff bffe 	b.w	0 <wc_InitRsaKey>

Disassembly of section .text.wc_FreeRsaKey:

00000000 <wc_FreeRsaKey>:
   0:	b510      	push	{r4, lr}
   2:	4604      	mov	r4, r0
   4:	b140      	cbz	r0, 18 <wc_FreeRsaKey+0x18>
   6:	f500 7043 	add.w	r0, r0, #780	@ 0x30c
   a:	f7ff fffe 	bl	0 <sp_clear>
   e:	4620      	mov	r0, r4
  10:	f7ff fffe 	bl	0 <sp_clear>
  14:	2000      	movs	r0, #0
  16:	bd10      	pop	{r4, pc}
  18:	f06f 00ac 	mvn.w	r0, #172	@ 0xac
  1c:	e7fb      	b.n	16 <wc_FreeRsaKey+0x16>

Disassembly of section .text.wc_RsaUnPad_ex:

00000000 <wc_RsaUnPad_ex>:
   0:	e92d 4ff0 	stmdb	sp!, {r4, r5, r6, r7, r8, r9, sl, fp, lr}
   4:	f8dd c024 	ldr.w	ip, [sp, #36]	@ 0x24
   8:	f8dd 903c 	ldr.w	r9, [sp, #60]	@ 0x3c
   c:	f1bc 0f01 	cmp.w	ip, #1
  10:	461f      	mov	r7, r3
  12:	e9dd ea0b 	ldrd	lr, sl, [sp, #44]	@ 0x2c
  16:	e9dd b80d 	ldrd	fp, r8, [sp, #52]	@ 0x34
  1a:	f89d 3028 	ldrb.w	r3, [sp, #40]	@ 0x28
  1e:	4605      	mov	r5, r0
  20:	460c      	mov	r4, r1
  22:	4616      	mov	r6, r2
  24:	d025      	beq.n	72 <wc_RsaUnPad_ex+0x72>
  26:	f1bc 0f02 	cmp.w	ip, #2
  2a:	d02a      	beq.n	82 <wc_RsaUnPad_ex+0x82>
  2c:	f1bc 0f00 	cmp.w	ip, #0
  30:	d132      	bne.n	98 <wc_RsaUnPad_ex+0x98>
  32:	b372      	cbz	r2, 92 <wc_RsaUnPad_ex+0x92>
  34:	1e8a      	subs	r2, r1, #2
  36:	f64f 73fd 	movw	r3, #65533	@ 0xfffd
  3a:	429a      	cmp	r2, r3
  3c:	d829      	bhi.n	92 <wc_RsaUnPad_ex+0x92>
  3e:	2f01      	cmp	r7, #1
  40:	d127      	bne.n	92 <wc_RsaUnPad_ex+0x92>
  42:	7803      	ldrb	r3, [r0, #0]
  44:	bb43      	cbnz	r3, 98 <wc_RsaUnPad_ex+0x98>
  46:	7843      	ldrb	r3, [r0, #1]
  48:	2b01      	cmp	r3, #1
  4a:	d125      	bne.n	98 <wc_RsaUnPad_ex+0x98>
  4c:	2302      	movs	r3, #2
  4e:	429c      	cmp	r4, r3
  50:	461a      	mov	r2, r3
  52:	d904      	bls.n	5e <wc_RsaUnPad_ex+0x5e>
  54:	5caa      	ldrb	r2, [r5, r2]
  56:	3301      	adds	r3, #1
  58:	2aff      	cmp	r2, #255	@ 0xff
  5a:	b29b      	uxth	r3, r3
  5c:	d0f7      	beq.n	4e <wc_RsaUnPad_ex+0x4e>
  5e:	2b0a      	cmp	r3, #10
  60:	d91a      	bls.n	98 <wc_RsaUnPad_ex+0x98>
  62:	441d      	add	r5, r3
  64:	f815 2c01 	ldrb.w	r2, [r5, #-1]
  68:	b9b2      	cbnz	r2, 98 <wc_RsaUnPad_ex+0x98>
  6a:	6035      	str	r5, [r6, #0]
  6c:	1ae0      	subs	r0, r4, r3
  6e:	e8bd 8ff0 	ldmia.w	sp!, {r4, r5, r6, r7, r8, r9, sl, fp, pc}
  72:	e9cd ab0a 	strd	sl, fp, [sp, #40]	@ 0x28
  76:	f8cd e024 	str.w	lr, [sp, #36]	@ 0x24
  7a:	e8bd 4ff0 	ldmia.w	sp!, {r4, r5, r6, r7, r8, r9, sl, fp, lr}
  7e:	f7ff bffe 	b.w	0 <wc_RsaUnPad_ex>
  82:	e9cd 890a 	strd	r8, r9, [sp, #40]	@ 0x28
  86:	f8cd e024 	str.w	lr, [sp, #36]	@ 0x24
  8a:	e8bd 4ff0 	ldmia.w	sp!, {r4, r5, r6, r7, r8, r9, sl, fp, lr}
  8e:	f7ff bffe 	b.w	0 <wc_RsaUnPad_ex>
  92:	f06f 00ac 	mvn.w	r0, #172	@ 0xac
  96:	e7ea      	b.n	6e <wc_RsaUnPad_ex+0x6e>
  98:	f06f 00c8 	mvn.w	r0, #200	@ 0xc8
  9c:	e7e7      	b.n	6e <wc_RsaUnPad_ex+0x6e>

Disassembly of section .text.wc_hash2mgf:

00000000 <wc_hash2mgf>:
   0:	2804      	cmp	r0, #4
   2:	d003      	beq.n	c <wc_hash2mgf+0xc>
   4:	1f83      	subs	r3, r0, #6
   6:	4258      	negs	r0, r3
   8:	4158      	adcs	r0, r3
   a:	4770      	bx	lr
   c:	201a      	movs	r0, #26
   e:	4770      	bx	lr

Disassembly of section .text.wc_RsaPSS_CheckPadding_ex2:

00000000 <wc_RsaPSS_CheckPadding_ex2>:
   0:	e92d 43f0 	stmdb	sp!, {r4, r5, r6, r7, r8, r9, lr}
   4:	b095      	sub	sp, #84	@ 0x54
   6:	460c      	mov	r4, r1
   8:	f89d 9070 	ldrb.w	r9, [sp, #112]	@ 0x70
   c:	9d1d      	ldr	r5, [sp, #116]	@ 0x74
   e:	4617      	mov	r7, r2
  10:	461e      	mov	r6, r3
  12:	4680      	mov	r8, r0
  14:	b920      	cbnz	r0, 20 <wc_RsaPSS_CheckPadding_ex2+0x20>
  16:	f06f 00ac 	mvn.w	r0, #172	@ 0xac
  1a:	b015      	add	sp, #84	@ 0x54
  1c:	e8bd 83f0 	ldmia.w	sp!, {r4, r5, r6, r7, r8, r9, pc}
  20:	2a00      	cmp	r2, #0
  22:	d0f8      	beq.n	16 <wc_RsaPSS_CheckPadding_ex2+0x16>
  24:	4648      	mov	r0, r9
  26:	f7ff fffe 	bl	0 <wc_HashGetDigestSize>
  2a:	42a0      	cmp	r0, r4
  2c:	d1f3      	bne.n	16 <wc_RsaPSS_CheckPadding_ex2+0x16>
  2e:	1c6a      	adds	r2, r5, #1
  30:	d006      	beq.n	40 <wc_RsaPSS_CheckPadding_ex2+0x40>
  32:	4285      	cmp	r5, r0
  34:	dc01      	bgt.n	3a <wc_RsaPSS_CheckPadding_ex2+0x3a>
  36:	1c6b      	adds	r3, r5, #1
  38:	da03      	bge.n	42 <wc_RsaPSS_CheckPadding_ex2+0x42>
  3a:	f06f 00f9 	mvn.w	r0, #249	@ 0xf9
  3e:	e7ec      	b.n	1a <wc_RsaPSS_CheckPadding_ex2+0x1a>
  40:	4625      	mov	r5, r4
  42:	1963      	adds	r3, r4, r5
  44:	d2f9      	bcs.n	3a <wc_RsaPSS_CheckPadding_ex2+0x3a>
  46:	42b3      	cmp	r3, r6
  48:	d1f7      	bne.n	3a <wc_RsaPSS_CheckPadding_ex2+0x3a>
  4a:	3608      	adds	r6, #8
  4c:	2e48      	cmp	r6, #72	@ 0x48
  4e:	d825      	bhi.n	9c <wc_RsaPSS_CheckPadding_ex2+0x9c>
  50:	2208      	movs	r2, #8
  52:	2100      	movs	r1, #0
  54:	eb0d 0002 	add.w	r0, sp, r2
  58:	f7ff fffe 	bl	0 <memset>
  5c:	4622      	mov	r2, r4
  5e:	4641      	mov	r1, r8
  60:	a804      	add	r0, sp, #16
  62:	f7ff fffe 	bl	0 <memcpy>
  66:	ab02      	add	r3, sp, #8
  68:	f104 0008 	add.w	r0, r4, #8
  6c:	462a      	mov	r2, r5
  6e:	4639      	mov	r1, r7
  70:	4418      	add	r0, r3
  72:	f7ff fffe 	bl	0 <memcpy>
  76:	ab02      	add	r3, sp, #8
  78:	9400      	str	r4, [sp, #0]
  7a:	4632      	mov	r2, r6
  7c:	4619      	mov	r1, r3
  7e:	4648      	mov	r0, r9
  80:	f7ff fffe 	bl	0 <wc_Hash>
  84:	2800      	cmp	r0, #0
  86:	d1c8      	bne.n	1a <wc_RsaPSS_CheckPadding_ex2+0x1a>
  88:	4622      	mov	r2, r4
  8a:	1979      	adds	r1, r7, r5
  8c:	a802      	add	r0, sp, #8
  8e:	f7ff fffe 	bl	0 <memcmp>
  92:	2800      	cmp	r0, #0
  94:	bf18      	it	ne
  96:	f06f 00c0 	mvnne.w	r0, #192	@ 0xc0
  9a:	e7be      	b.n	1a <wc_RsaPSS_CheckPadding_ex2+0x1a>
  9c:	f06f 0083 	mvn.w	r0, #131	@ 0x83
  a0:	e7bb      	b.n	1a <wc_RsaPSS_CheckPadding_ex2+0x1a>

Disassembly of section .text.wc_RsaPSS_CheckPadding_ex:

00000000 <wc_RsaPSS_CheckPadding_ex>:
   0:	b51f      	push	{r0, r1, r2, r3, r4, lr}
   2:	2400      	movs	r4, #0
   4:	9403      	str	r4, [sp, #12]
   6:	9c08      	ldr	r4, [sp, #32]
   8:	9402      	str	r4, [sp, #8]
   a:	9c07      	ldr	r4, [sp, #28]
   c:	9401      	str	r4, [sp, #4]
   e:	f89d 4018 	ldrb.w	r4, [sp, #24]
  12:	9400      	str	r4, [sp, #0]
  14:	f7ff fffe 	bl	0 <wc_RsaPSS_CheckPadding_ex>
  18:	b004      	add	sp, #16
  1a:	bd10      	pop	{r4, pc}

Disassembly of section .text.wc_RsaPSS_CheckPadding:

00000000 <wc_RsaPSS_CheckPadding>:
   0:	b51f      	push	{r0, r1, r2, r3, r4, lr}
   2:	f04f 0c00 	mov.w	ip, #0
   6:	f04f 34ff 	mov.w	r4, #4294967295	@ 0xffffffff
   a:	e9cd 4c01 	strd	r4, ip, [sp, #4]
   e:	f89d 4018 	ldrb.w	r4, [sp, #24]
  12:	9400      	str	r4, [sp, #0]
  14:	f7ff fffe 	bl	0 <wc_RsaPSS_CheckPadding>
  18:	b004      	add	sp, #16
  1a:	bd10      	pop	{r4, pc}

Disassembly of section .text.wc_RsaEncryptSize:

00000000 <wc_RsaEncryptSize>:
   0:	b108      	cbz	r0, 6 <wc_RsaEncryptSize+0x6>
   2:	f7ff bffe 	b.w	0 <sp_unsigned_bin_size>
   6:	f06f 00ac 	mvn.w	r0, #172	@ 0xac
   a:	4770      	bx	lr

Disassembly of section .text.wc_RsaFunction_ex.isra.0:

00000000 <wc_RsaFunction_ex.isra.0>:
   0:	e92d 4ff0 	stmdb	sp!, {r4, r5, r6, r7, r8, r9, sl, fp, lr}
   4:	b083      	sub	sp, #12
   6:	af00      	add	r7, sp, #0
   8:	4681      	mov	r9, r0
   a:	6b7c      	ldr	r4, [r7, #52]	@ 0x34
   c:	460e      	mov	r6, r1
   e:	4690      	mov	r8, r2
  10:	461d      	mov	r5, r3
  12:	2c00      	cmp	r4, #0
  14:	d07a      	beq.n	10c <wc_RsaFunction_ex.isra.0+0x10c>
  16:	2800      	cmp	r0, #0
  18:	d078      	beq.n	10c <wc_RsaFunction_ex.isra.0+0x10c>
  1a:	2900      	cmp	r1, #0
  1c:	d076      	beq.n	10c <wc_RsaFunction_ex.isra.0+0x10c>
  1e:	2a00      	cmp	r2, #0
  20:	d074      	beq.n	10c <wc_RsaFunction_ex.isra.0+0x10c>
  22:	2b00      	cmp	r3, #0
  24:	d072      	beq.n	10c <wc_RsaFunction_ex.isra.0+0x10c>
  26:	681b      	ldr	r3, [r3, #0]
  28:	2b00      	cmp	r3, #0
  2a:	d06f      	beq.n	10c <wc_RsaFunction_ex.isra.0+0x10c>
  2c:	6b3b      	ldr	r3, [r7, #48]	@ 0x30
  2e:	3301      	adds	r3, #1
  30:	d06c      	beq.n	10c <wc_RsaFunction_ex.isra.0+0x10c>
  32:	4620      	mov	r0, r4
  34:	f7ff fffe 	bl	0 <wc_RsaFunction_ex.isra.0>
  38:	1e03      	subs	r3, r0, #0
  3a:	db56      	blt.n	ea <wc_RsaFunction_ex.isra.0+0xea>
  3c:	429e      	cmp	r6, r3
  3e:	d85c      	bhi.n	fa <wc_RsaFunction_ex.isra.0+0xfa>
  40:	682a      	ldr	r2, [r5, #0]
  42:	4293      	cmp	r3, r2
  44:	d85c      	bhi.n	100 <wc_RsaFunction_ex.isra.0+0x100>
  46:	6822      	ldr	r2, [r4, #0]
  48:	b112      	cbz	r2, 50 <wc_RsaFunction_ex.isra.0+0x50>
  4a:	68a2      	ldr	r2, [r4, #8]
  4c:	07d2      	lsls	r2, r2, #31
  4e:	d55a      	bpl.n	106 <wc_RsaFunction_ex.isra.0+0x106>
  50:	602b      	str	r3, [r5, #0]
  52:	6822      	ldr	r2, [r4, #0]
  54:	f032 4278 	bics.w	r2, r2, #4160749568	@ 0xf8000000
  58:	bf1a      	itte	ne
  5a:	00d2      	lslne	r2, r2, #3
  5c:	320c      	addne	r2, #12
  5e:	220c      	moveq	r2, #12
  60:	1dd3      	adds	r3, r2, #7
  62:	f023 0307 	bic.w	r3, r3, #7
  66:	46ea      	mov	sl, sp
  68:	ebad 0d03 	sub.w	sp, sp, r3
  6c:	2100      	movs	r1, #0
  6e:	4668      	mov	r0, sp
  70:	f7ff fffe 	bl	0 <memset>
  74:	6821      	ldr	r1, [r4, #0]
  76:	f021 4178 	bic.w	r1, r1, #4160749568	@ 0xf8000000
  7a:	0049      	lsls	r1, r1, #1
  7c:	3101      	adds	r1, #1
  7e:	4668      	mov	r0, sp
  80:	46eb      	mov	fp, sp
  82:	f7ff fffe 	bl	0 <sp_init_size>
  86:	bb20      	cbnz	r0, d2 <wc_RsaFunction_ex.isra.0+0xd2>
  88:	4632      	mov	r2, r6
  8a:	4649      	mov	r1, r9
  8c:	4668      	mov	r0, sp
  8e:	f7ff fffe 	bl	0 <sp_read_unsigned_bin>
  92:	bb08      	cbnz	r0, d8 <wc_RsaFunction_ex.isra.0+0xd8>
  94:	6b3b      	ldr	r3, [r7, #48]	@ 0x30
  96:	2b01      	cmp	r3, #1
  98:	d821      	bhi.n	de <wc_RsaFunction_ex.isra.0+0xde>
  9a:	466b      	mov	r3, sp
  9c:	4622      	mov	r2, r4
  9e:	f504 7143 	add.w	r1, r4, #780	@ 0x30c
  a2:	4668      	mov	r0, sp
  a4:	f7ff fffe 	bl	0 <sp_exptmod_nct>
  a8:	b9e0      	cbnz	r0, e4 <wc_RsaFunction_ex.isra.0+0xe4>
  aa:	682a      	ldr	r2, [r5, #0]
  ac:	4641      	mov	r1, r8
  ae:	4668      	mov	r0, sp
  b0:	f7ff fffe 	bl	0 <sp_to_unsigned_bin_len_ct>
  b4:	1e03      	subs	r3, r0, #0
  b6:	bf18      	it	ne
  b8:	f06f 0370 	mvnne.w	r3, #112	@ 0x70
  bc:	4658      	mov	r0, fp
  be:	607b      	str	r3, [r7, #4]
  c0:	f7ff fffe 	bl	0 <sp_forcezero>
  c4:	687b      	ldr	r3, [r7, #4]
  c6:	46d5      	mov	sp, sl
  c8:	b193      	cbz	r3, f0 <wc_RsaFunction_ex.isra.0+0xf0>
  ca:	2200      	movs	r2, #0
  cc:	f8c4 2624 	str.w	r2, [r4, #1572]	@ 0x624
  d0:	e00e      	b.n	f0 <wc_RsaFunction_ex.isra.0+0xf0>
  d2:	f06f 036d 	mvn.w	r3, #109	@ 0x6d
  d6:	e7f1      	b.n	bc <wc_RsaFunction_ex.isra.0+0xbc>
  d8:	f06f 036e 	mvn.w	r3, #110	@ 0x6e
  dc:	e7ee      	b.n	bc <wc_RsaFunction_ex.isra.0+0xbc>
  de:	f06f 0381 	mvn.w	r3, #129	@ 0x81
  e2:	e7eb      	b.n	bc <wc_RsaFunction_ex.isra.0+0xbc>
  e4:	f06f 036f 	mvn.w	r3, #111	@ 0x6f
  e8:	e7e8      	b.n	bc <wc_RsaFunction_ex.isra.0+0xbc>
  ea:	f113 0f6c 	cmn.w	r3, #108	@ 0x6c
  ee:	d1ec      	bne.n	ca <wc_RsaFunction_ex.isra.0+0xca>
  f0:	4618      	mov	r0, r3
  f2:	370c      	adds	r7, #12
  f4:	46bd      	mov	sp, r7
  f6:	e8bd 8ff0 	ldmia.w	sp!, {r4, r5, r6, r7, r8, r9, sl, fp, pc}
  fa:	f06f 03ac 	mvn.w	r3, #172	@ 0xac
  fe:	e7e4      	b.n	ca <wc_RsaFunction_ex.isra.0+0xca>
 100:	f06f 0382 	mvn.w	r3, #130	@ 0x82
 104:	e7e1      	b.n	ca <wc_RsaFunction_ex.isra.0+0xca>
 106:	f06f 0302 	mvn.w	r3, #2
 10a:	e7de      	b.n	ca <wc_RsaFunction_ex.isra.0+0xca>
 10c:	f06f 03ac 	mvn.w	r3, #172	@ 0xac
 110:	e7ee      	b.n	f0 <wc_RsaFunction_ex.isra.0+0xf0>

Disassembly of section .text.RsaPrivateDecryptEx.constprop.0.isra.0:

00000000 <RsaPrivateDecryptEx.constprop.0.isra.0>:
   0:	e92d 41f0 	stmdb	sp!, {r4, r5, r6, r7, r8, lr}
   4:	b08a      	sub	sp, #40	@ 0x28
   6:	461f      	mov	r7, r3
   8:	2300      	movs	r3, #0
   a:	e9dd 8510 	ldrd	r8, r5, [sp, #64]	@ 0x40
   e:	4616      	mov	r6, r2
  10:	9309      	str	r3, [sp, #36]	@ 0x24
  12:	2800      	cmp	r0, #0
  14:	d06f      	beq.n	f6 <RsaPrivateDecryptEx.constprop.0.isra.0+0xf6>
  16:	2900      	cmp	r1, #0
  18:	d06d      	beq.n	f6 <RsaPrivateDecryptEx.constprop.0.isra.0+0xf6>
  1a:	2a00      	cmp	r2, #0
  1c:	d06b      	beq.n	f6 <RsaPrivateDecryptEx.constprop.0.isra.0+0xf6>
  1e:	2d00      	cmp	r5, #0
  20:	d069      	beq.n	f6 <RsaPrivateDecryptEx.constprop.0.isra.0+0xf6>
  22:	f8d5 3624 	ldr.w	r3, [r5, #1572]	@ 0x624
  26:	2b06      	cmp	r3, #6
  28:	d805      	bhi.n	36 <RsaPrivateDecryptEx.constprop.0.isra.0+0x36>
  2a:	e8df f003 	tbb	[pc, r3]
  2e:	040a      	.short	0x040a
  30:	1c0f0404 	.word	0x1c0f0404
  34:	61          	.byte	0x61
  35:	00          	.byte	0x00
  36:	f06f 04bf 	mvn.w	r4, #191	@ 0xbf
  3a:	2300      	movs	r3, #0
  3c:	f8c5 3624 	str.w	r3, [r5, #1572]	@ 0x624
  40:	e048      	b.n	d4 <RsaPrivateDecryptEx.constprop.0.isra.0+0xd4>
  42:	2304      	movs	r3, #4
  44:	f8c5 1628 	str.w	r1, [r5, #1576]	@ 0x628
  48:	f8c5 3624 	str.w	r3, [r5, #1572]	@ 0x624
  4c:	2301      	movs	r3, #1
  4e:	9300      	str	r3, [sp, #0]
  50:	9501      	str	r5, [sp, #4]
  52:	f505 63c5 	add.w	r3, r5, #1576	@ 0x628
  56:	4632      	mov	r2, r6
  58:	f7ff fffe 	bl	0 <RsaPrivateDecryptEx.constprop.0.isra.0>
  5c:	1e04      	subs	r4, r0, #0
  5e:	db31      	blt.n	c4 <RsaPrivateDecryptEx.constprop.0.isra.0+0xc4>
  60:	2305      	movs	r3, #5
  62:	f8c5 3624 	str.w	r3, [r5, #1572]	@ 0x624
  66:	4628      	mov	r0, r5
  68:	f8d5 4628 	ldr.w	r4, [r5, #1576]	@ 0x628
  6c:	f7ff fffe 	bl	0 <sp_count_bits>
  70:	f8d5 3618 	ldr.w	r3, [r5, #1560]	@ 0x618
  74:	e9cd 0306 	strd	r0, r3, [sp, #24]
  78:	9b15      	ldr	r3, [sp, #84]	@ 0x54
  7a:	9305      	str	r3, [sp, #20]
  7c:	2300      	movs	r3, #0
  7e:	e9cd 3303 	strd	r3, r3, [sp, #12]
  82:	9b14      	ldr	r3, [sp, #80]	@ 0x50
  84:	9302      	str	r3, [sp, #8]
  86:	f89d 304c 	ldrb.w	r3, [sp, #76]	@ 0x4c
  8a:	9301      	str	r3, [sp, #4]
  8c:	9b12      	ldr	r3, [sp, #72]	@ 0x48
  8e:	9300      	str	r3, [sp, #0]
  90:	4621      	mov	r1, r4
  92:	2301      	movs	r3, #1
  94:	aa09      	add	r2, sp, #36	@ 0x24
  96:	4630      	mov	r0, r6
  98:	f7ff fffe 	bl	0 <RsaPrivateDecryptEx.constprop.0.isra.0>
  9c:	42b8      	cmp	r0, r7
  9e:	4604      	mov	r4, r0
  a0:	dc0d      	bgt.n	be <RsaPrivateDecryptEx.constprop.0.isra.0+0xbe>
  a2:	2800      	cmp	r0, #0
  a4:	db1d      	blt.n	e2 <RsaPrivateDecryptEx.constprop.0.isra.0+0xe2>
  a6:	9909      	ldr	r1, [sp, #36]	@ 0x24
  a8:	2900      	cmp	r1, #0
  aa:	d0c6      	beq.n	3a <RsaPrivateDecryptEx.constprop.0.isra.0+0x3a>
  ac:	f1b8 0f00 	cmp.w	r8, #0
  b0:	d114      	bne.n	dc <RsaPrivateDecryptEx.constprop.0.isra.0+0xdc>
  b2:	4602      	mov	r2, r0
  b4:	4630      	mov	r0, r6
  b6:	f7ff fffe 	bl	0 <memcpy>
  ba:	42a7      	cmp	r7, r4
  bc:	d2bd      	bcs.n	3a <RsaPrivateDecryptEx.constprop.0.isra.0+0x3a>
  be:	f06f 0482 	mvn.w	r4, #130	@ 0x82
  c2:	e7ba      	b.n	3a <RsaPrivateDecryptEx.constprop.0.isra.0+0x3a>
  c4:	f114 0f6c 	cmn.w	r4, #108	@ 0x6c
  c8:	d1b7      	bne.n	3a <RsaPrivateDecryptEx.constprop.0.isra.0+0x3a>
  ca:	2305      	movs	r3, #5
  cc:	f8c5 3624 	str.w	r3, [r5, #1572]	@ 0x624
  d0:	f06f 046b 	mvn.w	r4, #107	@ 0x6b
  d4:	4620      	mov	r0, r4
  d6:	b00a      	add	sp, #40	@ 0x28
  d8:	e8bd 81f0 	ldmia.w	sp!, {r4, r5, r6, r7, r8, pc}
  dc:	f8c8 1000 	str.w	r1, [r8]
  e0:	e7eb      	b.n	ba <RsaPrivateDecryptEx.constprop.0.isra.0+0xba>
  e2:	2306      	movs	r3, #6
  e4:	f110 0f6c 	cmn.w	r0, #108	@ 0x6c
  e8:	f8c5 3624 	str.w	r3, [r5, #1572]	@ 0x624
  ec:	d1a5      	bne.n	3a <RsaPrivateDecryptEx.constprop.0.isra.0+0x3a>
  ee:	e7ef      	b.n	d0 <RsaPrivateDecryptEx.constprop.0.isra.0+0xd0>
  f0:	f06f 0481 	mvn.w	r4, #129	@ 0x81
  f4:	e7a1      	b.n	3a <RsaPrivateDecryptEx.constprop.0.isra.0+0x3a>
  f6:	f06f 04ac 	mvn.w	r4, #172	@ 0xac
  fa:	e7eb      	b.n	d4 <RsaPrivateDecryptEx.constprop.0.isra.0+0xd4>

Disassembly of section .text.wc_RsaSSL_VerifyInline:

00000000 <wc_RsaSSL_VerifyInline>:
   0:	b510      	push	{r4, lr}
   2:	2400      	movs	r4, #0
   4:	b086      	sub	sp, #24
   6:	e9cd 2300 	strd	r2, r3, [sp]
   a:	e9cd 4404 	strd	r4, r4, [sp, #16]
   e:	e9cd 4402 	strd	r4, r4, [sp, #8]
  12:	460b      	mov	r3, r1
  14:	4602      	mov	r2, r0
  16:	f7ff fffe 	bl	0 <wc_RsaSSL_VerifyInline>
  1a:	b006      	add	sp, #24
  1c:	bd10      	pop	{r4, pc}

Disassembly of section .text.wc_RsaPSS_VerifyInline_ex:

00000000 <wc_RsaPSS_VerifyInline_ex>:
   0:	b510      	push	{r4, lr}
   2:	b086      	sub	sp, #24
   4:	9c09      	ldr	r4, [sp, #36]	@ 0x24
   6:	9405      	str	r4, [sp, #20]
   8:	9c08      	ldr	r4, [sp, #32]
   a:	e9cd 3403 	strd	r3, r4, [sp, #12]
   e:	2302      	movs	r3, #2
  10:	9302      	str	r3, [sp, #8]
  12:	9b0a      	ldr	r3, [sp, #40]	@ 0x28
  14:	e9cd 2300 	strd	r2, r3, [sp]
  18:	460b      	mov	r3, r1
  1a:	4602      	mov	r2, r0
  1c:	f7ff fffe 	bl	0 <wc_RsaPSS_VerifyInline_ex>
  20:	b006      	add	sp, #24
  22:	bd10      	pop	{r4, pc}

Disassembly of section .text.wc_RsaPSS_VerifyInline:

00000000 <wc_RsaPSS_VerifyInline>:
   0:	b51f      	push	{r0, r1, r2, r3, r4, lr}
   2:	9c07      	ldr	r4, [sp, #28]
   4:	9402      	str	r4, [sp, #8]
   6:	f04f 34ff 	mov.w	r4, #4294967295	@ 0xffffffff
   a:	9401      	str	r4, [sp, #4]
   c:	9c06      	ldr	r4, [sp, #24]
   e:	9400      	str	r4, [sp, #0]
  10:	f7ff fffe 	bl	0 <wc_RsaPSS_VerifyInline>
  14:	b004      	add	sp, #16
  16:	bd10      	pop	{r4, pc}

Disassembly of section .text.wc_RsaPSS_VerifyCheckInline:

00000000 <wc_RsaPSS_VerifyCheckInline>:
   0:	e92d 43f0 	stmdb	sp!, {r4, r5, r6, r7, r8, r9, lr}
   4:	b085      	sub	sp, #20
   6:	4604      	mov	r4, r0
   8:	f89d 8034 	ldrb.w	r8, [sp, #52]	@ 0x34
   c:	9d0c      	ldr	r5, [sp, #48]	@ 0x30
   e:	4640      	mov	r0, r8
  10:	4616      	mov	r6, r2
  12:	4689      	mov	r9, r1
  14:	461f      	mov	r7, r3
  16:	f7ff fffe 	bl	0 <wc_HashGetDigestSize>
  1a:	1e02      	subs	r2, r0, #0
  1c:	db20      	blt.n	60 <wc_RsaPSS_VerifyCheckInline+0x60>
  1e:	4295      	cmp	r5, r2
  20:	d11e      	bne.n	60 <wc_RsaPSS_VerifyCheckInline+0x60>
  22:	9b0f      	ldr	r3, [sp, #60]	@ 0x3c
  24:	e9cd 5301 	strd	r5, r3, [sp, #4]
  28:	9b0e      	ldr	r3, [sp, #56]	@ 0x38
  2a:	9300      	str	r3, [sp, #0]
  2c:	4620      	mov	r0, r4
  2e:	4643      	mov	r3, r8
  30:	4632      	mov	r2, r6
  32:	4649      	mov	r1, r9
  34:	f7ff fffe 	bl	0 <wc_RsaPSS_VerifyCheckInline>
  38:	1e04      	subs	r4, r0, #0
  3a:	dc03      	bgt.n	44 <wc_RsaPSS_VerifyCheckInline+0x44>
  3c:	4620      	mov	r0, r4
  3e:	b005      	add	sp, #20
  40:	e8bd 83f0 	ldmia.w	sp!, {r4, r5, r6, r7, r8, r9, pc}
  44:	2300      	movs	r3, #0
  46:	e9cd 5301 	strd	r5, r3, [sp, #4]
  4a:	f8cd 8000 	str.w	r8, [sp]
  4e:	6832      	ldr	r2, [r6, #0]
  50:	4623      	mov	r3, r4
  52:	4629      	mov	r1, r5
  54:	4638      	mov	r0, r7
  56:	f7ff fffe 	bl	0 <wc_RsaPSS_VerifyCheckInline>
  5a:	2800      	cmp	r0, #0
  5c:	d0ee      	beq.n	3c <wc_RsaPSS_VerifyCheckInline+0x3c>
  5e:	e7ee      	b.n	3e <wc_RsaPSS_VerifyCheckInline+0x3e>
  60:	f06f 00ac 	mvn.w	r0, #172	@ 0xac
  64:	e7eb      	b.n	3e <wc_RsaPSS_VerifyCheckInline+0x3e>

Disassembly of section .text.wc_RsaPSS_Verify_ex:

00000000 <wc_RsaPSS_Verify_ex>:
   0:	b510      	push	{r4, lr}
   2:	b086      	sub	sp, #24
   4:	9c0a      	ldr	r4, [sp, #40]	@ 0x28
   6:	9405      	str	r4, [sp, #20]
   8:	9c09      	ldr	r4, [sp, #36]	@ 0x24
   a:	9404      	str	r4, [sp, #16]
   c:	f89d 4020 	ldrb.w	r4, [sp, #32]
  10:	9403      	str	r4, [sp, #12]
  12:	2402      	movs	r4, #2
  14:	9402      	str	r4, [sp, #8]
  16:	9c0b      	ldr	r4, [sp, #44]	@ 0x2c
  18:	9401      	str	r4, [sp, #4]
  1a:	2400      	movs	r4, #0
  1c:	9400      	str	r4, [sp, #0]
  1e:	f7ff fffe 	bl	0 <wc_RsaPSS_Verify_ex>
  22:	b006      	add	sp, #24
  24:	bd10      	pop	{r4, pc}

Disassembly of section .text.wc_RsaPSS_Verify:

00000000 <wc_RsaPSS_Verify>:
   0:	b51f      	push	{r0, r1, r2, r3, r4, lr}
   2:	9c08      	ldr	r4, [sp, #32]
   4:	9403      	str	r4, [sp, #12]
   6:	f04f 34ff 	mov.w	r4, #4294967295	@ 0xffffffff
   a:	9402      	str	r4, [sp, #8]
   c:	9c07      	ldr	r4, [sp, #28]
   e:	9401      	str	r4, [sp, #4]
  10:	f89d 4018 	ldrb.w	r4, [sp, #24]
  14:	9400      	str	r4, [sp, #0]
  16:	f7ff fffe 	bl	0 <wc_RsaPSS_Verify>
  1a:	b004      	add	sp, #16
  1c:	bd10      	pop	{r4, pc}

Disassembly of section .text.wc_RsaPSS_VerifyCheck:

00000000 <wc_RsaPSS_VerifyCheck>:
   0:	e92d 43f0 	stmdb	sp!, {r4, r5, r6, r7, r8, r9, lr}
   4:	b085      	sub	sp, #20
   6:	4605      	mov	r5, r0
   8:	f89d 7038 	ldrb.w	r7, [sp, #56]	@ 0x38
   c:	4638      	mov	r0, r7
   e:	4688      	mov	r8, r1
  10:	4616      	mov	r6, r2
  12:	4699      	mov	r9, r3
  14:	f7ff fffe 	bl	0 <wc_HashGetDigestSize>
  18:	1e04      	subs	r4, r0, #0
  1a:	db1d      	blt.n	58 <wc_RsaPSS_VerifyCheck+0x58>
  1c:	9b0d      	ldr	r3, [sp, #52]	@ 0x34
  1e:	42a3      	cmp	r3, r4
  20:	d11e      	bne.n	60 <wc_RsaPSS_VerifyCheck+0x60>
  22:	9b10      	ldr	r3, [sp, #64]	@ 0x40
  24:	e9cd 4302 	strd	r4, r3, [sp, #8]
  28:	9b0f      	ldr	r3, [sp, #60]	@ 0x3c
  2a:	4628      	mov	r0, r5
  2c:	e9cd 7300 	strd	r7, r3, [sp]
  30:	4632      	mov	r2, r6
  32:	464b      	mov	r3, r9
  34:	4641      	mov	r1, r8
  36:	f7ff fffe 	bl	0 <wc_RsaPSS_VerifyCheck>
  3a:	1e05      	subs	r5, r0, #0
  3c:	dd0b      	ble.n	56 <wc_RsaPSS_VerifyCheck+0x56>
  3e:	2300      	movs	r3, #0
  40:	e9cd 4301 	strd	r4, r3, [sp, #4]
  44:	4621      	mov	r1, r4
  46:	980c      	ldr	r0, [sp, #48]	@ 0x30
  48:	9700      	str	r7, [sp, #0]
  4a:	462b      	mov	r3, r5
  4c:	4632      	mov	r2, r6
  4e:	f7ff fffe 	bl	0 <wc_RsaPSS_VerifyCheck>
  52:	4604      	mov	r4, r0
  54:	b900      	cbnz	r0, 58 <wc_RsaPSS_VerifyCheck+0x58>
  56:	462c      	mov	r4, r5
  58:	4620      	mov	r0, r4
  5a:	b005      	add	sp, #20
  5c:	e8bd 83f0 	ldmia.w	sp!, {r4, r5, r6, r7, r8, r9, pc}
  60:	f06f 04ac 	mvn.w	r4, #172	@ 0xac
  64:	e7f8      	b.n	58 <wc_RsaPSS_VerifyCheck+0x58>

Disassembly of section .text.wc_RsaFunction:

00000000 <wc_RsaFunction>:
   0:	f7ff bffe 	b.w	0 <wc_RsaFunction>

Disassembly of section .text.wc_RsaSetRNG:

00000000 <wc_RsaSetRNG>:
   0:	b120      	cbz	r0, c <wc_RsaSetRNG+0xc>
   2:	b119      	cbz	r1, c <wc_RsaSetRNG+0xc>
   4:	f8c0 162c 	str.w	r1, [r0, #1580]	@ 0x62c
   8:	2000      	movs	r0, #0
   a:	4770      	bx	lr
   c:	f06f 00ac 	mvn.w	r0, #172	@ 0xac
  10:	4770      	bx	lr

sha.o:     file format elf32-littlearm


Disassembly of section .text.ByteReverseWords:

00000000 <ByteReverseWords>:
   0:	b510      	push	{r4, lr}
   2:	0892      	lsrs	r2, r2, #2
   4:	2300      	movs	r3, #0
   6:	f851 4023 	ldr.w	r4, [r1, r3, lsl #2]
   a:	ba24      	rev	r4, r4
   c:	f840 4023 	str.w	r4, [r0, r3, lsl #2]
  10:	3301      	adds	r3, #1
  12:	429a      	cmp	r2, r3
  14:	d1f7      	bne.n	6 <ByteReverseWords+0x6>
  16:	bd10      	pop	{r4, pc}

Disassembly of section .text.Transform:

00000000 <Transform>:
   0:	e92d 4ff0 	stmdb	sp!, {r4, r5, r6, r7, r8, r9, sl, fp, lr}
   4:	b09b      	sub	sp, #108	@ 0x6c
   6:	6cc3      	ldr	r3, [r0, #76]	@ 0x4c
   8:	930f      	str	r3, [sp, #60]	@ 0x3c
   a:	6d03      	ldr	r3, [r0, #80]	@ 0x50
   c:	9303      	str	r3, [sp, #12]
   e:	6d43      	ldr	r3, [r0, #84]	@ 0x54
  10:	9306      	str	r3, [sp, #24]
  12:	6d83      	ldr	r3, [r0, #88]	@ 0x58
  14:	9310      	str	r3, [sp, #64]	@ 0x40
  16:	6dc3      	ldr	r3, [r0, #92]	@ 0x5c
  18:	9312      	str	r3, [sp, #72]	@ 0x48
  1a:	680b      	ldr	r3, [r1, #0]
  1c:	9307      	str	r3, [sp, #28]
  1e:	9a07      	ldr	r2, [sp, #28]
  20:	4bd4      	ldr	r3, [pc, #848]	@ (374 <Transform+0x374>)
  22:	9c10      	ldr	r4, [sp, #64]	@ 0x40
  24:	9d10      	ldr	r5, [sp, #64]	@ 0x40
  26:	f8d1 e008 	ldr.w	lr, [r1, #8]
  2a:	e9cd 1001 	strd	r1, r0, [sp, #4]
  2e:	18d0      	adds	r0, r2, r3
  30:	9a12      	ldr	r2, [sp, #72]	@ 0x48
  32:	4410      	add	r0, r2
  34:	9a0f      	ldr	r2, [sp, #60]	@ 0x3c
  36:	eb00 60f2 	add.w	r0, r0, r2, ror #27
  3a:	9a06      	ldr	r2, [sp, #24]
  3c:	4062      	eors	r2, r4
  3e:	9c03      	ldr	r4, [sp, #12]
  40:	4022      	ands	r2, r4
  42:	9c10      	ldr	r4, [sp, #64]	@ 0x40
  44:	4062      	eors	r2, r4
  46:	4402      	add	r2, r0
  48:	6848      	ldr	r0, [r1, #4]
  4a:	9c03      	ldr	r4, [sp, #12]
  4c:	9008      	str	r0, [sp, #32]
  4e:	9806      	ldr	r0, [sp, #24]
  50:	ea80 00b4 	eor.w	r0, r0, r4, ror #2
  54:	9c0f      	ldr	r4, [sp, #60]	@ 0x3c
  56:	4020      	ands	r0, r4
  58:	9c06      	ldr	r4, [sp, #24]
  5a:	4060      	eors	r0, r4
  5c:	9c08      	ldr	r4, [sp, #32]
  5e:	441c      	add	r4, r3
  60:	442c      	add	r4, r5
  62:	4420      	add	r0, r4
  64:	9c0f      	ldr	r4, [sp, #60]	@ 0x3c
  66:	9d03      	ldr	r5, [sp, #12]
  68:	9e03      	ldr	r6, [sp, #12]
  6a:	f8d1 800c 	ldr.w	r8, [r1, #12]
  6e:	9f06      	ldr	r7, [sp, #24]
  70:	9903      	ldr	r1, [sp, #12]
  72:	ea4f 04b4 	mov.w	r4, r4, ror #2
  76:	ea84 05b5 	eor.w	r5, r4, r5, ror #2
  7a:	4015      	ands	r5, r2
  7c:	ea85 05b6 	eor.w	r5, r5, r6, ror #2
  80:	eb0e 0603 	add.w	r6, lr, r3
  84:	443e      	add	r6, r7
  86:	eb08 0703 	add.w	r7, r8, r3
  8a:	eb00 60f2 	add.w	r0, r0, r2, ror #27
  8e:	eb07 07b1 	add.w	r7, r7, r1, ror #2
  92:	4435      	add	r5, r6
  94:	9901      	ldr	r1, [sp, #4]
  96:	ea84 06b2 	eor.w	r6, r4, r2, ror #2
  9a:	4006      	ands	r6, r0
  9c:	eb05 65f0 	add.w	r5, r5, r0, ror #27
  a0:	f8d1 9010 	ldr.w	r9, [r1, #16]
  a4:	f8d1 a014 	ldr.w	sl, [r1, #20]
  a8:	f8d1 b018 	ldr.w	fp, [r1, #24]
  ac:	69c9      	ldr	r1, [r1, #28]
  ae:	9111      	str	r1, [sp, #68]	@ 0x44
  b0:	ea4f 00b0 	mov.w	r0, r0, ror #2
  b4:	4066      	eors	r6, r4
  b6:	443e      	add	r6, r7
  b8:	ea80 07b2 	eor.w	r7, r0, r2, ror #2
  bc:	eb09 0c03 	add.w	ip, r9, r3
  c0:	402f      	ands	r7, r5
  c2:	44a4      	add	ip, r4
  c4:	ea87 07b2 	eor.w	r7, r7, r2, ror #2
  c8:	eb06 66f5 	add.w	r6, r6, r5, ror #27
  cc:	ea80 04b5 	eor.w	r4, r0, r5, ror #2
  d0:	4467      	add	r7, ip
  d2:	eb07 67f6 	add.w	r7, r7, r6, ror #27
  d6:	eb0a 0c03 	add.w	ip, sl, r3
  da:	4034      	ands	r4, r6
  dc:	ea4f 06b6 	mov.w	r6, r6, ror #2
  e0:	eb0c 0cb2 	add.w	ip, ip, r2, ror #2
  e4:	4044      	eors	r4, r0
  e6:	ea86 02b5 	eor.w	r2, r6, r5, ror #2
  ea:	4464      	add	r4, ip
  ec:	403a      	ands	r2, r7
  ee:	eb0b 0c03 	add.w	ip, fp, r3
  f2:	4484      	add	ip, r0
  f4:	ea82 02b5 	eor.w	r2, r2, r5, ror #2
  f8:	4462      	add	r2, ip
  fa:	eb01 0c03 	add.w	ip, r1, r3
  fe:	9901      	ldr	r1, [sp, #4]
 100:	eb04 64f7 	add.w	r4, r4, r7, ror #27
 104:	ea86 00b7 	eor.w	r0, r6, r7, ror #2
 108:	6a09      	ldr	r1, [r1, #32]
 10a:	910a      	str	r1, [sp, #40]	@ 0x28
 10c:	4020      	ands	r0, r4
 10e:	eb0c 0cb5 	add.w	ip, ip, r5, ror #2
 112:	4070      	eors	r0, r6
 114:	eb02 62f4 	add.w	r2, r2, r4, ror #27
 118:	4460      	add	r0, ip
 11a:	ea4f 04b4 	mov.w	r4, r4, ror #2
 11e:	eb01 0c03 	add.w	ip, r1, r3
 122:	9901      	ldr	r1, [sp, #4]
 124:	ea84 05b7 	eor.w	r5, r4, r7, ror #2
 128:	6a49      	ldr	r1, [r1, #36]	@ 0x24
 12a:	910b      	str	r1, [sp, #44]	@ 0x2c
 12c:	4015      	ands	r5, r2
 12e:	44b4      	add	ip, r6
 130:	ea85 05b7 	eor.w	r5, r5, r7, ror #2
 134:	4465      	add	r5, ip
 136:	eb01 0c03 	add.w	ip, r1, r3
 13a:	9901      	ldr	r1, [sp, #4]
 13c:	eb00 60f2 	add.w	r0, r0, r2, ror #27
 140:	ea84 06b2 	eor.w	r6, r4, r2, ror #2
 144:	6a89      	ldr	r1, [r1, #40]	@ 0x28
 146:	910c      	str	r1, [sp, #48]	@ 0x30
 148:	4006      	ands	r6, r0
 14a:	eb0c 0cb7 	add.w	ip, ip, r7, ror #2
 14e:	4066      	eors	r6, r4
 150:	eb05 65f0 	add.w	r5, r5, r0, ror #27
 154:	4466      	add	r6, ip
 156:	ea4f 00b0 	mov.w	r0, r0, ror #2
 15a:	eb01 0c03 	add.w	ip, r1, r3
 15e:	9901      	ldr	r1, [sp, #4]
 160:	ea80 07b2 	eor.w	r7, r0, r2, ror #2
 164:	6ac9      	ldr	r1, [r1, #44]	@ 0x2c
 166:	910d      	str	r1, [sp, #52]	@ 0x34
 168:	402f      	ands	r7, r5
 16a:	44a4      	add	ip, r4
 16c:	ea87 07b2 	eor.w	r7, r7, r2, ror #2
 170:	4467      	add	r7, ip
 172:	eb01 0c03 	add.w	ip, r1, r3
 176:	eb0c 0cb2 	add.w	ip, ip, r2, ror #2
 17a:	9a01      	ldr	r2, [sp, #4]
 17c:	6b12      	ldr	r2, [r2, #48]	@ 0x30
 17e:	920e      	str	r2, [sp, #56]	@ 0x38
 180:	eb06 66f5 	add.w	r6, r6, r5, ror #27
 184:	ea80 04b5 	eor.w	r4, r0, r5, ror #2
 188:	990e      	ldr	r1, [sp, #56]	@ 0x38
 18a:	4034      	ands	r4, r6
 18c:	4044      	eors	r4, r0
 18e:	eb07 67f6 	add.w	r7, r7, r6, ror #27
 192:	4464      	add	r4, ip
 194:	ea4f 06b6 	mov.w	r6, r6, ror #2
 198:	eb01 0c03 	add.w	ip, r1, r3
 19c:	9901      	ldr	r1, [sp, #4]
 19e:	ea86 02b5 	eor.w	r2, r6, r5, ror #2
 1a2:	6b49      	ldr	r1, [r1, #52]	@ 0x34
 1a4:	9104      	str	r1, [sp, #16]
 1a6:	403a      	ands	r2, r7
 1a8:	4484      	add	ip, r0
 1aa:	ea82 02b5 	eor.w	r2, r2, r5, ror #2
 1ae:	4462      	add	r2, ip
 1b0:	eb01 0c03 	add.w	ip, r1, r3
 1b4:	9901      	ldr	r1, [sp, #4]
 1b6:	eb04 64f7 	add.w	r4, r4, r7, ror #27
 1ba:	ea86 00b7 	eor.w	r0, r6, r7, ror #2
 1be:	6b89      	ldr	r1, [r1, #56]	@ 0x38
 1c0:	9105      	str	r1, [sp, #20]
 1c2:	4020      	ands	r0, r4
 1c4:	eb0c 0cb5 	add.w	ip, ip, r5, ror #2
 1c8:	4070      	eors	r0, r6
 1ca:	4460      	add	r0, ip
 1cc:	eb01 0c03 	add.w	ip, r1, r3
 1d0:	9901      	ldr	r1, [sp, #4]
 1d2:	6bc9      	ldr	r1, [r1, #60]	@ 0x3c
 1d4:	9101      	str	r1, [sp, #4]
 1d6:	eb02 62f4 	add.w	r2, r2, r4, ror #27
 1da:	44b4      	add	ip, r6
 1dc:	ea4f 04b4 	mov.w	r4, r4, ror #2
 1e0:	9e01      	ldr	r6, [sp, #4]
 1e2:	eb00 60f2 	add.w	r0, r0, r2, ror #27
 1e6:	ea84 01b2 	eor.w	r1, r4, r2, ror #2
 1ea:	4001      	ands	r1, r0
 1ec:	441e      	add	r6, r3
 1ee:	ea84 05b7 	eor.w	r5, r4, r7, ror #2
 1f2:	eb06 06b7 	add.w	r6, r6, r7, ror #2
 1f6:	4061      	eors	r1, r4
 1f8:	4015      	ands	r5, r2
 1fa:	4431      	add	r1, r6
 1fc:	9e07      	ldr	r6, [sp, #28]
 1fe:	ea85 05b7 	eor.w	r5, r5, r7, ror #2
 202:	9f0a      	ldr	r7, [sp, #40]	@ 0x28
 204:	ea86 060e 	eor.w	r6, r6, lr
 208:	407e      	eors	r6, r7
 20a:	9f04      	ldr	r7, [sp, #16]
 20c:	407e      	eors	r6, r7
 20e:	9607      	str	r6, [sp, #28]
 210:	4465      	add	r5, ip
 212:	eb05 65f0 	add.w	r5, r5, r0, ror #27
 216:	9f07      	ldr	r7, [sp, #28]
 218:	ea4f 00b0 	mov.w	r0, r0, ror #2
 21c:	ea80 06b2 	eor.w	r6, r0, r2, ror #2
 220:	402e      	ands	r6, r5
 222:	eb03 77f7 	add.w	r7, r3, r7, ror #31
 226:	4427      	add	r7, r4
 228:	ea86 06b2 	eor.w	r6, r6, r2, ror #2
 22c:	9c08      	ldr	r4, [sp, #32]
 22e:	443e      	add	r6, r7
 230:	9f0b      	ldr	r7, [sp, #44]	@ 0x2c
 232:	ea84 0408 	eor.w	r4, r4, r8
 236:	407c      	eors	r4, r7
 238:	9f05      	ldr	r7, [sp, #20]
 23a:	407c      	eors	r4, r7
 23c:	9408      	str	r4, [sp, #32]
 23e:	9f08      	ldr	r7, [sp, #32]
 240:	eb01 61f5 	add.w	r1, r1, r5, ror #27
 244:	ea80 04b5 	eor.w	r4, r0, r5, ror #2
 248:	400c      	ands	r4, r1
 24a:	eb03 77f7 	add.w	r7, r3, r7, ror #31
 24e:	eb07 07b2 	add.w	r7, r7, r2, ror #2
 252:	4044      	eors	r4, r0
 254:	9a0c      	ldr	r2, [sp, #48]	@ 0x30
 256:	443c      	add	r4, r7
 258:	ea8e 0709 	eor.w	r7, lr, r9
 25c:	4057      	eors	r7, r2
 25e:	9a01      	ldr	r2, [sp, #4]
 260:	4057      	eors	r7, r2
 262:	eb06 66f1 	add.w	r6, r6, r1, ror #27
 266:	ea4f 72f7 	mov.w	r2, r7, ror #31
 26a:	ea4f 01b1 	mov.w	r1, r1, ror #2
 26e:	9213      	str	r2, [sp, #76]	@ 0x4c
 270:	ea81 02b5 	eor.w	r2, r1, r5, ror #2
 274:	eb03 7cf7 	add.w	ip, r3, r7, ror #31
 278:	4032      	ands	r2, r6
 27a:	4484      	add	ip, r0
 27c:	ea82 02b5 	eor.w	r2, r2, r5, ror #2
 280:	980d      	ldr	r0, [sp, #52]	@ 0x34
 282:	4462      	add	r2, ip
 284:	ea88 0c0a 	eor.w	ip, r8, sl
 288:	ea8c 0c00 	eor.w	ip, ip, r0
 28c:	9807      	ldr	r0, [sp, #28]
 28e:	ea8c 7cf0 	eor.w	ip, ip, r0, ror #31
 292:	ea4f 70fc 	mov.w	r0, ip, ror #31
 296:	eb04 64f6 	add.w	r4, r4, r6, ror #27
 29a:	9014      	str	r0, [sp, #80]	@ 0x50
 29c:	ea81 00b6 	eor.w	r0, r1, r6, ror #2
 2a0:	4020      	ands	r0, r4
 2a2:	eb03 73fc 	add.w	r3, r3, ip, ror #31
 2a6:	eb03 03b5 	add.w	r3, r3, r5, ror #2
 2aa:	4048      	eors	r0, r1
 2ac:	9d0e      	ldr	r5, [sp, #56]	@ 0x38
 2ae:	4418      	add	r0, r3
 2b0:	ea89 030b 	eor.w	r3, r9, fp
 2b4:	406b      	eors	r3, r5
 2b6:	9d08      	ldr	r5, [sp, #32]
 2b8:	ea83 73f5 	eor.w	r3, r3, r5, ror #31
 2bc:	9309      	str	r3, [sp, #36]	@ 0x24
 2be:	9d09      	ldr	r5, [sp, #36]	@ 0x24
 2c0:	4b2d      	ldr	r3, [pc, #180]	@ (378 <Transform+0x378>)
 2c2:	eb02 62f4 	add.w	r2, r2, r4, ror #27
 2c6:	ea4f 04b4 	mov.w	r4, r4, ror #2
 2ca:	ea84 09b6 	eor.w	r9, r4, r6, ror #2
 2ce:	eb03 75f5 	add.w	r5, r3, r5, ror #31
 2d2:	440d      	add	r5, r1
 2d4:	ea89 0902 	eor.w	r9, r9, r2
 2d8:	9911      	ldr	r1, [sp, #68]	@ 0x44
 2da:	44a9      	add	r9, r5
 2dc:	9d04      	ldr	r5, [sp, #16]
 2de:	ea8a 0101 	eor.w	r1, sl, r1
 2e2:	4069      	eors	r1, r5
 2e4:	ea81 71f7 	eor.w	r1, r1, r7, ror #31
 2e8:	eb03 7ef1 	add.w	lr, r3, r1, ror #31
 2ec:	eb0e 0eb6 	add.w	lr, lr, r6, ror #2
 2f0:	9e0a      	ldr	r6, [sp, #40]	@ 0x28
 2f2:	ea8b 0806 	eor.w	r8, fp, r6
 2f6:	9e05      	ldr	r6, [sp, #20]
 2f8:	ea88 0806 	eor.w	r8, r8, r6
 2fc:	ea88 78fc 	eor.w	r8, r8, ip, ror #31
 300:	eb00 60f2 	add.w	r0, r0, r2, ror #27
 304:	ea84 05b2 	eor.w	r5, r4, r2, ror #2
 308:	eb09 69f0 	add.w	r9, r9, r0, ror #27
 30c:	ea4f 76f8 	mov.w	r6, r8, ror #31
 310:	4045      	eors	r5, r0
 312:	ea4f 00b0 	mov.w	r0, r0, ror #2
 316:	9615      	str	r6, [sp, #84]	@ 0x54
 318:	ea80 0bb2 	eor.w	fp, r0, r2, ror #2
 31c:	eb03 76f8 	add.w	r6, r3, r8, ror #31
 320:	4426      	add	r6, r4
 322:	ea8b 0b09 	eor.w	fp, fp, r9
 326:	9c11      	ldr	r4, [sp, #68]	@ 0x44
 328:	44b3      	add	fp, r6
 32a:	9e0b      	ldr	r6, [sp, #44]	@ 0x2c
 32c:	4475      	add	r5, lr
 32e:	ea84 0e06 	eor.w	lr, r4, r6
 332:	9c01      	ldr	r4, [sp, #4]
 334:	ea8e 0e04 	eor.w	lr, lr, r4
 338:	9c09      	ldr	r4, [sp, #36]	@ 0x24
 33a:	ea8e 7ef4 	eor.w	lr, lr, r4, ror #31
 33e:	ea4f 74fe 	mov.w	r4, lr, ror #31
 342:	eb05 65f9 	add.w	r5, r5, r9, ror #27
 346:	9416      	str	r4, [sp, #88]	@ 0x58
 348:	ea80 0ab9 	eor.w	sl, r0, r9, ror #2
 34c:	eb03 74fe 	add.w	r4, r3, lr, ror #31
 350:	eb04 04b2 	add.w	r4, r4, r2, ror #2
 354:	ea8a 0a05 	eor.w	sl, sl, r5
 358:	9a0a      	ldr	r2, [sp, #40]	@ 0x28
 35a:	44a2      	add	sl, r4
 35c:	9c0c      	ldr	r4, [sp, #48]	@ 0x30
 35e:	4062      	eors	r2, r4
 360:	9c07      	ldr	r4, [sp, #28]
 362:	ea82 72f4 	eor.w	r2, r2, r4, ror #31
 366:	eb0b 6bf5 	add.w	fp, fp, r5, ror #27
 36a:	ea82 72f1 	eor.w	r2, r2, r1, ror #31
 36e:	ea4f 05b5 	mov.w	r5, r5, ror #2
 372:	e003      	b.n	37c <Transform+0x37c>
 374:	5a827999 	.word	0x5a827999
 378:	6ed9eba1 	.word	0x6ed9eba1
 37c:	ea85 04b9 	eor.w	r4, r5, r9, ror #2
 380:	eb03 76f2 	add.w	r6, r3, r2, ror #31
 384:	4406      	add	r6, r0
 386:	ea84 040b 	eor.w	r4, r4, fp
 38a:	980b      	ldr	r0, [sp, #44]	@ 0x2c
 38c:	920a      	str	r2, [sp, #40]	@ 0x28
 38e:	4434      	add	r4, r6
 390:	9e0d      	ldr	r6, [sp, #52]	@ 0x34
 392:	4070      	eors	r0, r6
 394:	9e08      	ldr	r6, [sp, #32]
 396:	ea80 70f6 	eor.w	r0, r0, r6, ror #31
 39a:	ea80 70f8 	eor.w	r0, r0, r8, ror #31
 39e:	eb0a 6afb 	add.w	sl, sl, fp, ror #27
 3a2:	900b      	str	r0, [sp, #44]	@ 0x2c
 3a4:	ea85 06bb 	eor.w	r6, r5, fp, ror #2
 3a8:	eb03 70f0 	add.w	r0, r3, r0, ror #31
 3ac:	eb00 00b9 	add.w	r0, r0, r9, ror #2
 3b0:	ea4f 02ba 	mov.w	r2, sl, ror #2
 3b4:	ea86 060a 	eor.w	r6, r6, sl
 3b8:	9211      	str	r2, [sp, #68]	@ 0x44
 3ba:	4406      	add	r6, r0
 3bc:	9a0c      	ldr	r2, [sp, #48]	@ 0x30
 3be:	980e      	ldr	r0, [sp, #56]	@ 0x38
 3c0:	eb04 64fa 	add.w	r4, r4, sl, ror #27
 3c4:	ea82 0a00 	eor.w	sl, r2, r0
 3c8:	ea8a 7af7 	eor.w	sl, sl, r7, ror #31
 3cc:	ea8a 7afe 	eor.w	sl, sl, lr, ror #31
 3d0:	ea4f 72fa 	mov.w	r2, sl, ror #31
 3d4:	9217      	str	r2, [sp, #92]	@ 0x5c
 3d6:	9a11      	ldr	r2, [sp, #68]	@ 0x44
 3d8:	9804      	ldr	r0, [sp, #16]
 3da:	ea82 09bb 	eor.w	r9, r2, fp, ror #2
 3de:	eb03 77fa 	add.w	r7, r3, sl, ror #31
 3e2:	9a0d      	ldr	r2, [sp, #52]	@ 0x34
 3e4:	442f      	add	r7, r5
 3e6:	ea89 0904 	eor.w	r9, r9, r4
 3ea:	44b9      	add	r9, r7
 3ec:	ea82 0700 	eor.w	r7, r2, r0
 3f0:	9a0a      	ldr	r2, [sp, #40]	@ 0x28
 3f2:	9805      	ldr	r0, [sp, #20]
 3f4:	ea87 77fc 	eor.w	r7, r7, ip, ror #31
 3f8:	ea87 77f2 	eor.w	r7, r7, r2, ror #31
 3fc:	ea4f 72f7 	mov.w	r2, r7, ror #31
 400:	9218      	str	r2, [sp, #96]	@ 0x60
 402:	9a11      	ldr	r2, [sp, #68]	@ 0x44
 404:	eb06 66f4 	add.w	r6, r6, r4, ror #27
 408:	ea82 0cb4 	eor.w	ip, r2, r4, ror #2
 40c:	eb03 75f7 	add.w	r5, r3, r7, ror #31
 410:	9a0e      	ldr	r2, [sp, #56]	@ 0x38
 412:	eb05 05bb 	add.w	r5, r5, fp, ror #2
 416:	ea8c 0c06 	eor.w	ip, ip, r6
 41a:	44ac      	add	ip, r5
 41c:	ea82 0500 	eor.w	r5, r2, r0
 420:	9a09      	ldr	r2, [sp, #36]	@ 0x24
 422:	9801      	ldr	r0, [sp, #4]
 424:	ea85 75f2 	eor.w	r5, r5, r2, ror #31
 428:	9a0b      	ldr	r2, [sp, #44]	@ 0x2c
 42a:	ea85 72f2 	eor.w	r2, r5, r2, ror #31
 42e:	920c      	str	r2, [sp, #48]	@ 0x30
 430:	eb03 75f2 	add.w	r5, r3, r2, ror #31
 434:	9a11      	ldr	r2, [sp, #68]	@ 0x44
 436:	4415      	add	r5, r2
 438:	9a04      	ldr	r2, [sp, #16]
 43a:	eb09 69f6 	add.w	r9, r9, r6, ror #27
 43e:	4050      	eors	r0, r2
 440:	ea4f 06b6 	mov.w	r6, r6, ror #2
 444:	ea86 0bb4 	eor.w	fp, r6, r4, ror #2
 448:	ea80 70f1 	eor.w	r0, r0, r1, ror #31
 44c:	ea80 72fa 	eor.w	r2, r0, sl, ror #31
 450:	ea8b 0b09 	eor.w	fp, fp, r9
 454:	eb0c 6cf9 	add.w	ip, ip, r9, ror #27
 458:	ea86 00b9 	eor.w	r0, r6, r9, ror #2
 45c:	44ab      	add	fp, r5
 45e:	eb03 75f2 	add.w	r5, r3, r2, ror #31
 462:	ea80 000c 	eor.w	r0, r0, ip
 466:	eb05 05b4 	add.w	r5, r5, r4, ror #2
 46a:	9204      	str	r2, [sp, #16]
 46c:	1944      	adds	r4, r0, r5
 46e:	9a05      	ldr	r2, [sp, #20]
 470:	9807      	ldr	r0, [sp, #28]
 472:	ea82 75f0 	eor.w	r5, r2, r0, ror #31
 476:	ea85 75f8 	eor.w	r5, r5, r8, ror #31
 47a:	eb0b 6bfc 	add.w	fp, fp, ip, ror #27
 47e:	ea85 75f7 	eor.w	r5, r5, r7, ror #31
 482:	ea4f 0cbc 	mov.w	ip, ip, ror #2
 486:	ea8c 08b9 	eor.w	r8, ip, r9, ror #2
 48a:	eb03 70f5 	add.w	r0, r3, r5, ror #31
 48e:	ea4f 72f5 	mov.w	r2, r5, ror #31
 492:	4430      	add	r0, r6
 494:	ea88 080b 	eor.w	r8, r8, fp
 498:	9211      	str	r2, [sp, #68]	@ 0x44
 49a:	4480      	add	r8, r0
 49c:	9a01      	ldr	r2, [sp, #4]
 49e:	9808      	ldr	r0, [sp, #32]
 4a0:	ea82 70f0 	eor.w	r0, r2, r0, ror #31
 4a4:	9a0c      	ldr	r2, [sp, #48]	@ 0x30
 4a6:	ea80 70fe 	eor.w	r0, r0, lr, ror #31
 4aa:	ea80 70f2 	eor.w	r0, r0, r2, ror #31
 4ae:	eb04 64fb 	add.w	r4, r4, fp, ror #27
 4b2:	ea4f 72f0 	mov.w	r2, r0, ror #31
 4b6:	9219      	str	r2, [sp, #100]	@ 0x64
 4b8:	ea8c 06bb 	eor.w	r6, ip, fp, ror #2
 4bc:	ea4f 02b4 	mov.w	r2, r4, ror #2
 4c0:	eb08 68f4 	add.w	r8, r8, r4, ror #27
 4c4:	920d      	str	r2, [sp, #52]	@ 0x34
 4c6:	eb03 7ef0 	add.w	lr, r3, r0, ror #31
 4ca:	9a13      	ldr	r2, [sp, #76]	@ 0x4c
 4cc:	4066      	eors	r6, r4
 4ce:	9c07      	ldr	r4, [sp, #28]
 4d0:	eb0e 0eb9 	add.w	lr, lr, r9, ror #2
 4d4:	4476      	add	r6, lr
 4d6:	ea82 7ef4 	eor.w	lr, r2, r4, ror #31
 4da:	9a0a      	ldr	r2, [sp, #40]	@ 0x28
 4dc:	9c08      	ldr	r4, [sp, #32]
 4de:	ea8e 7ef2 	eor.w	lr, lr, r2, ror #31
 4e2:	9a04      	ldr	r2, [sp, #16]
 4e4:	ea8e 72f2 	eor.w	r2, lr, r2, ror #31
 4e8:	9201      	str	r2, [sp, #4]
 4ea:	9a0d      	ldr	r2, [sp, #52]	@ 0x34
 4ec:	ea82 0ebb 	eor.w	lr, r2, fp, ror #2
 4f0:	9a01      	ldr	r2, [sp, #4]
 4f2:	eb03 79f2 	add.w	r9, r3, r2, ror #31
 4f6:	9a14      	ldr	r2, [sp, #80]	@ 0x50
 4f8:	44e1      	add	r9, ip
 4fa:	ea82 7cf4 	eor.w	ip, r2, r4, ror #31
 4fe:	9a0b      	ldr	r2, [sp, #44]	@ 0x2c
 500:	9c09      	ldr	r4, [sp, #36]	@ 0x24
 502:	ea8c 7cf2 	eor.w	ip, ip, r2, ror #31
 506:	ea8c 72f5 	eor.w	r2, ip, r5, ror #31
 50a:	9205      	str	r2, [sp, #20]
 50c:	9a0d      	ldr	r2, [sp, #52]	@ 0x34
 50e:	ea8e 0e08 	eor.w	lr, lr, r8
 512:	44ce      	add	lr, r9
 514:	ea82 09b8 	eor.w	r9, r2, r8, ror #2
 518:	9a05      	ldr	r2, [sp, #20]
 51a:	eb06 66f8 	add.w	r6, r6, r8, ror #27
 51e:	eb03 7cf2 	add.w	ip, r3, r2, ror #31
 522:	9a13      	ldr	r2, [sp, #76]	@ 0x4c
 524:	eb0c 0cbb 	add.w	ip, ip, fp, ror #2
 528:	ea89 0906 	eor.w	r9, r9, r6
 52c:	44e1      	add	r9, ip
 52e:	ea82 7cf4 	eor.w	ip, r2, r4, ror #31
 532:	ea8c 7cfa 	eor.w	ip, ip, sl, ror #31
 536:	ea8c 7cf0 	eor.w	ip, ip, r0, ror #31
 53a:	ea4f 72fc 	mov.w	r2, ip, ror #31
 53e:	9213      	str	r2, [sp, #76]	@ 0x4c
 540:	9a0d      	ldr	r2, [sp, #52]	@ 0x34
 542:	eb03 7afc 	add.w	sl, r3, ip, ror #31
 546:	4492      	add	sl, r2
 548:	9a14      	ldr	r2, [sp, #80]	@ 0x50
 54a:	eb0e 6ef6 	add.w	lr, lr, r6, ror #27
 54e:	ea82 74f1 	eor.w	r4, r2, r1, ror #31
 552:	ea4f 06b6 	mov.w	r6, r6, ror #2
 556:	9a01      	ldr	r2, [sp, #4]
 558:	ea86 0bb8 	eor.w	fp, r6, r8, ror #2
 55c:	ea84 74f7 	eor.w	r4, r4, r7, ror #31
 560:	ea84 74f2 	eor.w	r4, r4, r2, ror #31
 564:	ea8b 0b0e 	eor.w	fp, fp, lr
 568:	eb09 69fe 	add.w	r9, r9, lr, ror #27
 56c:	eb03 77f4 	add.w	r7, r3, r4, ror #31
 570:	44d3      	add	fp, sl
 572:	ea86 0abe 	eor.w	sl, r6, lr, ror #2
 576:	ea4f 72f4 	mov.w	r2, r4, ror #31
 57a:	eb07 07b8 	add.w	r7, r7, r8, ror #2
 57e:	ea8a 0a09 	eor.w	sl, sl, r9
 582:	9214      	str	r2, [sp, #80]	@ 0x50
 584:	44ba      	add	sl, r7
 586:	9a15      	ldr	r2, [sp, #84]	@ 0x54
 588:	9f09      	ldr	r7, [sp, #36]	@ 0x24
 58a:	ea82 77f7 	eor.w	r7, r2, r7, ror #31
 58e:	9a0c      	ldr	r2, [sp, #48]	@ 0x30
 590:	ea87 77f2 	eor.w	r7, r7, r2, ror #31
 594:	9a05      	ldr	r2, [sp, #20]
 596:	ea87 72f2 	eor.w	r2, r7, r2, ror #31
 59a:	9207      	str	r2, [sp, #28]
 59c:	eb03 77f2 	add.w	r7, r3, r2, ror #31
 5a0:	9a16      	ldr	r2, [sp, #88]	@ 0x58
 5a2:	ea82 71f1 	eor.w	r1, r2, r1, ror #31
 5a6:	9a04      	ldr	r2, [sp, #16]
 5a8:	ea81 71f2 	eor.w	r1, r1, r2, ror #31
 5ac:	eb0b 6bf9 	add.w	fp, fp, r9, ror #27
 5b0:	ea81 72fc 	eor.w	r2, r1, ip, ror #31
 5b4:	ea4f 09b9 	mov.w	r9, r9, ror #2
 5b8:	eb0a 6afb 	add.w	sl, sl, fp, ror #27
 5bc:	4437      	add	r7, r6
 5be:	eb03 71f2 	add.w	r1, r3, r2, ror #31
 5c2:	ea89 06bb 	eor.w	r6, r9, fp, ror #2
 5c6:	eb01 01be 	add.w	r1, r1, lr, ror #2
 5ca:	ea86 060a 	eor.w	r6, r6, sl
 5ce:	9208      	str	r2, [sp, #32]
 5d0:	ea89 08be 	eor.w	r8, r9, lr, ror #2
 5d4:	9a15      	ldr	r2, [sp, #84]	@ 0x54
 5d6:	440e      	add	r6, r1
 5d8:	990a      	ldr	r1, [sp, #40]	@ 0x28
 5da:	ea88 080b 	eor.w	r8, r8, fp
 5de:	44b8      	add	r8, r7
 5e0:	ea82 77f1 	eor.w	r7, r2, r1, ror #31
 5e4:	ea87 77f5 	eor.w	r7, r7, r5, ror #31
 5e8:	ea87 72f4 	eor.w	r2, r7, r4, ror #31
 5ec:	920d      	str	r2, [sp, #52]	@ 0x34
 5ee:	ea4f 72f2 	mov.w	r2, r2, ror #31
 5f2:	9215      	str	r2, [sp, #84]	@ 0x54
 5f4:	9a0d      	ldr	r2, [sp, #52]	@ 0x34
 5f6:	9d0b      	ldr	r5, [sp, #44]	@ 0x2c
 5f8:	9f0c      	ldr	r7, [sp, #48]	@ 0x30
 5fa:	eb08 68fa 	add.w	r8, r8, sl, ror #27
 5fe:	ea4f 0aba 	mov.w	sl, sl, ror #2
 602:	ea8a 0ebb 	eor.w	lr, sl, fp, ror #2
 606:	eb03 71f2 	add.w	r1, r3, r2, ror #31
 60a:	4449      	add	r1, r9
 60c:	ea8e 0e08 	eor.w	lr, lr, r8
 610:	9a16      	ldr	r2, [sp, #88]	@ 0x58
 612:	448e      	add	lr, r1
 614:	990b      	ldr	r1, [sp, #44]	@ 0x2c
 616:	ea82 79f1 	eor.w	r9, r2, r1, ror #31
 61a:	9a07      	ldr	r2, [sp, #28]
 61c:	ea89 79f0 	eor.w	r9, r9, r0, ror #31
 620:	ea89 79f2 	eor.w	r9, r9, r2, ror #31
 624:	eb06 66f8 	add.w	r6, r6, r8, ror #27
 628:	ea8a 01b8 	eor.w	r1, sl, r8, ror #2
 62c:	eb03 73f9 	add.w	r3, r3, r9, ror #31
 630:	ea4f 72f9 	mov.w	r2, r9, ror #31
 634:	eb03 03bb 	add.w	r3, r3, fp, ror #2
 638:	4071      	eors	r1, r6
 63a:	9216      	str	r2, [sp, #88]	@ 0x58
 63c:	4419      	add	r1, r3
 63e:	9a0a      	ldr	r2, [sp, #40]	@ 0x28
 640:	9b17      	ldr	r3, [sp, #92]	@ 0x5c
 642:	ea83 72f2 	eor.w	r2, r3, r2, ror #31
 646:	9b01      	ldr	r3, [sp, #4]
 648:	ea82 72f3 	eor.w	r2, r2, r3, ror #31
 64c:	9b08      	ldr	r3, [sp, #32]
 64e:	eb0e 6ef6 	add.w	lr, lr, r6, ror #27
 652:	ea82 73f3 	eor.w	r3, r2, r3, ror #31
 656:	ea4e 02b6 	orr.w	r2, lr, r6, ror #2
 65a:	9309      	str	r3, [sp, #36]	@ 0x24
 65c:	ea02 02b8 	and.w	r2, r2, r8, ror #2
 660:	ea0e 03b6 	and.w	r3, lr, r6, ror #2
 664:	9809      	ldr	r0, [sp, #36]	@ 0x24
 666:	431a      	orrs	r2, r3
 668:	4bd6      	ldr	r3, [pc, #856]	@ (9c4 <Transform+0x9c4>)
 66a:	eb03 70f0 	add.w	r0, r3, r0, ror #31
 66e:	4450      	add	r0, sl
 670:	4402      	add	r2, r0
 672:	9818      	ldr	r0, [sp, #96]	@ 0x60
 674:	ea80 70f5 	eor.w	r0, r0, r5, ror #31
 678:	9d05      	ldr	r5, [sp, #20]
 67a:	ea80 70f5 	eor.w	r0, r0, r5, ror #31
 67e:	9d0d      	ldr	r5, [sp, #52]	@ 0x34
 680:	eb01 61fe 	add.w	r1, r1, lr, ror #27
 684:	ea80 70f5 	eor.w	r0, r0, r5, ror #31
 688:	900a      	str	r0, [sp, #40]	@ 0x28
 68a:	ea41 00be 	orr.w	r0, r1, lr, ror #2
 68e:	ea00 00b6 	and.w	r0, r0, r6, ror #2
 692:	ea01 05be 	and.w	r5, r1, lr, ror #2
 696:	4305      	orrs	r5, r0
 698:	980a      	ldr	r0, [sp, #40]	@ 0x28
 69a:	eb03 70f0 	add.w	r0, r3, r0, ror #31
 69e:	eb00 00b8 	add.w	r0, r0, r8, ror #2
 6a2:	4405      	add	r5, r0
 6a4:	9817      	ldr	r0, [sp, #92]	@ 0x5c
 6a6:	ea80 78f7 	eor.w	r8, r0, r7, ror #31
 6aa:	ea88 78fc 	eor.w	r8, r8, ip, ror #31
 6ae:	ea88 78f9 	eor.w	r8, r8, r9, ror #31
 6b2:	eb02 62f1 	add.w	r2, r2, r1, ror #27
 6b6:	ea4f 70f8 	mov.w	r0, r8, ror #31
 6ba:	9017      	str	r0, [sp, #92]	@ 0x5c
 6bc:	ea42 00b1 	orr.w	r0, r2, r1, ror #2
 6c0:	ea00 00be 	and.w	r0, r0, lr, ror #2
 6c4:	ea02 0cb1 	and.w	ip, r2, r1, ror #2
 6c8:	ea40 0c0c 	orr.w	ip, r0, ip
 6cc:	eb03 70f8 	add.w	r0, r3, r8, ror #31
 6d0:	eb00 00b6 	add.w	r0, r0, r6, ror #2
 6d4:	4484      	add	ip, r0
 6d6:	9e04      	ldr	r6, [sp, #16]
 6d8:	9818      	ldr	r0, [sp, #96]	@ 0x60
 6da:	ea80 76f6 	eor.w	r6, r0, r6, ror #31
 6de:	9809      	ldr	r0, [sp, #36]	@ 0x24
 6e0:	ea86 76f4 	eor.w	r6, r6, r4, ror #31
 6e4:	ea86 70f0 	eor.w	r0, r6, r0, ror #31
 6e8:	eb05 65f2 	add.w	r5, r5, r2, ror #27
 6ec:	900e      	str	r0, [sp, #56]	@ 0x38
 6ee:	ea4f 70f0 	mov.w	r0, r0, ror #31
 6f2:	9018      	str	r0, [sp, #96]	@ 0x60
 6f4:	ea45 00b2 	orr.w	r0, r5, r2, ror #2
 6f8:	ea00 00b1 	and.w	r0, r0, r1, ror #2
 6fc:	ea05 04b2 	and.w	r4, r5, r2, ror #2
 700:	4304      	orrs	r4, r0
 702:	980e      	ldr	r0, [sp, #56]	@ 0x38
 704:	eb03 70f0 	add.w	r0, r3, r0, ror #31
 708:	eb00 00be 	add.w	r0, r0, lr, ror #2
 70c:	4404      	add	r4, r0
 70e:	9811      	ldr	r0, [sp, #68]	@ 0x44
 710:	ea80 70f7 	eor.w	r0, r0, r7, ror #31
 714:	9f07      	ldr	r7, [sp, #28]
 716:	ea80 70f7 	eor.w	r0, r0, r7, ror #31
 71a:	9f0a      	ldr	r7, [sp, #40]	@ 0x28
 71c:	9e01      	ldr	r6, [sp, #4]
 71e:	ea80 70f7 	eor.w	r0, r0, r7, ror #31
 722:	eb0c 6cf5 	add.w	ip, ip, r5, ror #27
 726:	900b      	str	r0, [sp, #44]	@ 0x2c
 728:	9f0b      	ldr	r7, [sp, #44]	@ 0x2c
 72a:	ea4c 0eb5 	orr.w	lr, ip, r5, ror #2
 72e:	ea0e 0eb2 	and.w	lr, lr, r2, ror #2
 732:	ea0c 00b5 	and.w	r0, ip, r5, ror #2
 736:	ea4e 0000 	orr.w	r0, lr, r0
 73a:	eb03 7ef7 	add.w	lr, r3, r7, ror #31
 73e:	eb0e 0eb1 	add.w	lr, lr, r1, ror #2
 742:	9f04      	ldr	r7, [sp, #16]
 744:	9919      	ldr	r1, [sp, #100]	@ 0x64
 746:	ea81 71f7 	eor.w	r1, r1, r7, ror #31
 74a:	9f08      	ldr	r7, [sp, #32]
 74c:	ea81 71f7 	eor.w	r1, r1, r7, ror #31
 750:	ea81 71f8 	eor.w	r1, r1, r8, ror #31
 754:	eb04 64fc 	add.w	r4, r4, ip, ror #27
 758:	9104      	str	r1, [sp, #16]
 75a:	9f04      	ldr	r7, [sp, #16]
 75c:	4470      	add	r0, lr
 75e:	ea44 0ebc 	orr.w	lr, r4, ip, ror #2
 762:	ea0e 0eb5 	and.w	lr, lr, r5, ror #2
 766:	ea04 01bc 	and.w	r1, r4, ip, ror #2
 76a:	ea4e 0101 	orr.w	r1, lr, r1
 76e:	eb03 7ef7 	add.w	lr, r3, r7, ror #31
 772:	eb0e 0eb2 	add.w	lr, lr, r2, ror #2
 776:	9f01      	ldr	r7, [sp, #4]
 778:	9a11      	ldr	r2, [sp, #68]	@ 0x44
 77a:	4471      	add	r1, lr
 77c:	ea82 7ef7 	eor.w	lr, r2, r7, ror #31
 780:	9a0d      	ldr	r2, [sp, #52]	@ 0x34
 782:	ea8e 7ef2 	eor.w	lr, lr, r2, ror #31
 786:	9a0e      	ldr	r2, [sp, #56]	@ 0x38
 788:	ea8e 7ef2 	eor.w	lr, lr, r2, ror #31
 78c:	eb00 60f4 	add.w	r0, r0, r4, ror #27
 790:	ea4f 72fe 	mov.w	r2, lr, ror #31
 794:	9211      	str	r2, [sp, #68]	@ 0x44
 796:	ea40 02b4 	orr.w	r2, r0, r4, ror #2
 79a:	ea02 02bc 	and.w	r2, r2, ip, ror #2
 79e:	ea00 07b4 	and.w	r7, r0, r4, ror #2
 7a2:	4317      	orrs	r7, r2
 7a4:	eb03 72fe 	add.w	r2, r3, lr, ror #31
 7a8:	eb02 02b5 	add.w	r2, r2, r5, ror #2
 7ac:	4417      	add	r7, r2
 7ae:	9d05      	ldr	r5, [sp, #20]
 7b0:	9a19      	ldr	r2, [sp, #100]	@ 0x64
 7b2:	ea82 7bf5 	eor.w	fp, r2, r5, ror #31
 7b6:	9a0b      	ldr	r2, [sp, #44]	@ 0x2c
 7b8:	ea8b 7bf9 	eor.w	fp, fp, r9, ror #31
 7bc:	ea8b 72f2 	eor.w	r2, fp, r2, ror #31
 7c0:	eb01 61f0 	add.w	r1, r1, r0, ror #27
 7c4:	920c      	str	r2, [sp, #48]	@ 0x30
 7c6:	ea4f 72f2 	mov.w	r2, r2, ror #31
 7ca:	9219      	str	r2, [sp, #100]	@ 0x64
 7cc:	ea41 02b0 	orr.w	r2, r1, r0, ror #2
 7d0:	ea02 02b4 	and.w	r2, r2, r4, ror #2
 7d4:	ea01 05b0 	and.w	r5, r1, r0, ror #2
 7d8:	4315      	orrs	r5, r2
 7da:	9a0c      	ldr	r2, [sp, #48]	@ 0x30
 7dc:	eb03 72f2 	add.w	r2, r3, r2, ror #31
 7e0:	eb02 02bc 	add.w	r2, r2, ip, ror #2
 7e4:	4415      	add	r5, r2
 7e6:	9a13      	ldr	r2, [sp, #76]	@ 0x4c
 7e8:	ea82 72f6 	eor.w	r2, r2, r6, ror #31
 7ec:	9e09      	ldr	r6, [sp, #36]	@ 0x24
 7ee:	ea82 72f6 	eor.w	r2, r2, r6, ror #31
 7f2:	9e04      	ldr	r6, [sp, #16]
 7f4:	ea82 72f6 	eor.w	r2, r2, r6, ror #31
 7f8:	eb07 67f1 	add.w	r7, r7, r1, ror #27
 7fc:	9201      	str	r2, [sp, #4]
 7fe:	9e01      	ldr	r6, [sp, #4]
 800:	ea47 0cb1 	orr.w	ip, r7, r1, ror #2
 804:	ea0c 0cb0 	and.w	ip, ip, r0, ror #2
 808:	ea07 02b1 	and.w	r2, r7, r1, ror #2
 80c:	ea4c 0202 	orr.w	r2, ip, r2
 810:	eb03 7cf6 	add.w	ip, r3, r6, ror #31
 814:	eb0c 0cb4 	add.w	ip, ip, r4, ror #2
 818:	9e05      	ldr	r6, [sp, #20]
 81a:	9c14      	ldr	r4, [sp, #80]	@ 0x50
 81c:	ea84 74f6 	eor.w	r4, r4, r6, ror #31
 820:	9e0a      	ldr	r6, [sp, #40]	@ 0x28
 822:	eb05 65f7 	add.w	r5, r5, r7, ror #27
 826:	ea84 74f6 	eor.w	r4, r4, r6, ror #31
 82a:	4462      	add	r2, ip
 82c:	ea45 0cb7 	orr.w	ip, r5, r7, ror #2
 830:	ea84 7bfe 	eor.w	fp, r4, lr, ror #31
 834:	ea0c 0cb1 	and.w	ip, ip, r1, ror #2
 838:	ea05 04b7 	and.w	r4, r5, r7, ror #2
 83c:	ea4c 0404 	orr.w	r4, ip, r4
 840:	eb03 7cfb 	add.w	ip, r3, fp, ror #31
 844:	9e07      	ldr	r6, [sp, #28]
 846:	eb0c 0cb0 	add.w	ip, ip, r0, ror #2
 84a:	9813      	ldr	r0, [sp, #76]	@ 0x4c
 84c:	ea80 7af6 	eor.w	sl, r0, r6, ror #31
 850:	980c      	ldr	r0, [sp, #48]	@ 0x30
 852:	ea8a 7af8 	eor.w	sl, sl, r8, ror #31
 856:	ea8a 70f0 	eor.w	r0, sl, r0, ror #31
 85a:	eb02 62f5 	add.w	r2, r2, r5, ror #27
 85e:	900d      	str	r0, [sp, #52]	@ 0x34
 860:	ea4f 70f0 	mov.w	r0, r0, ror #31
 864:	9013      	str	r0, [sp, #76]	@ 0x4c
 866:	4464      	add	r4, ip
 868:	9e0d      	ldr	r6, [sp, #52]	@ 0x34
 86a:	ea42 0cb5 	orr.w	ip, r2, r5, ror #2
 86e:	ea0c 0cb7 	and.w	ip, ip, r7, ror #2
 872:	ea02 00b5 	and.w	r0, r2, r5, ror #2
 876:	ea4c 0000 	orr.w	r0, ip, r0
 87a:	eb03 7cf6 	add.w	ip, r3, r6, ror #31
 87e:	eb0c 0cb1 	add.w	ip, ip, r1, ror #2
 882:	9e08      	ldr	r6, [sp, #32]
 884:	9914      	ldr	r1, [sp, #80]	@ 0x50
 886:	ea81 79f6 	eor.w	r9, r1, r6, ror #31
 88a:	990e      	ldr	r1, [sp, #56]	@ 0x38
 88c:	ea89 79f1 	eor.w	r9, r9, r1, ror #31
 890:	9901      	ldr	r1, [sp, #4]
 892:	ea89 79f1 	eor.w	r9, r9, r1, ror #31
 896:	eb04 64f2 	add.w	r4, r4, r2, ror #27
 89a:	ea4f 71f9 	mov.w	r1, r9, ror #31
 89e:	910e      	str	r1, [sp, #56]	@ 0x38
 8a0:	ea44 01b2 	orr.w	r1, r4, r2, ror #2
 8a4:	ea01 01b5 	and.w	r1, r1, r5, ror #2
 8a8:	ea04 06b2 	and.w	r6, r4, r2, ror #2
 8ac:	430e      	orrs	r6, r1
 8ae:	eb03 71f9 	add.w	r1, r3, r9, ror #31
 8b2:	eb01 01b7 	add.w	r1, r1, r7, ror #2
 8b6:	440e      	add	r6, r1
 8b8:	9f07      	ldr	r7, [sp, #28]
 8ba:	9915      	ldr	r1, [sp, #84]	@ 0x54
 8bc:	ea81 71f7 	eor.w	r1, r1, r7, ror #31
 8c0:	9f0b      	ldr	r7, [sp, #44]	@ 0x2c
 8c2:	4460      	add	r0, ip
 8c4:	ea81 71f7 	eor.w	r1, r1, r7, ror #31
 8c8:	eb00 60f4 	add.w	r0, r0, r4, ror #27
 8cc:	ea81 71fb 	eor.w	r1, r1, fp, ror #31
 8d0:	9105      	str	r1, [sp, #20]
 8d2:	ea40 01b4 	orr.w	r1, r0, r4, ror #2
 8d6:	ea01 01b2 	and.w	r1, r1, r2, ror #2
 8da:	ea00 08b4 	and.w	r8, r0, r4, ror #2
 8de:	ea41 0808 	orr.w	r8, r1, r8
 8e2:	9905      	ldr	r1, [sp, #20]
 8e4:	eb03 71f1 	add.w	r1, r3, r1, ror #31
 8e8:	eb01 01b5 	add.w	r1, r1, r5, ror #2
 8ec:	4488      	add	r8, r1
 8ee:	9d08      	ldr	r5, [sp, #32]
 8f0:	9916      	ldr	r1, [sp, #88]	@ 0x58
 8f2:	ea81 71f5 	eor.w	r1, r1, r5, ror #31
 8f6:	9d04      	ldr	r5, [sp, #16]
 8f8:	ea81 71f5 	eor.w	r1, r1, r5, ror #31
 8fc:	9d0d      	ldr	r5, [sp, #52]	@ 0x34
 8fe:	eb06 66f0 	add.w	r6, r6, r0, ror #27
 902:	ea81 7af5 	eor.w	sl, r1, r5, ror #31
 906:	ea46 01b0 	orr.w	r1, r6, r0, ror #2
 90a:	ea01 01b4 	and.w	r1, r1, r4, ror #2
 90e:	ea06 05b0 	and.w	r5, r6, r0, ror #2
 912:	430d      	orrs	r5, r1
 914:	eb03 71fa 	add.w	r1, r3, sl, ror #31
 918:	eb01 01b2 	add.w	r1, r1, r2, ror #2
 91c:	440d      	add	r5, r1
 91e:	9a15      	ldr	r2, [sp, #84]	@ 0x54
 920:	9909      	ldr	r1, [sp, #36]	@ 0x24
 922:	ea82 7cf1 	eor.w	ip, r2, r1, ror #31
 926:	ea8c 7cfe 	eor.w	ip, ip, lr, ror #31
 92a:	ea8c 7cf9 	eor.w	ip, ip, r9, ror #31
 92e:	eb08 68f6 	add.w	r8, r8, r6, ror #27
 932:	ea4f 72fc 	mov.w	r2, ip, ror #31
 936:	9214      	str	r2, [sp, #80]	@ 0x50
 938:	ea48 02b6 	orr.w	r2, r8, r6, ror #2
 93c:	ea02 02b0 	and.w	r2, r2, r0, ror #2
 940:	ea08 0eb6 	and.w	lr, r8, r6, ror #2
 944:	ea42 0e0e 	orr.w	lr, r2, lr
 948:	eb03 72fc 	add.w	r2, r3, ip, ror #31
 94c:	eb02 02b4 	add.w	r2, r2, r4, ror #2
 950:	990a      	ldr	r1, [sp, #40]	@ 0x28
 952:	4496      	add	lr, r2
 954:	9a16      	ldr	r2, [sp, #88]	@ 0x58
 956:	ea82 71f1 	eor.w	r1, r2, r1, ror #31
 95a:	9a0c      	ldr	r2, [sp, #48]	@ 0x30
 95c:	ea81 71f2 	eor.w	r1, r1, r2, ror #31
 960:	9a05      	ldr	r2, [sp, #20]
 962:	ea81 71f2 	eor.w	r1, r1, r2, ror #31
 966:	eb05 65f8 	add.w	r5, r5, r8, ror #27
 96a:	ea4f 72f1 	mov.w	r2, r1, ror #31
 96e:	920c      	str	r2, [sp, #48]	@ 0x30
 970:	ea45 02b8 	orr.w	r2, r5, r8, ror #2
 974:	ea02 02b6 	and.w	r2, r2, r6, ror #2
 978:	ea05 04b8 	and.w	r4, r5, r8, ror #2
 97c:	4314      	orrs	r4, r2
 97e:	eb03 72f1 	add.w	r2, r3, r1, ror #31
 982:	eb02 02b0 	add.w	r2, r2, r0, ror #2
 986:	4414      	add	r4, r2
 988:	9809      	ldr	r0, [sp, #36]	@ 0x24
 98a:	9a17      	ldr	r2, [sp, #92]	@ 0x5c
 98c:	ea82 72f0 	eor.w	r2, r2, r0, ror #31
 990:	9801      	ldr	r0, [sp, #4]
 992:	ea82 72f0 	eor.w	r2, r2, r0, ror #31
 996:	eb0e 6ef5 	add.w	lr, lr, r5, ror #27
 99a:	ea82 72fa 	eor.w	r2, r2, sl, ror #31
 99e:	9207      	str	r2, [sp, #28]
 9a0:	ea4e 02b5 	orr.w	r2, lr, r5, ror #2
 9a4:	ea02 02b8 	and.w	r2, r2, r8, ror #2
 9a8:	ea0e 00b5 	and.w	r0, lr, r5, ror #2
 9ac:	4310      	orrs	r0, r2
 9ae:	9a07      	ldr	r2, [sp, #28]
 9b0:	eb03 72f2 	add.w	r2, r3, r2, ror #31
 9b4:	eb02 02b6 	add.w	r2, r2, r6, ror #2
 9b8:	4410      	add	r0, r2
 9ba:	9e0a      	ldr	r6, [sp, #40]	@ 0x28
 9bc:	9a18      	ldr	r2, [sp, #96]	@ 0x60
 9be:	ea82 72f6 	eor.w	r2, r2, r6, ror #31
 9c2:	e001      	b.n	9c8 <Transform+0x9c8>
 9c4:	8f1bbcdc 	.word	0x8f1bbcdc
 9c8:	ea82 72fb 	eor.w	r2, r2, fp, ror #31
 9cc:	eb04 64fe 	add.w	r4, r4, lr, ror #27
 9d0:	ea82 72fc 	eor.w	r2, r2, ip, ror #31
 9d4:	9208      	str	r2, [sp, #32]
 9d6:	ea44 02be 	orr.w	r2, r4, lr, ror #2
 9da:	ea02 02b5 	and.w	r2, r2, r5, ror #2
 9de:	ea04 06be 	and.w	r6, r4, lr, ror #2
 9e2:	4316      	orrs	r6, r2
 9e4:	9a08      	ldr	r2, [sp, #32]
 9e6:	eb03 72f2 	add.w	r2, r3, r2, ror #31
 9ea:	eb02 02b8 	add.w	r2, r2, r8, ror #2
 9ee:	4416      	add	r6, r2
 9f0:	9a17      	ldr	r2, [sp, #92]	@ 0x5c
 9f2:	ea82 77f7 	eor.w	r7, r2, r7, ror #31
 9f6:	9a0d      	ldr	r2, [sp, #52]	@ 0x34
 9f8:	ea87 77f2 	eor.w	r7, r7, r2, ror #31
 9fc:	ea87 77f1 	eor.w	r7, r7, r1, ror #31
 a00:	eb00 60f4 	add.w	r0, r0, r4, ror #27
 a04:	ea4f 72f7 	mov.w	r2, r7, ror #31
 a08:	920d      	str	r2, [sp, #52]	@ 0x34
 a0a:	ea40 02b4 	orr.w	r2, r0, r4, ror #2
 a0e:	ea02 02be 	and.w	r2, r2, lr, ror #2
 a12:	ea00 08b4 	and.w	r8, r0, r4, ror #2
 a16:	ea42 0808 	orr.w	r8, r2, r8
 a1a:	eb03 72f7 	add.w	r2, r3, r7, ror #31
 a1e:	eb02 02b5 	add.w	r2, r2, r5, ror #2
 a22:	4490      	add	r8, r2
 a24:	9d04      	ldr	r5, [sp, #16]
 a26:	9a18      	ldr	r2, [sp, #96]	@ 0x60
 a28:	ea82 72f5 	eor.w	r2, r2, r5, ror #31
 a2c:	9d07      	ldr	r5, [sp, #28]
 a2e:	ea82 72f9 	eor.w	r2, r2, r9, ror #31
 a32:	eb06 66f0 	add.w	r6, r6, r0, ror #27
 a36:	ea82 72f5 	eor.w	r2, r2, r5, ror #31
 a3a:	ea4f 75f2 	mov.w	r5, r2, ror #31
 a3e:	ea46 09b0 	orr.w	r9, r6, r0, ror #2
 a42:	9515      	str	r5, [sp, #84]	@ 0x54
 a44:	ea09 09b4 	and.w	r9, r9, r4, ror #2
 a48:	ea06 05b0 	and.w	r5, r6, r0, ror #2
 a4c:	eb03 73f2 	add.w	r3, r3, r2, ror #31
 a50:	eb03 03be 	add.w	r3, r3, lr, ror #2
 a54:	ea49 0505 	orr.w	r5, r9, r5
 a58:	920a      	str	r2, [sp, #40]	@ 0x28
 a5a:	441d      	add	r5, r3
 a5c:	9a0b      	ldr	r2, [sp, #44]	@ 0x2c
 a5e:	9b11      	ldr	r3, [sp, #68]	@ 0x44
 a60:	ea83 73f2 	eor.w	r3, r3, r2, ror #31
 a64:	9a05      	ldr	r2, [sp, #20]
 a66:	ea83 73f2 	eor.w	r3, r3, r2, ror #31
 a6a:	9a08      	ldr	r2, [sp, #32]
 a6c:	ea83 73f2 	eor.w	r3, r3, r2, ror #31
 a70:	9309      	str	r3, [sp, #36]	@ 0x24
 a72:	9a09      	ldr	r2, [sp, #36]	@ 0x24
 a74:	4bd5      	ldr	r3, [pc, #852]	@ (dcc <Transform+0xdcc>)
 a76:	eb03 7ef2 	add.w	lr, r3, r2, ror #31
 a7a:	eb0e 0eb4 	add.w	lr, lr, r4, ror #2
 a7e:	9a19      	ldr	r2, [sp, #100]	@ 0x64
 a80:	9c04      	ldr	r4, [sp, #16]
 a82:	eb08 68f6 	add.w	r8, r8, r6, ror #27
 a86:	ea82 74f4 	eor.w	r4, r2, r4, ror #31
 a8a:	ea4f 06b6 	mov.w	r6, r6, ror #2
 a8e:	ea86 09b0 	eor.w	r9, r6, r0, ror #2
 a92:	ea84 74fa 	eor.w	r4, r4, sl, ror #31
 a96:	ea84 72f7 	eor.w	r2, r4, r7, ror #31
 a9a:	ea89 0908 	eor.w	r9, r9, r8
 a9e:	44f1      	add	r9, lr
 aa0:	eb03 7ef2 	add.w	lr, r3, r2, ror #31
 aa4:	eb05 65f8 	add.w	r5, r5, r8, ror #27
 aa8:	9204      	str	r2, [sp, #16]
 aaa:	ea86 04b8 	eor.w	r4, r6, r8, ror #2
 aae:	9a11      	ldr	r2, [sp, #68]	@ 0x44
 ab0:	eb0e 0eb0 	add.w	lr, lr, r0, ror #2
 ab4:	9801      	ldr	r0, [sp, #4]
 ab6:	406c      	eors	r4, r5
 ab8:	4474      	add	r4, lr
 aba:	ea82 7ef0 	eor.w	lr, r2, r0, ror #31
 abe:	9a0a      	ldr	r2, [sp, #40]	@ 0x28
 ac0:	ea8e 7efc 	eor.w	lr, lr, ip, ror #31
 ac4:	ea8e 7ef2 	eor.w	lr, lr, r2, ror #31
 ac8:	eb09 69f5 	add.w	r9, r9, r5, ror #27
 acc:	ea4f 72fe 	mov.w	r2, lr, ror #31
 ad0:	ea4f 05b5 	mov.w	r5, r5, ror #2
 ad4:	9211      	str	r2, [sp, #68]	@ 0x44
 ad6:	ea85 0cb8 	eor.w	ip, r5, r8, ror #2
 ada:	9a19      	ldr	r2, [sp, #100]	@ 0x64
 adc:	eb03 70fe 	add.w	r0, r3, lr, ror #31
 ae0:	4430      	add	r0, r6
 ae2:	ea8c 0c09 	eor.w	ip, ip, r9
 ae6:	4484      	add	ip, r0
 ae8:	ea82 70fb 	eor.w	r0, r2, fp, ror #31
 aec:	9a09      	ldr	r2, [sp, #36]	@ 0x24
 aee:	ea80 70f1 	eor.w	r0, r0, r1, ror #31
 af2:	ea80 70f2 	eor.w	r0, r0, r2, ror #31
 af6:	eb04 64f9 	add.w	r4, r4, r9, ror #27
 afa:	ea85 01b9 	eor.w	r1, r5, r9, ror #2
 afe:	eb03 76f0 	add.w	r6, r3, r0, ror #31
 b02:	ea4f 72f0 	mov.w	r2, r0, ror #31
 b06:	eb06 06b8 	add.w	r6, r6, r8, ror #2
 b0a:	4061      	eors	r1, r4
 b0c:	9216      	str	r2, [sp, #88]	@ 0x58
 b0e:	4431      	add	r1, r6
 b10:	9a13      	ldr	r2, [sp, #76]	@ 0x4c
 b12:	9e01      	ldr	r6, [sp, #4]
 b14:	ea82 76f6 	eor.w	r6, r2, r6, ror #31
 b18:	9a07      	ldr	r2, [sp, #28]
 b1a:	ea86 76f2 	eor.w	r6, r6, r2, ror #31
 b1e:	9a04      	ldr	r2, [sp, #16]
 b20:	ea86 72f2 	eor.w	r2, r6, r2, ror #31
 b24:	9201      	str	r2, [sp, #4]
 b26:	eb03 76f2 	add.w	r6, r3, r2, ror #31
 b2a:	9a0e      	ldr	r2, [sp, #56]	@ 0x38
 b2c:	442e      	add	r6, r5
 b2e:	ea82 75fb 	eor.w	r5, r2, fp, ror #31
 b32:	9a08      	ldr	r2, [sp, #32]
 b34:	eb0c 6cf4 	add.w	ip, ip, r4, ror #27
 b38:	ea4f 04b4 	mov.w	r4, r4, ror #2
 b3c:	ea84 08b9 	eor.w	r8, r4, r9, ror #2
 b40:	ea85 75f2 	eor.w	r5, r5, r2, ror #31
 b44:	ea85 72fe 	eor.w	r2, r5, lr, ror #31
 b48:	ea88 080c 	eor.w	r8, r8, ip
 b4c:	eb01 61fc 	add.w	r1, r1, ip, ror #27
 b50:	eb03 75f2 	add.w	r5, r3, r2, ror #31
 b54:	44b0      	add	r8, r6
 b56:	ea84 06bc 	eor.w	r6, r4, ip, ror #2
 b5a:	eb05 05b9 	add.w	r5, r5, r9, ror #2
 b5e:	404e      	eors	r6, r1
 b60:	920b      	str	r2, [sp, #44]	@ 0x2c
 b62:	442e      	add	r6, r5
 b64:	9a13      	ldr	r2, [sp, #76]	@ 0x4c
 b66:	9d05      	ldr	r5, [sp, #20]
 b68:	ea82 7bf5 	eor.w	fp, r2, r5, ror #31
 b6c:	9a0e      	ldr	r2, [sp, #56]	@ 0x38
 b6e:	ea82 79fa 	eor.w	r9, r2, sl, ror #31
 b72:	9a0a      	ldr	r2, [sp, #40]	@ 0x28
 b74:	ea8b 7bf7 	eor.w	fp, fp, r7, ror #31
 b78:	ea89 79f2 	eor.w	r9, r9, r2, ror #31
 b7c:	9a01      	ldr	r2, [sp, #4]
 b7e:	ea8b 7bf0 	eor.w	fp, fp, r0, ror #31
 b82:	eb08 68f1 	add.w	r8, r8, r1, ror #27
 b86:	ea89 79f2 	eor.w	r9, r9, r2, ror #31
 b8a:	ea4f 01b1 	mov.w	r1, r1, ror #2
 b8e:	eb03 75fb 	add.w	r5, r3, fp, ror #31
 b92:	eb06 66f8 	add.w	r6, r6, r8, ror #27
 b96:	ea81 07bc 	eor.w	r7, r1, ip, ror #2
 b9a:	4425      	add	r5, r4
 b9c:	ea81 02b8 	eor.w	r2, r1, r8, ror #2
 ba0:	eb03 74f9 	add.w	r4, r3, r9, ror #31
 ba4:	eb04 04bc 	add.w	r4, r4, ip, ror #2
 ba8:	ea87 0708 	eor.w	r7, r7, r8
 bac:	4072      	eors	r2, r6
 bae:	442f      	add	r7, r5
 bb0:	4422      	add	r2, r4
 bb2:	9d05      	ldr	r5, [sp, #20]
 bb4:	9c14      	ldr	r4, [sp, #80]	@ 0x50
 bb6:	ea84 74f5 	eor.w	r4, r4, r5, ror #31
 bba:	9d09      	ldr	r5, [sp, #36]	@ 0x24
 bbc:	ea84 74f5 	eor.w	r4, r4, r5, ror #31
 bc0:	9d0b      	ldr	r5, [sp, #44]	@ 0x2c
 bc2:	eb07 67f6 	add.w	r7, r7, r6, ror #27
 bc6:	ea84 74f5 	eor.w	r4, r4, r5, ror #31
 bca:	ea4f 06b6 	mov.w	r6, r6, ror #2
 bce:	ea86 0cb8 	eor.w	ip, r6, r8, ror #2
 bd2:	eb03 75f4 	add.w	r5, r3, r4, ror #31
 bd6:	440d      	add	r5, r1
 bd8:	ea8c 0c07 	eor.w	ip, ip, r7
 bdc:	990c      	ldr	r1, [sp, #48]	@ 0x30
 bde:	44ac      	add	ip, r5
 be0:	9d04      	ldr	r5, [sp, #16]
 be2:	ea81 71fa 	eor.w	r1, r1, sl, ror #31
 be6:	ea81 71f5 	eor.w	r1, r1, r5, ror #31
 bea:	ea81 71fb 	eor.w	r1, r1, fp, ror #31
 bee:	eb02 62f7 	add.w	r2, r2, r7, ror #27
 bf2:	ea86 05b7 	eor.w	r5, r6, r7, ror #2
 bf6:	eb03 7af1 	add.w	sl, r3, r1, ror #31
 bfa:	eb0a 0ab8 	add.w	sl, sl, r8, ror #2
 bfe:	4055      	eors	r5, r2
 c00:	eb0c 6cf2 	add.w	ip, ip, r2, ror #27
 c04:	9105      	str	r1, [sp, #20]
 c06:	4455      	add	r5, sl
 c08:	9914      	ldr	r1, [sp, #80]	@ 0x50
 c0a:	ea4f 0ab2 	mov.w	sl, r2, ror #2
 c0e:	9a07      	ldr	r2, [sp, #28]
 c10:	ea81 78f2 	eor.w	r8, r1, r2, ror #31
 c14:	ea88 78fe 	eor.w	r8, r8, lr, ror #31
 c18:	ea88 72f9 	eor.w	r2, r8, r9, ror #31
 c1c:	9908      	ldr	r1, [sp, #32]
 c1e:	920a      	str	r2, [sp, #40]	@ 0x28
 c20:	eb03 7ef2 	add.w	lr, r3, r2, ror #31
 c24:	9a0c      	ldr	r2, [sp, #48]	@ 0x30
 c26:	44b6      	add	lr, r6
 c28:	ea82 76f1 	eor.w	r6, r2, r1, ror #31
 c2c:	ea86 76f0 	eor.w	r6, r6, r0, ror #31
 c30:	ea86 72f4 	eor.w	r2, r6, r4, ror #31
 c34:	9907      	ldr	r1, [sp, #28]
 c36:	920c      	str	r2, [sp, #48]	@ 0x30
 c38:	eb03 76f2 	add.w	r6, r3, r2, ror #31
 c3c:	9a0d      	ldr	r2, [sp, #52]	@ 0x34
 c3e:	ea8a 08b7 	eor.w	r8, sl, r7, ror #2
 c42:	eb06 06b7 	add.w	r6, r6, r7, ror #2
 c46:	ea82 77f1 	eor.w	r7, r2, r1, ror #31
 c4a:	9a01      	ldr	r2, [sp, #4]
 c4c:	9908      	ldr	r1, [sp, #32]
 c4e:	ea88 080c 	eor.w	r8, r8, ip
 c52:	ea87 77f2 	eor.w	r7, r7, r2, ror #31
 c56:	9a05      	ldr	r2, [sp, #20]
 c58:	eb05 65fc 	add.w	r5, r5, ip, ror #27
 c5c:	ea8a 00bc 	eor.w	r0, sl, ip, ror #2
 c60:	44f0      	add	r8, lr
 c62:	eb08 68f5 	add.w	r8, r8, r5, ror #27
 c66:	ea87 77f2 	eor.w	r7, r7, r2, ror #31
 c6a:	4068      	eors	r0, r5
 c6c:	ea4f 05b5 	mov.w	r5, r5, ror #2
 c70:	9a15      	ldr	r2, [sp, #84]	@ 0x54
 c72:	ea85 0ebc 	eor.w	lr, r5, ip, ror #2
 c76:	4430      	add	r0, r6
 c78:	eb03 76f7 	add.w	r6, r3, r7, ror #31
 c7c:	4456      	add	r6, sl
 c7e:	ea8e 0e08 	eor.w	lr, lr, r8
 c82:	44b6      	add	lr, r6
 c84:	ea82 76f1 	eor.w	r6, r2, r1, ror #31
 c88:	9a0b      	ldr	r2, [sp, #44]	@ 0x2c
 c8a:	ea86 76f2 	eor.w	r6, r6, r2, ror #31
 c8e:	9a0a      	ldr	r2, [sp, #40]	@ 0x28
 c90:	ea86 72f2 	eor.w	r2, r6, r2, ror #31
 c94:	9207      	str	r2, [sp, #28]
 c96:	9907      	ldr	r1, [sp, #28]
 c98:	9e09      	ldr	r6, [sp, #36]	@ 0x24
 c9a:	eb00 60f8 	add.w	r0, r0, r8, ror #27
 c9e:	ea85 02b8 	eor.w	r2, r5, r8, ror #2
 ca2:	eb03 7af1 	add.w	sl, r3, r1, ror #31
 ca6:	990d      	ldr	r1, [sp, #52]	@ 0x34
 ca8:	eb0a 0abc 	add.w	sl, sl, ip, ror #2
 cac:	4042      	eors	r2, r0
 cae:	4452      	add	r2, sl
 cb0:	ea81 7af6 	eor.w	sl, r1, r6, ror #31
 cb4:	990c      	ldr	r1, [sp, #48]	@ 0x30
 cb6:	ea8a 7afb 	eor.w	sl, sl, fp, ror #31
 cba:	ea8a 7af1 	eor.w	sl, sl, r1, ror #31
 cbe:	eb03 7bfa 	add.w	fp, r3, sl, ror #31
 cc2:	9915      	ldr	r1, [sp, #84]	@ 0x54
 cc4:	44ab      	add	fp, r5
 cc6:	9d04      	ldr	r5, [sp, #16]
 cc8:	ea81 75f5 	eor.w	r5, r1, r5, ror #31
 ccc:	ea85 75f9 	eor.w	r5, r5, r9, ror #31
 cd0:	ea85 77f7 	eor.w	r7, r5, r7, ror #31
 cd4:	9911      	ldr	r1, [sp, #68]	@ 0x44
 cd6:	eb0e 6ef0 	add.w	lr, lr, r0, ror #27
 cda:	eb03 79f7 	add.w	r9, r3, r7, ror #31
 cde:	ea4f 00b0 	mov.w	r0, r0, ror #2
 ce2:	eb02 62fe 	add.w	r2, r2, lr, ror #27
 ce6:	ea80 0cb8 	eor.w	ip, r0, r8, ror #2
 cea:	ea80 05be 	eor.w	r5, r0, lr, ror #2
 cee:	eb09 09b8 	add.w	r9, r9, r8, ror #2
 cf2:	ea81 78f6 	eor.w	r8, r1, r6, ror #31
 cf6:	9907      	ldr	r1, [sp, #28]
 cf8:	ea88 74f4 	eor.w	r4, r8, r4, ror #31
 cfc:	4055      	eors	r5, r2
 cfe:	444d      	add	r5, r9
 d00:	ea84 79f1 	eor.w	r9, r4, r1, ror #31
 d04:	eb03 78f9 	add.w	r8, r3, r9, ror #31
 d08:	9916      	ldr	r1, [sp, #88]	@ 0x58
 d0a:	9c01      	ldr	r4, [sp, #4]
 d0c:	4480      	add	r8, r0
 d0e:	9804      	ldr	r0, [sp, #16]
 d10:	ea81 70f0 	eor.w	r0, r1, r0, ror #31
 d14:	9905      	ldr	r1, [sp, #20]
 d16:	ea8c 0c0e 	eor.w	ip, ip, lr
 d1a:	44dc      	add	ip, fp
 d1c:	ea80 70f1 	eor.w	r0, r0, r1, ror #31
 d20:	eb0c 6cf2 	add.w	ip, ip, r2, ror #27
 d24:	ea80 70fa 	eor.w	r0, r0, sl, ror #31
 d28:	ea4f 02b2 	mov.w	r2, r2, ror #2
 d2c:	eb05 65fc 	add.w	r5, r5, ip, ror #27
 d30:	ea82 01bc 	eor.w	r1, r2, ip, ror #2
 d34:	eb03 70f0 	add.w	r0, r3, r0, ror #31
 d38:	4069      	eors	r1, r5
 d3a:	eb00 00be 	add.w	r0, r0, lr, ror #2
 d3e:	4408      	add	r0, r1
 d40:	9911      	ldr	r1, [sp, #68]	@ 0x44
 d42:	ea81 71f4 	eor.w	r1, r1, r4, ror #31
 d46:	9c0a      	ldr	r4, [sp, #40]	@ 0x28
 d48:	ea82 06be 	eor.w	r6, r2, lr, ror #2
 d4c:	ea86 060c 	eor.w	r6, r6, ip
 d50:	ea81 71f4 	eor.w	r1, r1, r4, ror #31
 d54:	4446      	add	r6, r8
 d56:	ea81 71f7 	eor.w	r1, r1, r7, ror #31
 d5a:	eb06 66f5 	add.w	r6, r6, r5, ror #27
 d5e:	eb03 71f1 	add.w	r1, r3, r1, ror #31
 d62:	ea4f 05b5 	mov.w	r5, r5, ror #2
 d66:	4411      	add	r1, r2
 d68:	ea85 02bc 	eor.w	r2, r5, ip, ror #2
 d6c:	4072      	eors	r2, r6
 d6e:	9c0b      	ldr	r4, [sp, #44]	@ 0x2c
 d70:	4411      	add	r1, r2
 d72:	9a16      	ldr	r2, [sp, #88]	@ 0x58
 d74:	ea82 72f4 	eor.w	r2, r2, r4, ror #31
 d78:	9c0c      	ldr	r4, [sp, #48]	@ 0x30
 d7a:	ea82 72f4 	eor.w	r2, r2, r4, ror #31
 d7e:	9c0f      	ldr	r4, [sp, #60]	@ 0x3c
 d80:	ea82 72f9 	eor.w	r2, r2, r9, ror #31
 d84:	4423      	add	r3, r4
 d86:	eb00 60f6 	add.w	r0, r0, r6, ror #27
 d8a:	eb03 73f2 	add.w	r3, r3, r2, ror #31
 d8e:	ea85 02b6 	eor.w	r2, r5, r6, ror #2
 d92:	4042      	eors	r2, r0
 d94:	eb03 03bc 	add.w	r3, r3, ip, ror #2
 d98:	eb01 61f0 	add.w	r1, r1, r0, ror #27
 d9c:	4413      	add	r3, r2
 d9e:	9a02      	ldr	r2, [sp, #8]
 da0:	eb03 63f1 	add.w	r3, r3, r1, ror #27
 da4:	64d3      	str	r3, [r2, #76]	@ 0x4c
 da6:	9b03      	ldr	r3, [sp, #12]
 da8:	4419      	add	r1, r3
 daa:	9b06      	ldr	r3, [sp, #24]
 dac:	6511      	str	r1, [r2, #80]	@ 0x50
 dae:	eb03 00b0 	add.w	r0, r3, r0, ror #2
 db2:	9b10      	ldr	r3, [sp, #64]	@ 0x40
 db4:	6550      	str	r0, [r2, #84]	@ 0x54
 db6:	eb03 06b6 	add.w	r6, r3, r6, ror #2
 dba:	9b12      	ldr	r3, [sp, #72]	@ 0x48
 dbc:	6596      	str	r6, [r2, #88]	@ 0x58
 dbe:	441d      	add	r5, r3
 dc0:	2000      	movs	r0, #0
 dc2:	65d5      	str	r5, [r2, #92]	@ 0x5c
 dc4:	b01b      	add	sp, #108	@ 0x6c
 dc6:	e8bd 8ff0 	ldmia.w	sp!, {r4, r5, r6, r7, r8, r9, sl, fp, pc}
 dca:	bf00      	nop
 dcc:	ca62c1d6 	.word	0xca62c1d6

Disassembly of section .text.wc_InitSha_ex:

00000000 <wc_InitSha_ex>:
   0:	b1b8      	cbz	r0, 32 <wc_InitSha_ex+0x32>
   2:	4b0d      	ldr	r3, [pc, #52]	@ (38 <wc_InitSha_ex+0x38>)
   4:	64c3      	str	r3, [r0, #76]	@ 0x4c
   6:	f103 3388 	add.w	r3, r3, #2290649224	@ 0x88888888
   a:	6503      	str	r3, [r0, #80]	@ 0x50
   c:	f103 4329 	add.w	r3, r3, #2835349504	@ 0xa9000000
  10:	f5a3 1396 	sub.w	r3, r3, #1228800	@ 0x12c000
  14:	f6a3 638b 	subw	r3, r3, #3723	@ 0xe8b
  18:	6543      	str	r3, [r0, #84]	@ 0x54
  1a:	f1a3 3388 	sub.w	r3, r3, #2290649224	@ 0x88888888
  1e:	6583      	str	r3, [r0, #88]	@ 0x58
  20:	4b06      	ldr	r3, [pc, #24]	@ (3c <wc_InitSha_ex+0x3c>)
  22:	65c3      	str	r3, [r0, #92]	@ 0x5c
  24:	2300      	movs	r3, #0
  26:	e9c0 3300 	strd	r3, r3, [r0]
  2a:	6601      	str	r1, [r0, #96]	@ 0x60
  2c:	6083      	str	r3, [r0, #8]
  2e:	4618      	mov	r0, r3
  30:	4770      	bx	lr
  32:	f06f 00ac 	mvn.w	r0, #172	@ 0xac
  36:	4770      	bx	lr
  38:	67452301 	.word	0x67452301
  3c:	c3d2e1f0 	.word	0xc3d2e1f0

Disassembly of section .text.wc_ShaUpdate:

00000000 <wc_ShaUpdate>:
   0:	e92d 47f0 	stmdb	sp!, {r4, r5, r6, r7, r8, r9, sl, lr}
   4:	460f      	mov	r7, r1
   6:	4614      	mov	r4, r2
   8:	4605      	mov	r5, r0
   a:	2800      	cmp	r0, #0
   c:	d057      	beq.n	be <wc_ShaUpdate+0xbe>
   e:	b939      	cbnz	r1, 20 <wc_ShaUpdate+0x20>
  10:	2a00      	cmp	r2, #0
  12:	bf14      	ite	ne
  14:	f06f 06ac 	mvnne.w	r6, #172	@ 0xac
  18:	2600      	moveq	r6, #0
  1a:	4630      	mov	r0, r6
  1c:	e8bd 87f0 	ldmia.w	sp!, {r4, r5, r6, r7, r8, r9, sl, pc}
  20:	6800      	ldr	r0, [r0, #0]
  22:	283f      	cmp	r0, #63	@ 0x3f
  24:	d84e      	bhi.n	c4 <wc_ShaUpdate+0xc4>
  26:	686b      	ldr	r3, [r5, #4]
  28:	18d3      	adds	r3, r2, r3
  2a:	606b      	str	r3, [r5, #4]
  2c:	bf22      	ittt	cs
  2e:	68ab      	ldrcs	r3, [r5, #8]
  30:	3301      	addcs	r3, #1
  32:	60ab      	strcs	r3, [r5, #8]
  34:	f105 080c 	add.w	r8, r5, #12
  38:	b1d8      	cbz	r0, 72 <wc_ShaUpdate+0x72>
  3a:	f1c0 0940 	rsb	r9, r0, #64	@ 0x40
  3e:	4591      	cmp	r9, r2
  40:	bf28      	it	cs
  42:	4691      	movcs	r9, r2
  44:	464a      	mov	r2, r9
  46:	4440      	add	r0, r8
  48:	f7ff fffe 	bl	0 <memcpy>
  4c:	682a      	ldr	r2, [r5, #0]
  4e:	444a      	add	r2, r9
  50:	2a40      	cmp	r2, #64	@ 0x40
  52:	602a      	str	r2, [r5, #0]
  54:	d10a      	bne.n	6c <wc_ShaUpdate+0x6c>
  56:	4641      	mov	r1, r8
  58:	4640      	mov	r0, r8
  5a:	f7ff fffe 	bl	0 <wc_ShaUpdate>
  5e:	4628      	mov	r0, r5
  60:	f7ff fffe 	bl	0 <wc_ShaUpdate>
  64:	4606      	mov	r6, r0
  66:	2800      	cmp	r0, #0
  68:	d1d7      	bne.n	1a <wc_ShaUpdate+0x1a>
  6a:	6028      	str	r0, [r5, #0]
  6c:	444f      	add	r7, r9
  6e:	eba4 0409 	sub.w	r4, r4, r9
  72:	46a1      	mov	r9, r4
  74:	2600      	movs	r6, #0
  76:	eb07 0a04 	add.w	sl, r7, r4
  7a:	f1b9 0f3f 	cmp.w	r9, #63	@ 0x3f
  7e:	ebaa 0109 	sub.w	r1, sl, r9
  82:	d80c      	bhi.n	9e <wc_ShaUpdate+0x9e>
  84:	f014 093f 	ands.w	r9, r4, #63	@ 0x3f
  88:	d0c7      	beq.n	1a <wc_ShaUpdate+0x1a>
  8a:	f024 043f 	bic.w	r4, r4, #63	@ 0x3f
  8e:	464a      	mov	r2, r9
  90:	1939      	adds	r1, r7, r4
  92:	4640      	mov	r0, r8
  94:	f7ff fffe 	bl	0 <memcpy>
  98:	f8c5 9000 	str.w	r9, [r5]
  9c:	e7bd      	b.n	1a <wc_ShaUpdate+0x1a>
  9e:	2240      	movs	r2, #64	@ 0x40
  a0:	4640      	mov	r0, r8
  a2:	f7ff fffe 	bl	0 <memcpy>
  a6:	2240      	movs	r2, #64	@ 0x40
  a8:	4641      	mov	r1, r8
  aa:	4640      	mov	r0, r8
  ac:	f7ff fffe 	bl	0 <wc_ShaUpdate>
  b0:	4628      	mov	r0, r5
  b2:	f7ff fffe 	bl	0 <wc_ShaUpdate>
  b6:	f1a9 0940 	sub.w	r9, r9, #64	@ 0x40
  ba:	4606      	mov	r6, r0
  bc:	e7dd      	b.n	7a <wc_ShaUpdate+0x7a>
  be:	f06f 06ac 	mvn.w	r6, #172	@ 0xac
  c2:	e7aa      	b.n	1a <wc_ShaUpdate+0x1a>
  c4:	f06f 0683 	mvn.w	r6, #131	@ 0x83
  c8:	e7a7      	b.n	1a <wc_ShaUpdate+0x1a>

Disassembly of section .text.wc_ShaFinalRaw:

00000000 <wc_ShaFinalRaw>:
   0:	b510      	push	{r4, lr}
   2:	460c      	mov	r4, r1
   4:	b086      	sub	sp, #24
   6:	b170      	cbz	r0, 26 <wc_ShaFinalRaw+0x26>
   8:	b169      	cbz	r1, 26 <wc_ShaFinalRaw+0x26>
   a:	f100 014c 	add.w	r1, r0, #76	@ 0x4c
   e:	2214      	movs	r2, #20
  10:	a801      	add	r0, sp, #4
  12:	f7ff fffe 	bl	0 <wc_ShaFinalRaw>
  16:	4601      	mov	r1, r0
  18:	2214      	movs	r2, #20
  1a:	4620      	mov	r0, r4
  1c:	f7ff fffe 	bl	0 <memcpy>
  20:	2000      	movs	r0, #0
  22:	b006      	add	sp, #24
  24:	bd10      	pop	{r4, pc}
  26:	f06f 00ac 	mvn.w	r0, #172	@ 0xac
  2a:	e7fa      	b.n	22 <wc_ShaFinalRaw+0x22>

Disassembly of section .text.wc_ShaFinal:

00000000 <wc_ShaFinal>:
   0:	b5f8      	push	{r3, r4, r5, r6, r7, lr}
   2:	460f      	mov	r7, r1
   4:	4604      	mov	r4, r0
   6:	2800      	cmp	r0, #0
   8:	d069      	beq.n	de <wc_ShaFinal+0xde>
   a:	2900      	cmp	r1, #0
   c:	d067      	beq.n	de <wc_ShaFinal+0xde>
   e:	4606      	mov	r6, r0
  10:	f856 3b0c 	ldr.w	r3, [r6], #12
  14:	2b3f      	cmp	r3, #63	@ 0x3f
  16:	d865      	bhi.n	e4 <wc_ShaFinal+0xe4>
  18:	1c5a      	adds	r2, r3, #1
  1a:	6002      	str	r2, [r0, #0]
  1c:	2280      	movs	r2, #128	@ 0x80
  1e:	54f2      	strb	r2, [r6, r3]
  20:	6800      	ldr	r0, [r0, #0]
  22:	2838      	cmp	r0, #56	@ 0x38
  24:	d914      	bls.n	50 <wc_ShaFinal+0x50>
  26:	283f      	cmp	r0, #63	@ 0x3f
  28:	d805      	bhi.n	36 <wc_ShaFinal+0x36>
  2a:	f1c0 0240 	rsb	r2, r0, #64	@ 0x40
  2e:	2100      	movs	r1, #0
  30:	4430      	add	r0, r6
  32:	f7ff fffe 	bl	0 <memset>
  36:	2240      	movs	r2, #64	@ 0x40
  38:	6022      	str	r2, [r4, #0]
  3a:	4631      	mov	r1, r6
  3c:	4630      	mov	r0, r6
  3e:	f7ff fffe 	bl	0 <wc_ShaFinal>
  42:	4620      	mov	r0, r4
  44:	f7ff fffe 	bl	0 <wc_ShaFinal>
  48:	4605      	mov	r5, r0
  4a:	2800      	cmp	r0, #0
  4c:	d145      	bne.n	da <wc_ShaFinal+0xda>
  4e:	6020      	str	r0, [r4, #0]
  50:	6820      	ldr	r0, [r4, #0]
  52:	2100      	movs	r1, #0
  54:	f1c0 0238 	rsb	r2, r0, #56	@ 0x38
  58:	4430      	add	r0, r6
  5a:	f7ff fffe 	bl	0 <memset>
  5e:	2240      	movs	r2, #64	@ 0x40
  60:	4631      	mov	r1, r6
  62:	4630      	mov	r0, r6
  64:	f7ff fffe 	bl	0 <wc_ShaFinal>
  68:	e9d4 3101 	ldrd	r3, r1, [r4, #4]
  6c:	0f5a      	lsrs	r2, r3, #29
  6e:	eb02 02c1 	add.w	r2, r2, r1, lsl #3
  72:	00db      	lsls	r3, r3, #3
  74:	6063      	str	r3, [r4, #4]
  76:	60a2      	str	r2, [r4, #8]
  78:	f104 0108 	add.w	r1, r4, #8
  7c:	2204      	movs	r2, #4
  7e:	f104 0044 	add.w	r0, r4, #68	@ 0x44
  82:	f7ff fffe 	bl	0 <memcpy>
  86:	2204      	movs	r2, #4
  88:	18a1      	adds	r1, r4, r2
  8a:	f104 0048 	add.w	r0, r4, #72	@ 0x48
  8e:	f7ff fffe 	bl	0 <memcpy>
  92:	4631      	mov	r1, r6
  94:	4620      	mov	r0, r4
  96:	f7ff fffe 	bl	0 <wc_ShaFinal>
  9a:	f104 014c 	add.w	r1, r4, #76	@ 0x4c
  9e:	2214      	movs	r2, #20
  a0:	4605      	mov	r5, r0
  a2:	4608      	mov	r0, r1
  a4:	f7ff fffe 	bl	0 <wc_ShaFinal>
  a8:	2214      	movs	r2, #20
  aa:	4638      	mov	r0, r7
  ac:	f7ff fffe 	bl	0 <memcpy>
  b0:	4b0e      	ldr	r3, [pc, #56]	@ (ec <wc_ShaFinal+0xec>)
  b2:	64e3      	str	r3, [r4, #76]	@ 0x4c
  b4:	f103 3388 	add.w	r3, r3, #2290649224	@ 0x88888888
  b8:	6523      	str	r3, [r4, #80]	@ 0x50
  ba:	f103 4329 	add.w	r3, r3, #2835349504	@ 0xa9000000
  be:	f5a3 1396 	sub.w	r3, r3, #1228800	@ 0x12c000
  c2:	f6a3 638b 	subw	r3, r3, #3723	@ 0xe8b
  c6:	6563      	str	r3, [r4, #84]	@ 0x54
  c8:	f1a3 3388 	sub.w	r3, r3, #2290649224	@ 0x88888888
  cc:	65a3      	str	r3, [r4, #88]	@ 0x58
  ce:	4b08      	ldr	r3, [pc, #32]	@ (f0 <wc_ShaFinal+0xf0>)
  d0:	65e3      	str	r3, [r4, #92]	@ 0x5c
  d2:	2300      	movs	r3, #0
  d4:	e9c4 3300 	strd	r3, r3, [r4]
  d8:	60a3      	str	r3, [r4, #8]
  da:	4628      	mov	r0, r5
  dc:	bdf8      	pop	{r3, r4, r5, r6, r7, pc}
  de:	f06f 05ac 	mvn.w	r5, #172	@ 0xac
  e2:	e7fa      	b.n	da <wc_ShaFinal+0xda>
  e4:	f06f 05bf 	mvn.w	r5, #191	@ 0xbf
  e8:	e7f7      	b.n	da <wc_ShaFinal+0xda>
  ea:	bf00      	nop
  ec:	67452301 	.word	0x67452301
  f0:	c3d2e1f0 	.word	0xc3d2e1f0

Disassembly of section .text.wc_InitSha:

00000000 <wc_InitSha>:
   0:	f06f 0201 	mvn.w	r2, #1
   4:	2100      	movs	r1, #0
   6:	f7ff bffe 	b.w	0 <wc_InitSha>

Disassembly of section .text.wc_ShaFree:

00000000 <wc_ShaFree>:
   0:	4770      	bx	lr

Disassembly of section .text.wc_ShaCopy:

00000000 <wc_ShaCopy>:
   0:	b508      	push	{r3, lr}
   2:	460b      	mov	r3, r1
   4:	4601      	mov	r1, r0
   6:	b130      	cbz	r0, 16 <wc_ShaCopy+0x16>
   8:	b12b      	cbz	r3, 16 <wc_ShaCopy+0x16>
   a:	2264      	movs	r2, #100	@ 0x64
   c:	4618      	mov	r0, r3
   e:	f7ff fffe 	bl	0 <memcpy>
  12:	2000      	movs	r0, #0
  14:	bd08      	pop	{r3, pc}
  16:	f06f 00ac 	mvn.w	r0, #172	@ 0xac
  1a:	e7fb      	b.n	14 <wc_ShaCopy+0x14>

Disassembly of section .text.wc_ShaGetHash:

00000000 <wc_ShaGetHash>:
   0:	b510      	push	{r4, lr}
   2:	460c      	mov	r4, r1
   4:	b09a      	sub	sp, #104	@ 0x68
   6:	b150      	cbz	r0, 1e <wc_ShaGetHash+0x1e>
   8:	b149      	cbz	r1, 1e <wc_ShaGetHash+0x1e>
   a:	a901      	add	r1, sp, #4
   c:	f7ff fffe 	bl	0 <wc_ShaGetHash>
  10:	b918      	cbnz	r0, 1a <wc_ShaGetHash+0x1a>
  12:	4621      	mov	r1, r4
  14:	a801      	add	r0, sp, #4
  16:	f7ff fffe 	bl	0 <wc_ShaGetHash>
  1a:	b01a      	add	sp, #104	@ 0x68
  1c:	bd10      	pop	{r4, pc}
  1e:	f06f 00ac 	mvn.w	r0, #172	@ 0xac
  22:	e7fa      	b.n	1a <wc_ShaGetHash+0x1a>

sha256.o:     file format elf32-littlearm


Disassembly of section .text.ByteReverseWords:

00000000 <ByteReverseWords>:
   0:	b510      	push	{r4, lr}
   2:	0892      	lsrs	r2, r2, #2
   4:	2300      	movs	r3, #0
   6:	f851 4023 	ldr.w	r4, [r1, r3, lsl #2]
   a:	ba24      	rev	r4, r4
   c:	f840 4023 	str.w	r4, [r0, r3, lsl #2]
  10:	3301      	adds	r3, #1
  12:	429a      	cmp	r2, r3
  14:	d1f7      	bne.n	6 <ByteReverseWords+0x6>
  16:	bd10      	pop	{r4, pc}

Disassembly of section .text.Transform_Sha256:

00000000 <Transform_Sha256>:
   0:	e92d 4ff0 	stmdb	sp!, {r4, r5, r6, r7, r8, r9, sl, fp, lr}
   4:	b0cb      	sub	sp, #300	@ 0x12c
   6:	1f03      	subs	r3, r0, #4
   8:	9300      	str	r3, [sp, #0]
   a:	f100 031c 	add.w	r3, r0, #28
   e:	f10d 0b08 	add.w	fp, sp, #8
  12:	9301      	str	r3, [sp, #4]
  14:	9b00      	ldr	r3, [sp, #0]
  16:	465a      	mov	r2, fp
  18:	f853 0f04 	ldr.w	r0, [r3, #4]!
  1c:	f842 0b04 	str.w	r0, [r2], #4
  20:	9801      	ldr	r0, [sp, #4]
  22:	4298      	cmp	r0, r3
  24:	d1f8      	bne.n	18 <Transform_Sha256+0x18>
  26:	f10d 0c28 	add.w	ip, sp, #40	@ 0x28
  2a:	1f0b      	subs	r3, r1, #4
  2c:	4662      	mov	r2, ip
  2e:	313c      	adds	r1, #60	@ 0x3c
  30:	f853 0f04 	ldr.w	r0, [r3, #4]!
  34:	f842 0b04 	str.w	r0, [r2], #4
  38:	4299      	cmp	r1, r3
  3a:	d1f9      	bne.n	30 <Transform_Sha256+0x30>
  3c:	4662      	mov	r2, ip
  3e:	2010      	movs	r0, #16
  40:	6b91      	ldr	r1, [r2, #56]	@ 0x38
  42:	4615      	mov	r5, r2
  44:	ea4f 43f1 	mov.w	r3, r1, ror #19
  48:	ea83 4371 	eor.w	r3, r3, r1, ror #17
  4c:	ea83 2391 	eor.w	r3, r3, r1, lsr #10
  50:	6a69      	ldr	r1, [r5, #36]	@ 0x24
  52:	682d      	ldr	r5, [r5, #0]
  54:	f852 4f04 	ldr.w	r4, [r2, #4]!
  58:	4429      	add	r1, r5
  5a:	440b      	add	r3, r1
  5c:	ea4f 41b4 	mov.w	r1, r4, ror #18
  60:	ea81 11f4 	eor.w	r1, r1, r4, ror #7
  64:	ea81 01d4 	eor.w	r1, r1, r4, lsr #3
  68:	3001      	adds	r0, #1
  6a:	440b      	add	r3, r1
  6c:	2840      	cmp	r0, #64	@ 0x40
  6e:	63d3      	str	r3, [r2, #60]	@ 0x3c
  70:	d1e6      	bne.n	40 <Transform_Sha256+0x40>
  72:	e9db 1005 	ldrd	r1, r0, [fp, #20]
  76:	e9db 2400 	ldrd	r2, r4, [fp]
  7a:	e9db 5802 	ldrd	r5, r8, [fp, #8]
  7e:	f8db e01c 	ldr.w	lr, [fp, #28]
  82:	f8db 3010 	ldr.w	r3, [fp, #16]
  86:	f8df 926c 	ldr.w	r9, [pc, #620]	@ 2f4 <Transform_Sha256+0x2f4>
  8a:	f8d9 6000 	ldr.w	r6, [r9]
  8e:	f8dc 7000 	ldr.w	r7, [ip]
  92:	ea4f 2af3 	mov.w	sl, r3, ror #11
  96:	ea8a 1ab3 	eor.w	sl, sl, r3, ror #6
  9a:	443e      	add	r6, r7
  9c:	ea80 0701 	eor.w	r7, r0, r1
  a0:	ea8a 6a73 	eor.w	sl, sl, r3, ror #25
  a4:	401f      	ands	r7, r3
  a6:	4047      	eors	r7, r0
  a8:	4456      	add	r6, sl
  aa:	443e      	add	r6, r7
  ac:	4476      	add	r6, lr
  ae:	ea4f 0eb2 	mov.w	lr, r2, ror #2
  b2:	ea8e 3e72 	eor.w	lr, lr, r2, ror #13
  b6:	ea8e 5eb2 	eor.w	lr, lr, r2, ror #22
  ba:	44b0      	add	r8, r6
  bc:	44b6      	add	lr, r6
  be:	ea42 0604 	orr.w	r6, r2, r4
  c2:	ea02 0704 	and.w	r7, r2, r4
  c6:	402e      	ands	r6, r5
  c8:	433e      	orrs	r6, r7
  ca:	44b6      	add	lr, r6
  cc:	f8dc 7004 	ldr.w	r7, [ip, #4]
  d0:	f8d9 6004 	ldr.w	r6, [r9, #4]
  d4:	443e      	add	r6, r7
  d6:	4406      	add	r6, r0
  d8:	ea83 0001 	eor.w	r0, r3, r1
  dc:	ea00 0008 	and.w	r0, r0, r8
  e0:	4048      	eors	r0, r1
  e2:	4406      	add	r6, r0
  e4:	ea4f 20f8 	mov.w	r0, r8, ror #11
  e8:	ea80 10b8 	eor.w	r0, r0, r8, ror #6
  ec:	ea80 6078 	eor.w	r0, r0, r8, ror #25
  f0:	4406      	add	r6, r0
  f2:	ea4f 307e 	mov.w	r0, lr, ror #13
  f6:	ea80 00be 	eor.w	r0, r0, lr, ror #2
  fa:	19af      	adds	r7, r5, r6
  fc:	ea80 50be 	eor.w	r0, r0, lr, ror #22
 100:	ea4e 0502 	orr.w	r5, lr, r2
 104:	4430      	add	r0, r6
 106:	4025      	ands	r5, r4
 108:	ea0e 0602 	and.w	r6, lr, r2
 10c:	4335      	orrs	r5, r6
 10e:	4428      	add	r0, r5
 110:	f8dc 6008 	ldr.w	r6, [ip, #8]
 114:	f8d9 5008 	ldr.w	r5, [r9, #8]
 118:	4435      	add	r5, r6
 11a:	440d      	add	r5, r1
 11c:	ea83 0108 	eor.w	r1, r3, r8
 120:	4039      	ands	r1, r7
 122:	4059      	eors	r1, r3
 124:	440d      	add	r5, r1
 126:	ea4f 21f7 	mov.w	r1, r7, ror #11
 12a:	ea81 11b7 	eor.w	r1, r1, r7, ror #6
 12e:	ea81 6177 	eor.w	r1, r1, r7, ror #25
 132:	440d      	add	r5, r1
 134:	ea4f 3170 	mov.w	r1, r0, ror #13
 138:	ea81 01b0 	eor.w	r1, r1, r0, ror #2
 13c:	1966      	adds	r6, r4, r5
 13e:	ea81 51b0 	eor.w	r1, r1, r0, ror #22
 142:	ea4e 0400 	orr.w	r4, lr, r0
 146:	4429      	add	r1, r5
 148:	4014      	ands	r4, r2
 14a:	ea0e 0500 	and.w	r5, lr, r0
 14e:	432c      	orrs	r4, r5
 150:	4421      	add	r1, r4
 152:	f8dc 500c 	ldr.w	r5, [ip, #12]
 156:	f8d9 400c 	ldr.w	r4, [r9, #12]
 15a:	442c      	add	r4, r5
 15c:	441c      	add	r4, r3
 15e:	ea88 0307 	eor.w	r3, r8, r7
 162:	4033      	ands	r3, r6
 164:	ea83 0308 	eor.w	r3, r3, r8
 168:	441c      	add	r4, r3
 16a:	ea4f 23f6 	mov.w	r3, r6, ror #11
 16e:	ea83 13b6 	eor.w	r3, r3, r6, ror #6
 172:	ea83 6376 	eor.w	r3, r3, r6, ror #25
 176:	441c      	add	r4, r3
 178:	ea4f 3371 	mov.w	r3, r1, ror #13
 17c:	ea83 03b1 	eor.w	r3, r3, r1, ror #2
 180:	eb02 0a04 	add.w	sl, r2, r4
 184:	ea83 53b1 	eor.w	r3, r3, r1, ror #22
 188:	ea40 0201 	orr.w	r2, r0, r1
 18c:	4423      	add	r3, r4
 18e:	ea02 020e 	and.w	r2, r2, lr
 192:	ea00 0401 	and.w	r4, r0, r1
 196:	4322      	orrs	r2, r4
 198:	4413      	add	r3, r2
 19a:	f8dc 4010 	ldr.w	r4, [ip, #16]
 19e:	f8d9 2010 	ldr.w	r2, [r9, #16]
 1a2:	4422      	add	r2, r4
 1a4:	ea87 0406 	eor.w	r4, r7, r6
 1a8:	ea04 040a 	and.w	r4, r4, sl
 1ac:	407c      	eors	r4, r7
 1ae:	4442      	add	r2, r8
 1b0:	4422      	add	r2, r4
 1b2:	ea4f 24fa 	mov.w	r4, sl, ror #11
 1b6:	ea4f 3873 	mov.w	r8, r3, ror #13
 1ba:	ea84 14ba 	eor.w	r4, r4, sl, ror #6
 1be:	ea84 647a 	eor.w	r4, r4, sl, ror #25
 1c2:	ea88 08b3 	eor.w	r8, r8, r3, ror #2
 1c6:	4422      	add	r2, r4
 1c8:	ea88 58b3 	eor.w	r8, r8, r3, ror #22
 1cc:	4496      	add	lr, r2
 1ce:	4490      	add	r8, r2
 1d0:	ea41 0203 	orr.w	r2, r1, r3
 1d4:	ea01 0403 	and.w	r4, r1, r3
 1d8:	4002      	ands	r2, r0
 1da:	4322      	orrs	r2, r4
 1dc:	4490      	add	r8, r2
 1de:	f8dc 4014 	ldr.w	r4, [ip, #20]
 1e2:	f8d9 2014 	ldr.w	r2, [r9, #20]
 1e6:	4422      	add	r2, r4
 1e8:	ea86 040a 	eor.w	r4, r6, sl
 1ec:	ea04 040e 	and.w	r4, r4, lr
 1f0:	4074      	eors	r4, r6
 1f2:	443a      	add	r2, r7
 1f4:	4422      	add	r2, r4
 1f6:	ea4f 24fe 	mov.w	r4, lr, ror #11
 1fa:	ea84 14be 	eor.w	r4, r4, lr, ror #6
 1fe:	ea4f 3578 	mov.w	r5, r8, ror #13
 202:	ea84 647e 	eor.w	r4, r4, lr, ror #25
 206:	ea85 05b8 	eor.w	r5, r5, r8, ror #2
 20a:	4422      	add	r2, r4
 20c:	ea85 55b8 	eor.w	r5, r5, r8, ror #22
 210:	4410      	add	r0, r2
 212:	4415      	add	r5, r2
 214:	ea43 0208 	orr.w	r2, r3, r8
 218:	ea03 0408 	and.w	r4, r3, r8
 21c:	400a      	ands	r2, r1
 21e:	4322      	orrs	r2, r4
 220:	4415      	add	r5, r2
 222:	f8dc 4018 	ldr.w	r4, [ip, #24]
 226:	f8d9 2018 	ldr.w	r2, [r9, #24]
 22a:	4422      	add	r2, r4
 22c:	ea8a 040e 	eor.w	r4, sl, lr
 230:	4004      	ands	r4, r0
 232:	4432      	add	r2, r6
 234:	ea84 040a 	eor.w	r4, r4, sl
 238:	4422      	add	r2, r4
 23a:	ea4f 24f0 	mov.w	r4, r0, ror #11
 23e:	ea84 14b0 	eor.w	r4, r4, r0, ror #6
 242:	ea84 6470 	eor.w	r4, r4, r0, ror #25
 246:	4422      	add	r2, r4
 248:	ea4f 3475 	mov.w	r4, r5, ror #13
 24c:	ea84 04b5 	eor.w	r4, r4, r5, ror #2
 250:	ea84 54b5 	eor.w	r4, r4, r5, ror #22
 254:	4411      	add	r1, r2
 256:	4414      	add	r4, r2
 258:	ea48 0205 	orr.w	r2, r8, r5
 25c:	401a      	ands	r2, r3
 25e:	ea08 0605 	and.w	r6, r8, r5
 262:	4332      	orrs	r2, r6
 264:	4414      	add	r4, r2
 266:	f8dc 601c 	ldr.w	r6, [ip, #28]
 26a:	f8d9 201c 	ldr.w	r2, [r9, #28]
 26e:	ea8e 0700 	eor.w	r7, lr, r0
 272:	4416      	add	r6, r2
 274:	400f      	ands	r7, r1
 276:	ea4f 22f1 	mov.w	r2, r1, ror #11
 27a:	ea87 070e 	eor.w	r7, r7, lr
 27e:	4456      	add	r6, sl
 280:	ea82 12b1 	eor.w	r2, r2, r1, ror #6
 284:	443e      	add	r6, r7
 286:	ea82 6271 	eor.w	r2, r2, r1, ror #25
 28a:	4416      	add	r6, r2
 28c:	ea4f 3274 	mov.w	r2, r4, ror #13
 290:	ea82 02b4 	eor.w	r2, r2, r4, ror #2
 294:	ea82 52b4 	eor.w	r2, r2, r4, ror #22
 298:	4432      	add	r2, r6
 29a:	4433      	add	r3, r6
 29c:	ea45 0604 	orr.w	r6, r5, r4
 2a0:	ea06 0608 	and.w	r6, r6, r8
 2a4:	ea05 0704 	and.w	r7, r5, r4
 2a8:	433e      	orrs	r6, r7
 2aa:	4432      	add	r2, r6
 2ac:	4e10      	ldr	r6, [pc, #64]	@ (2f0 <Transform_Sha256+0x2f0>)
 2ae:	f109 0920 	add.w	r9, r9, #32
 2b2:	454e      	cmp	r6, r9
 2b4:	f10c 0c20 	add.w	ip, ip, #32
 2b8:	f47f aee7 	bne.w	8a <Transform_Sha256+0x8a>
 2bc:	f8cd e024 	str.w	lr, [sp, #36]	@ 0x24
 2c0:	f8cd 8014 	str.w	r8, [sp, #20]
 2c4:	9008      	str	r0, [sp, #32]
 2c6:	9504      	str	r5, [sp, #16]
 2c8:	9107      	str	r1, [sp, #28]
 2ca:	9403      	str	r4, [sp, #12]
 2cc:	9306      	str	r3, [sp, #24]
 2ce:	9202      	str	r2, [sp, #8]
 2d0:	9900      	ldr	r1, [sp, #0]
 2d2:	f85b 2b04 	ldr.w	r2, [fp], #4
 2d6:	f851 3f04 	ldr.w	r3, [r1, #4]!
 2da:	9100      	str	r1, [sp, #0]
 2dc:	4413      	add	r3, r2
 2de:	600b      	str	r3, [r1, #0]
 2e0:	9b01      	ldr	r3, [sp, #4]
 2e2:	428b      	cmp	r3, r1
 2e4:	d1f4      	bne.n	2d0 <Transform_Sha256+0x2d0>
 2e6:	2000      	movs	r0, #0
 2e8:	b04b      	add	sp, #300	@ 0x12c
 2ea:	e8bd 8ff0 	ldmia.w	sp!, {r4, r5, r6, r7, r8, r9, sl, fp, pc}
 2ee:	bf00      	nop
 2f0:	00000100 	.word	0x00000100
 2f4:	00000000 	.word	0x00000000

Disassembly of section .text.wc_InitSha256_ex:

00000000 <wc_InitSha256_ex>:
   0:	b538      	push	{r3, r4, r5, lr}
   2:	460d      	mov	r5, r1
   4:	4604      	mov	r4, r0
   6:	b1f0      	cbz	r0, 46 <wc_InitSha256_ex+0x46>
   8:	2220      	movs	r2, #32
   a:	2100      	movs	r1, #0
   c:	f7ff fffe 	bl	0 <memset>
  10:	4b0e      	ldr	r3, [pc, #56]	@ (4c <wc_InitSha256_ex+0x4c>)
  12:	4a0f      	ldr	r2, [pc, #60]	@ (50 <wc_InitSha256_ex+0x50>)
  14:	490f      	ldr	r1, [pc, #60]	@ (54 <wc_InitSha256_ex+0x54>)
  16:	4810      	ldr	r0, [pc, #64]	@ (58 <wc_InitSha256_ex+0x58>)
  18:	e9c4 2300 	strd	r2, r3, [r4]
  1c:	4b0f      	ldr	r3, [pc, #60]	@ (5c <wc_InitSha256_ex+0x5c>)
  1e:	e9c4 1302 	strd	r1, r3, [r4, #8]
  22:	4b0f      	ldr	r3, [pc, #60]	@ (60 <wc_InitSha256_ex+0x60>)
  24:	e9c4 0304 	strd	r0, r3, [r4, #16]
  28:	4b0e      	ldr	r3, [pc, #56]	@ (64 <wc_InitSha256_ex+0x64>)
  2a:	61a3      	str	r3, [r4, #24]
  2c:	2000      	movs	r0, #0
  2e:	f103 5374 	add.w	r3, r3, #1023410176	@ 0x3d000000
  32:	f5a3 0323 	sub.w	r3, r3, #10682368	@ 0xa30000
  36:	e9c4 0018 	strd	r0, r0, [r4, #96]	@ 0x60
  3a:	e9c4 051a 	strd	r0, r5, [r4, #104]	@ 0x68
  3e:	f6a3 4392 	subw	r3, r3, #3218	@ 0xc92
  42:	61e3      	str	r3, [r4, #28]
  44:	bd38      	pop	{r3, r4, r5, pc}
  46:	f06f 00ac 	mvn.w	r0, #172	@ 0xac
  4a:	e7fb      	b.n	44 <wc_InitSha256_ex+0x44>
  4c:	bb67ae85 	.word	0xbb67ae85
  50:	6a09e667 	.word	0x6a09e667
  54:	3c6ef372 	.word	0x3c6ef372
  58:	510e527f 	.word	0x510e527f
  5c:	a54ff53a 	.word	0xa54ff53a
  60:	9b05688c 	.word	0x9b05688c
  64:	1f83d9ab 	.word	0x1f83d9ab

Disassembly of section .text.wc_Sha256Update:

00000000 <wc_Sha256Update>:
   0:	e92d 41f0 	stmdb	sp!, {r4, r5, r6, r7, r8, lr}
   4:	460e      	mov	r6, r1
   6:	4615      	mov	r5, r2
   8:	4604      	mov	r4, r0
   a:	2800      	cmp	r0, #0
   c:	d04a      	beq.n	a4 <wc_Sha256Update+0xa4>
   e:	b921      	cbnz	r1, 1a <wc_Sha256Update+0x1a>
  10:	2a00      	cmp	r2, #0
  12:	d147      	bne.n	a4 <wc_Sha256Update+0xa4>
  14:	2000      	movs	r0, #0
  16:	e8bd 81f0 	ldmia.w	sp!, {r4, r5, r6, r7, r8, pc}
  1a:	6e00      	ldr	r0, [r0, #96]	@ 0x60
  1c:	283f      	cmp	r0, #63	@ 0x3f
  1e:	d844      	bhi.n	aa <wc_Sha256Update+0xaa>
  20:	6e63      	ldr	r3, [r4, #100]	@ 0x64
  22:	18d3      	adds	r3, r2, r3
  24:	6663      	str	r3, [r4, #100]	@ 0x64
  26:	bf22      	ittt	cs
  28:	6ea3      	ldrcs	r3, [r4, #104]	@ 0x68
  2a:	3301      	addcs	r3, #1
  2c:	66a3      	strcs	r3, [r4, #104]	@ 0x68
  2e:	f104 0720 	add.w	r7, r4, #32
  32:	b1d0      	cbz	r0, 6a <wc_Sha256Update+0x6a>
  34:	f1c0 0840 	rsb	r8, r0, #64	@ 0x40
  38:	4590      	cmp	r8, r2
  3a:	bf28      	it	cs
  3c:	4690      	movcs	r8, r2
  3e:	4642      	mov	r2, r8
  40:	4438      	add	r0, r7
  42:	f7ff fffe 	bl	0 <memcpy>
  46:	6e22      	ldr	r2, [r4, #96]	@ 0x60
  48:	4442      	add	r2, r8
  4a:	2a40      	cmp	r2, #64	@ 0x40
  4c:	6622      	str	r2, [r4, #96]	@ 0x60
  4e:	4446      	add	r6, r8
  50:	eba5 0508 	sub.w	r5, r5, r8
  54:	d109      	bne.n	6a <wc_Sha256Update+0x6a>
  56:	4638      	mov	r0, r7
  58:	4639      	mov	r1, r7
  5a:	f7ff fffe 	bl	0 <wc_Sha256Update>
  5e:	4620      	mov	r0, r4
  60:	f7ff fffe 	bl	0 <wc_Sha256Update>
  64:	2800      	cmp	r0, #0
  66:	d1d6      	bne.n	16 <wc_Sha256Update+0x16>
  68:	6620      	str	r0, [r4, #96]	@ 0x60
  6a:	2d3f      	cmp	r5, #63	@ 0x3f
  6c:	d808      	bhi.n	80 <wc_Sha256Update+0x80>
  6e:	2d00      	cmp	r5, #0
  70:	d0d0      	beq.n	14 <wc_Sha256Update+0x14>
  72:	462a      	mov	r2, r5
  74:	4631      	mov	r1, r6
  76:	4638      	mov	r0, r7
  78:	f7ff fffe 	bl	0 <memcpy>
  7c:	6625      	str	r5, [r4, #96]	@ 0x60
  7e:	e7c9      	b.n	14 <wc_Sha256Update+0x14>
  80:	4631      	mov	r1, r6
  82:	2240      	movs	r2, #64	@ 0x40
  84:	4638      	mov	r0, r7
  86:	f7ff fffe 	bl	0 <memcpy>
  8a:	4638      	mov	r0, r7
  8c:	2240      	movs	r2, #64	@ 0x40
  8e:	4639      	mov	r1, r7
  90:	f7ff fffe 	bl	0 <wc_Sha256Update>
  94:	4620      	mov	r0, r4
  96:	3640      	adds	r6, #64	@ 0x40
  98:	3d40      	subs	r5, #64	@ 0x40
  9a:	f7ff fffe 	bl	0 <wc_Sha256Update>
  9e:	2800      	cmp	r0, #0
  a0:	d0e3      	beq.n	6a <wc_Sha256Update+0x6a>
  a2:	e7b8      	b.n	16 <wc_Sha256Update+0x16>
  a4:	f06f 00ac 	mvn.w	r0, #172	@ 0xac
  a8:	e7b5      	b.n	16 <wc_Sha256Update+0x16>
  aa:	f06f 0083 	mvn.w	r0, #131	@ 0x83
  ae:	e7b2      	b.n	16 <wc_Sha256Update+0x16>

Disassembly of section .text.wc_Sha256FinalRaw:

00000000 <wc_Sha256FinalRaw>:
   0:	b510      	push	{r4, lr}
   2:	460c      	mov	r4, r1
   4:	b088      	sub	sp, #32
   6:	4601      	mov	r1, r0
   8:	b160      	cbz	r0, 24 <wc_Sha256FinalRaw+0x24>
   a:	b15c      	cbz	r4, 24 <wc_Sha256FinalRaw+0x24>
   c:	4668      	mov	r0, sp
   e:	2220      	movs	r2, #32
  10:	f7ff fffe 	bl	0 <wc_Sha256FinalRaw>
  14:	4601      	mov	r1, r0
  16:	2220      	movs	r2, #32
  18:	4620      	mov	r0, r4
  1a:	f7ff fffe 	bl	0 <memcpy>
  1e:	2000      	movs	r0, #0
  20:	b008      	add	sp, #32
  22:	bd10      	pop	{r4, pc}
  24:	f06f 00ac 	mvn.w	r0, #172	@ 0xac
  28:	e7fa      	b.n	20 <wc_Sha256FinalRaw+0x20>

Disassembly of section .text.wc_Sha256Final:

00000000 <wc_Sha256Final>:
   0:	b5f8      	push	{r3, r4, r5, r6, r7, lr}
   2:	460f      	mov	r7, r1
   4:	4604      	mov	r4, r0
   6:	2800      	cmp	r0, #0
   8:	d071      	beq.n	ee <wc_Sha256Final+0xee>
   a:	2900      	cmp	r1, #0
   c:	d06f      	beq.n	ee <wc_Sha256Final+0xee>
   e:	6e03      	ldr	r3, [r0, #96]	@ 0x60
  10:	2b3f      	cmp	r3, #63	@ 0x3f
  12:	d86f      	bhi.n	f4 <wc_Sha256Final+0xf4>
  14:	f100 0620 	add.w	r6, r0, #32
  18:	1c5a      	adds	r2, r3, #1
  1a:	6602      	str	r2, [r0, #96]	@ 0x60
  1c:	2280      	movs	r2, #128	@ 0x80
  1e:	54f2      	strb	r2, [r6, r3]
  20:	6e00      	ldr	r0, [r0, #96]	@ 0x60
  22:	2838      	cmp	r0, #56	@ 0x38
  24:	d913      	bls.n	4e <wc_Sha256Final+0x4e>
  26:	283f      	cmp	r0, #63	@ 0x3f
  28:	d805      	bhi.n	36 <wc_Sha256Final+0x36>
  2a:	f1c0 0240 	rsb	r2, r0, #64	@ 0x40
  2e:	2100      	movs	r1, #0
  30:	4430      	add	r0, r6
  32:	f7ff fffe 	bl	0 <memset>
  36:	2240      	movs	r2, #64	@ 0x40
  38:	4631      	mov	r1, r6
  3a:	4630      	mov	r0, r6
  3c:	f7ff fffe 	bl	0 <wc_Sha256Final>
  40:	4620      	mov	r0, r4
  42:	f7ff fffe 	bl	0 <wc_Sha256Final>
  46:	4605      	mov	r5, r0
  48:	2800      	cmp	r0, #0
  4a:	d14e      	bne.n	ea <wc_Sha256Final+0xea>
  4c:	6620      	str	r0, [r4, #96]	@ 0x60
  4e:	6e20      	ldr	r0, [r4, #96]	@ 0x60
  50:	2100      	movs	r1, #0
  52:	f1c0 0238 	rsb	r2, r0, #56	@ 0x38
  56:	4430      	add	r0, r6
  58:	f7ff fffe 	bl	0 <memset>
  5c:	e9d4 3119 	ldrd	r3, r1, [r4, #100]	@ 0x64
  60:	0f5a      	lsrs	r2, r3, #29
  62:	eb02 02c1 	add.w	r2, r2, r1, lsl #3
  66:	00db      	lsls	r3, r3, #3
  68:	6663      	str	r3, [r4, #100]	@ 0x64
  6a:	66a2      	str	r2, [r4, #104]	@ 0x68
  6c:	4631      	mov	r1, r6
  6e:	2238      	movs	r2, #56	@ 0x38
  70:	4630      	mov	r0, r6
  72:	f7ff fffe 	bl	0 <wc_Sha256Final>
  76:	2204      	movs	r2, #4
  78:	f104 0168 	add.w	r1, r4, #104	@ 0x68
  7c:	f104 0058 	add.w	r0, r4, #88	@ 0x58
  80:	f7ff fffe 	bl	0 <memcpy>
  84:	2204      	movs	r2, #4
  86:	f104 0164 	add.w	r1, r4, #100	@ 0x64
  8a:	f104 005c 	add.w	r0, r4, #92	@ 0x5c
  8e:	f7ff fffe 	bl	0 <memcpy>
  92:	4631      	mov	r1, r6
  94:	4620      	mov	r0, r4
  96:	f7ff fffe 	bl	0 <wc_Sha256Final>
  9a:	4605      	mov	r5, r0
  9c:	bb28      	cbnz	r0, ea <wc_Sha256Final+0xea>
  9e:	4621      	mov	r1, r4
  a0:	2220      	movs	r2, #32
  a2:	4620      	mov	r0, r4
  a4:	f7ff fffe 	bl	0 <wc_Sha256Final>
  a8:	2220      	movs	r2, #32
  aa:	4638      	mov	r0, r7
  ac:	f7ff fffe 	bl	0 <memcpy>
  b0:	2220      	movs	r2, #32
  b2:	4629      	mov	r1, r5
  b4:	4620      	mov	r0, r4
  b6:	f7ff fffe 	bl	0 <memset>
  ba:	4b10      	ldr	r3, [pc, #64]	@ (fc <wc_Sha256Final+0xfc>)
  bc:	4a10      	ldr	r2, [pc, #64]	@ (100 <wc_Sha256Final+0x100>)
  be:	4911      	ldr	r1, [pc, #68]	@ (104 <wc_Sha256Final+0x104>)
  c0:	4811      	ldr	r0, [pc, #68]	@ (108 <wc_Sha256Final+0x108>)
  c2:	66a5      	str	r5, [r4, #104]	@ 0x68
  c4:	e9c4 2300 	strd	r2, r3, [r4]
  c8:	4b10      	ldr	r3, [pc, #64]	@ (10c <wc_Sha256Final+0x10c>)
  ca:	e9c4 1302 	strd	r1, r3, [r4, #8]
  ce:	4b10      	ldr	r3, [pc, #64]	@ (110 <wc_Sha256Final+0x110>)
  d0:	e9c4 0304 	strd	r0, r3, [r4, #16]
  d4:	4b0f      	ldr	r3, [pc, #60]	@ (114 <wc_Sha256Final+0x114>)
  d6:	61a3      	str	r3, [r4, #24]
  d8:	f103 5374 	add.w	r3, r3, #1023410176	@ 0x3d000000
  dc:	f5a3 0323 	sub.w	r3, r3, #10682368	@ 0xa30000
  e0:	e9c4 5518 	strd	r5, r5, [r4, #96]	@ 0x60
  e4:	f6a3 4392 	subw	r3, r3, #3218	@ 0xc92
  e8:	61e3      	str	r3, [r4, #28]
  ea:	4628      	mov	r0, r5
  ec:	bdf8      	pop	{r3, r4, r5, r6, r7, pc}
  ee:	f06f 05ac 	mvn.w	r5, #172	@ 0xac
  f2:	e7fa      	b.n	ea <wc_Sha256Final+0xea>
  f4:	f06f 05bf 	mvn.w	r5, #191	@ 0xbf
  f8:	e7f7      	b.n	ea <wc_Sha256Final+0xea>
  fa:	bf00      	nop
  fc:	bb67ae85 	.word	0xbb67ae85
 100:	6a09e667 	.word	0x6a09e667
 104:	3c6ef372 	.word	0x3c6ef372
 108:	510e527f 	.word	0x510e527f
 10c:	a54ff53a 	.word	0xa54ff53a
 110:	9b05688c 	.word	0x9b05688c
 114:	1f83d9ab 	.word	0x1f83d9ab

Disassembly of section .text.wc_InitSha256:

00000000 <wc_InitSha256>:
   0:	f06f 0201 	mvn.w	r2, #1
   4:	2100      	movs	r1, #0
   6:	f7ff bffe 	b.w	0 <wc_InitSha256>

Disassembly of section .text.wc_Sha256Free:

00000000 <wc_Sha256Free>:
   0:	b138      	cbz	r0, 12 <wc_Sha256Free+0x12>
   2:	f100 0370 	add.w	r3, r0, #112	@ 0x70
   6:	2100      	movs	r1, #0
   8:	4602      	mov	r2, r0
   a:	3001      	adds	r0, #1
   c:	4298      	cmp	r0, r3
   e:	7011      	strb	r1, [r2, #0]
  10:	d1fa      	bne.n	8 <wc_Sha256Free+0x8>
  12:	4770      	bx	lr

Disassembly of section .text.wc_Sha256Copy:

00000000 <wc_Sha256Copy>:
   0:	b508      	push	{r3, lr}
   2:	460b      	mov	r3, r1
   4:	4601      	mov	r1, r0
   6:	b130      	cbz	r0, 16 <wc_Sha256Copy+0x16>
   8:	b12b      	cbz	r3, 16 <wc_Sha256Copy+0x16>
   a:	2270      	movs	r2, #112	@ 0x70
   c:	4618      	mov	r0, r3
   e:	f7ff fffe 	bl	0 <memcpy>
  12:	2000      	movs	r0, #0
  14:	bd08      	pop	{r3, pc}
  16:	f06f 00ac 	mvn.w	r0, #172	@ 0xac
  1a:	e7fb      	b.n	14 <wc_Sha256Copy+0x14>

Disassembly of section .text.wc_Sha256GetHash:

00000000 <wc_Sha256GetHash>:
   0:	b510      	push	{r4, lr}
   2:	460c      	mov	r4, r1
   4:	b09c      	sub	sp, #112	@ 0x70
   6:	b188      	cbz	r0, 2c <wc_Sha256GetHash+0x2c>
   8:	b181      	cbz	r1, 2c <wc_Sha256GetHash+0x2c>
   a:	4669      	mov	r1, sp
   c:	f7ff fffe 	bl	0 <wc_Sha256GetHash>
  10:	b950      	cbnz	r0, 28 <wc_Sha256GetHash+0x28>
  12:	4621      	mov	r1, r4
  14:	4668      	mov	r0, sp
  16:	f7ff fffe 	bl	0 <wc_Sha256GetHash>
  1a:	2300      	movs	r3, #0
  1c:	461a      	mov	r2, r3
  1e:	f80d 2003 	strb.w	r2, [sp, r3]
  22:	3301      	adds	r3, #1
  24:	2b70      	cmp	r3, #112	@ 0x70
  26:	d1fa      	bne.n	1e <wc_Sha256GetHash+0x1e>
  28:	b01c      	add	sp, #112	@ 0x70
  2a:	bd10      	pop	{r4, pc}
  2c:	f06f 00ac 	mvn.w	r0, #172	@ 0xac
  30:	e7fa      	b.n	28 <wc_Sha256GetHash+0x28>

sha512.o:     file format elf32-littlearm


sha3.o:     file format elf32-littlearm


asm.o:     file format elf32-littlearm


asn.o:     file format elf32-littlearm


Disassembly of section .text.BytePrecision:

00000000 <BytePrecision>:
   0:	0e03      	lsrs	r3, r0, #24
   2:	d107      	bne.n	14 <BytePrecision+0x14>
   4:	0c03      	lsrs	r3, r0, #16
   6:	d107      	bne.n	18 <BytePrecision+0x18>
   8:	0a03      	lsrs	r3, r0, #8
   a:	d107      	bne.n	1c <BytePrecision+0x1c>
   c:	2800      	cmp	r0, #0
   e:	bf18      	it	ne
  10:	2001      	movne	r0, #1
  12:	4770      	bx	lr
  14:	2004      	movs	r0, #4
  16:	4770      	bx	lr
  18:	2003      	movs	r0, #3
  1a:	4770      	bx	lr
  1c:	2002      	movs	r0, #2
  1e:	4770      	bx	lr

Disassembly of section .text.SizeASN_Num:

00000000 <SizeASN_Num>:
   0:	2908      	cmp	r1, #8
   2:	b510      	push	{r4, lr}
   4:	4603      	mov	r3, r0
   6:	d008      	beq.n	1a <SizeASN_Num+0x1a>
   8:	0a04      	lsrs	r4, r0, #8
   a:	d009      	beq.n	20 <SizeASN_Num+0x20>
   c:	08c9      	lsrs	r1, r1, #3
   e:	1c88      	adds	r0, r1, #2
  10:	2108      	movs	r1, #8
  12:	2a03      	cmp	r2, #3
  14:	d107      	bne.n	26 <SizeASN_Num+0x26>
  16:	3001      	adds	r0, #1
  18:	e00a      	b.n	30 <SizeASN_Num+0x30>
  1a:	2003      	movs	r0, #3
  1c:	2100      	movs	r1, #0
  1e:	e7f8      	b.n	12 <SizeASN_Num+0x12>
  20:	2003      	movs	r0, #3
  22:	4621      	mov	r1, r4
  24:	e7f5      	b.n	12 <SizeASN_Num+0x12>
  26:	2a02      	cmp	r2, #2
  28:	d102      	bne.n	30 <SizeASN_Num+0x30>
  2a:	40cb      	lsrs	r3, r1
  2c:	061b      	lsls	r3, r3, #24
  2e:	d4f2      	bmi.n	16 <SizeASN_Num+0x16>
  30:	bd10      	pop	{r4, pc}

Disassembly of section .text.SetASN_Num:

00000000 <SetASN_Num>:
   0:	2908      	cmp	r1, #8
   2:	b570      	push	{r4, r5, r6, lr}
   4:	d01c      	beq.n	40 <SetASN_Num+0x40>
   6:	0a04      	lsrs	r4, r0, #8
   8:	d01d      	beq.n	46 <SetASN_Num+0x46>
   a:	f3c1 01c7 	ubfx	r1, r1, #3, #8
   e:	2408      	movs	r4, #8
  10:	2b03      	cmp	r3, #3
  12:	fa20 f504 	lsr.w	r5, r0, r4
  16:	d11d      	bne.n	54 <SetASN_Num+0x54>
  18:	07eb      	lsls	r3, r5, #31
  1a:	d419      	bmi.n	50 <SetASN_Num+0x50>
  1c:	b2ed      	uxtb	r5, r5
  1e:	2301      	movs	r3, #1
  20:	fa45 f603 	asr.w	r6, r5, r3
  24:	07f6      	lsls	r6, r6, #31
  26:	d510      	bpl.n	4a <SetASN_Num+0x4a>
  28:	3101      	adds	r1, #1
  2a:	b2c9      	uxtb	r1, r1
  2c:	7093      	strb	r3, [r2, #2]
  2e:	2303      	movs	r3, #3
  30:	7051      	strb	r1, [r2, #1]
  32:	441a      	add	r2, r3
  34:	fa20 f304 	lsr.w	r3, r0, r4
  38:	f802 3b01 	strb.w	r3, [r2], #1
  3c:	b9a4      	cbnz	r4, 68 <SetASN_Num+0x68>
  3e:	bd70      	pop	{r4, r5, r6, pc}
  40:	2101      	movs	r1, #1
  42:	2400      	movs	r4, #0
  44:	e7e4      	b.n	10 <SetASN_Num+0x10>
  46:	2101      	movs	r1, #1
  48:	e7e2      	b.n	10 <SetASN_Num+0x10>
  4a:	3301      	adds	r3, #1
  4c:	b2db      	uxtb	r3, r3
  4e:	e7e7      	b.n	20 <SetASN_Num+0x20>
  50:	2300      	movs	r3, #0
  52:	e7e9      	b.n	28 <SetASN_Num+0x28>
  54:	2b02      	cmp	r3, #2
  56:	d105      	bne.n	64 <SetASN_Num+0x64>
  58:	062d      	lsls	r5, r5, #24
  5a:	d5e9      	bpl.n	30 <SetASN_Num+0x30>
  5c:	3101      	adds	r1, #1
  5e:	b2c9      	uxtb	r1, r1
  60:	2300      	movs	r3, #0
  62:	e7e3      	b.n	2c <SetASN_Num+0x2c>
  64:	2302      	movs	r3, #2
  66:	e7e3      	b.n	30 <SetASN_Num+0x30>
  68:	2400      	movs	r4, #0
  6a:	e7e3      	b.n	34 <SetASN_Num+0x34>

Disassembly of section .text.GetTime:

00000000 <GetTime>:
   0:	b5f0      	push	{r4, r5, r6, r7, lr}
   2:	6813      	ldr	r3, [r2, #0]
   4:	5ccd      	ldrb	r5, [r1, r3]
   6:	3d30      	subs	r5, #48	@ 0x30
   8:	b2ec      	uxtb	r4, r5
   a:	2c09      	cmp	r4, #9
   c:	d811      	bhi.n	32 <GetTime+0x32>
   e:	1c5e      	adds	r6, r3, #1
  10:	5d8c      	ldrb	r4, [r1, r6]
  12:	3c30      	subs	r4, #48	@ 0x30
  14:	2c09      	cmp	r4, #9
  16:	d80c      	bhi.n	32 <GetTime+0x32>
  18:	6804      	ldr	r4, [r0, #0]
  1a:	270a      	movs	r7, #10
  1c:	fb07 4405 	mla	r4, r7, r5, r4
  20:	6004      	str	r4, [r0, #0]
  22:	5d89      	ldrb	r1, [r1, r6]
  24:	3930      	subs	r1, #48	@ 0x30
  26:	4421      	add	r1, r4
  28:	3302      	adds	r3, #2
  2a:	6001      	str	r1, [r0, #0]
  2c:	6013      	str	r3, [r2, #0]
  2e:	2000      	movs	r0, #0
  30:	bdf0      	pop	{r4, r5, r6, r7, pc}
  32:	f06f 008b 	mvn.w	r0, #139	@ 0x8b
  36:	e7fb      	b.n	30 <GetTime+0x30>

Disassembly of section .text.SetASNLength:

00000000 <SetASNLength>:
   0:	287f      	cmp	r0, #127	@ 0x7f
   2:	b510      	push	{r4, lr}
   4:	4602      	mov	r2, r0
   6:	d802      	bhi.n	e <SetASNLength+0xe>
   8:	7008      	strb	r0, [r1, #0]
   a:	2001      	movs	r0, #1
   c:	bd10      	pop	{r4, pc}
   e:	f7ff fffe 	bl	0 <SetASNLength>
  12:	f060 037f 	orn	r3, r0, #127	@ 0x7f
  16:	700b      	strb	r3, [r1, #0]
  18:	4603      	mov	r3, r0
  1a:	b90b      	cbnz	r3, 20 <SetASNLength+0x20>
  1c:	3001      	adds	r0, #1
  1e:	e7f5      	b.n	c <SetASNLength+0xc>
  20:	3b01      	subs	r3, #1
  22:	00dc      	lsls	r4, r3, #3
  24:	fa22 f404 	lsr.w	r4, r2, r4
  28:	f801 4f01 	strb.w	r4, [r1, #1]!
  2c:	e7f5      	b.n	1a <SetASNLength+0x1a>

Disassembly of section .text.SizeASN_Items:

00000000 <SizeASN_Items>:
   0:	e92d 4ff8 	stmdb	sp!, {r3, r4, r5, r6, r7, r8, r9, sl, fp, lr}
   4:	4699      	mov	r9, r3
   6:	2314      	movs	r3, #20
   8:	fb03 1102 	mla	r1, r3, r2, r1
   c:	4607      	mov	r7, r0
   e:	4615      	mov	r5, r2
  10:	f102 38ff 	add.w	r8, r2, #4294967295	@ 0xffffffff
  14:	f1a1 0a14 	sub.w	sl, r1, #20
  18:	eb00 0482 	add.w	r4, r0, r2, lsl #2
  1c:	2600      	movs	r6, #0
  1e:	f1b8 0f00 	cmp.w	r8, #0
  22:	da04      	bge.n	2e <SizeASN_Items+0x2e>
  24:	f8c9 6000 	str.w	r6, [r9]
  28:	2000      	movs	r0, #0
  2a:	e8bd 8ff8 	ldmia.w	sp!, {r3, r4, r5, r6, r7, r8, r9, sl, fp, pc}
  2e:	f89a 3011 	ldrb.w	r3, [sl, #17]
  32:	b9ab      	cbnz	r3, 60 <SizeASN_Items+0x60>
  34:	f89a 3010 	ldrb.w	r3, [sl, #16]
  38:	2b08      	cmp	r3, #8
  3a:	f200 80af 	bhi.w	19c <SizeASN_Items+0x19c>
  3e:	e8df f003 	tbb	[pc, r3]
  42:	0538      	.short	0x0538
  44:	adadad15 	.word	0xadadad15
  48:	35ad      	.short	0x35ad
  4a:	1b          	.byte	0x1b
  4b:	00          	.byte	0x00
  4c:	f814 2c03 	ldrb.w	r2, [r4, #-3]
  50:	f89a 0008 	ldrb.w	r0, [sl, #8]
  54:	2108      	movs	r1, #8
  56:	f7ff fffe 	bl	0 <SizeASN_Items>
  5a:	f8ca 0004 	str.w	r0, [sl, #4]
  5e:	4406      	add	r6, r0
  60:	f84a 6914 	str.w	r6, [sl], #-20
  64:	f108 38ff 	add.w	r8, r8, #4294967295	@ 0xffffffff
  68:	3c04      	subs	r4, #4
  6a:	e7d8      	b.n	1e <SizeASN_Items+0x1e>
  6c:	f814 2c03 	ldrb.w	r2, [r4, #-3]
  70:	f8ba 0008 	ldrh.w	r0, [sl, #8]
  74:	2110      	movs	r1, #16
  76:	e7ee      	b.n	56 <SizeASN_Items+0x56>
  78:	f8da 0008 	ldr.w	r0, [sl, #8]
  7c:	f7ff fffe 	bl	0 <sp_unsigned_bin_size>
  80:	4683      	mov	fp, r0
  82:	f8da 0008 	ldr.w	r0, [sl, #8]
  86:	f7ff fffe 	bl	0 <sp_leading_bit>
  8a:	2800      	cmp	r0, #0
  8c:	bf18      	it	ne
  8e:	f10b 0b01 	addne.w	fp, fp, #1
  92:	f1bb 0f7f 	cmp.w	fp, #127	@ 0x7f
  96:	d907      	bls.n	a8 <SizeASN_Items+0xa8>
  98:	4658      	mov	r0, fp
  9a:	f7ff fffe 	bl	0 <SizeASN_Items>
  9e:	1c43      	adds	r3, r0, #1
  a0:	f10b 0001 	add.w	r0, fp, #1
  a4:	4418      	add	r0, r3
  a6:	e7d8      	b.n	5a <SizeASN_Items+0x5a>
  a8:	2301      	movs	r3, #1
  aa:	e7f9      	b.n	a0 <SizeASN_Items+0xa0>
  ac:	f8da 000c 	ldr.w	r0, [sl, #12]
  b0:	e7d3      	b.n	5a <SizeASN_Items+0x5a>
  b2:	f814 bc02 	ldrb.w	fp, [r4, #-2]
  b6:	f01b 0b02 	ands.w	fp, fp, #2
  ba:	d03d      	beq.n	138 <SizeASN_Items+0x138>
  bc:	f8da 3008 	ldr.w	r3, [sl, #8]
  c0:	f108 0101 	add.w	r1, r8, #1
  c4:	2b00      	cmp	r3, #0
  c6:	d160      	bne.n	18a <SizeASN_Items+0x18a>
  c8:	f8ca 300c 	str.w	r3, [sl, #12]
  cc:	46d4      	mov	ip, sl
  ce:	428d      	cmp	r5, r1
  d0:	dd32      	ble.n	138 <SizeASN_Items+0x138>
  d2:	f817 3021 	ldrb.w	r3, [r7, r1, lsl #2]
  d6:	f814 2c04 	ldrb.w	r2, [r4, #-4]
  da:	4293      	cmp	r3, r2
  dc:	d92c      	bls.n	138 <SizeASN_Items+0x138>
  de:	3b01      	subs	r3, #1
  e0:	4293      	cmp	r3, r2
  e2:	d117      	bne.n	114 <SizeASN_Items+0x114>
  e4:	f8da 200c 	ldr.w	r2, [sl, #12]
  e8:	f8dc 3018 	ldr.w	r3, [ip, #24]
  ec:	4413      	add	r3, r2
  ee:	eb07 0281 	add.w	r2, r7, r1, lsl #2
  f2:	f8ca 300c 	str.w	r3, [sl, #12]
  f6:	7892      	ldrb	r2, [r2, #2]
  f8:	0792      	lsls	r2, r2, #30
  fa:	d50b      	bpl.n	114 <SizeASN_Items+0x114>
  fc:	f8dc 001c 	ldr.w	r0, [ip, #28]
 100:	b940      	cbnz	r0, 114 <SizeASN_Items+0x114>
 102:	f89c 2024 	ldrb.w	r2, [ip, #36]	@ 0x24
 106:	2a07      	cmp	r2, #7
 108:	bf1e      	ittt	ne
 10a:	f8dc 2020 	ldrne.w	r2, [ip, #32]
 10e:	18d2      	addne	r2, r2, r3
 110:	f8ca 200c 	strne.w	r2, [sl, #12]
 114:	3101      	adds	r1, #1
 116:	f10c 0c14 	add.w	ip, ip, #20
 11a:	e7d8      	b.n	ce <SizeASN_Items+0xce>
 11c:	f817 c021 	ldrb.w	ip, [r7, r1, lsl #2]
 120:	f814 3c04 	ldrb.w	r3, [r4, #-4]
 124:	459c      	cmp	ip, r3
 126:	f102 0214 	add.w	r2, r2, #20
 12a:	d905      	bls.n	138 <SizeASN_Items+0x138>
 12c:	6853      	ldr	r3, [r2, #4]
 12e:	7450      	strb	r0, [r2, #17]
 130:	1af6      	subs	r6, r6, r3
 132:	3101      	adds	r1, #1
 134:	42a9      	cmp	r1, r5
 136:	dbf1      	blt.n	11c <SizeASN_Items+0x11c>
 138:	f814 3c03 	ldrb.w	r3, [r4, #-3]
 13c:	2b01      	cmp	r3, #1
 13e:	d029      	beq.n	194 <SizeASN_Items+0x194>
 140:	2b03      	cmp	r3, #3
 142:	f8da 200c 	ldr.w	r2, [sl, #12]
 146:	d008      	beq.n	15a <SizeASN_Items+0x15a>
 148:	2b02      	cmp	r3, #2
 14a:	d121      	bne.n	190 <SizeASN_Items+0x190>
 14c:	f8da 1008 	ldr.w	r1, [sl, #8]
 150:	b149      	cbz	r1, 166 <SizeASN_Items+0x166>
 152:	f991 3000 	ldrsb.w	r3, [r1]
 156:	2b00      	cmp	r3, #0
 158:	da1a      	bge.n	190 <SizeASN_Items+0x190>
 15a:	f1bb 0100 	subs.w	r1, fp, #0
 15e:	f102 0201 	add.w	r2, r2, #1
 162:	bf18      	it	ne
 164:	2101      	movne	r1, #1
 166:	2a7f      	cmp	r2, #127	@ 0x7f
 168:	d916      	bls.n	198 <SizeASN_Items+0x198>
 16a:	4610      	mov	r0, r2
 16c:	f7ff fffe 	bl	0 <SizeASN_Items>
 170:	3001      	adds	r0, #1
 172:	4408      	add	r0, r1
 174:	3001      	adds	r0, #1
 176:	f1bb 0f00 	cmp.w	fp, #0
 17a:	d004      	beq.n	186 <SizeASN_Items+0x186>
 17c:	f8da 3008 	ldr.w	r3, [sl, #8]
 180:	2b00      	cmp	r3, #0
 182:	f43f af6a 	beq.w	5a <SizeASN_Items+0x5a>
 186:	4410      	add	r0, r2
 188:	e767      	b.n	5a <SizeASN_Items+0x5a>
 18a:	4652      	mov	r2, sl
 18c:	2001      	movs	r0, #1
 18e:	e7d1      	b.n	134 <SizeASN_Items+0x134>
 190:	2100      	movs	r1, #0
 192:	e7e8      	b.n	166 <SizeASN_Items+0x166>
 194:	461a      	mov	r2, r3
 196:	2100      	movs	r1, #0
 198:	2001      	movs	r0, #1
 19a:	e7ea      	b.n	172 <SizeASN_Items+0x172>
 19c:	2000      	movs	r0, #0
 19e:	e75c      	b.n	5a <SizeASN_Items+0x5a>

Disassembly of section .text.SetASN_Items:

00000000 <SetASN_Items>:
   0:	e92d 4ff7 	stmdb	sp!, {r0, r1, r2, r4, r5, r6, r7, r8, r9, sl, fp, lr}
   4:	680f      	ldr	r7, [r1, #0]
   6:	460c      	mov	r4, r1
   8:	4691      	mov	r9, r2
   a:	4698      	mov	r8, r3
   c:	4606      	mov	r6, r0
   e:	f04f 0a00 	mov.w	sl, #0
  12:	45ca      	cmp	sl, r9
  14:	db03      	blt.n	1e <SetASN_Items+0x1e>
  16:	4638      	mov	r0, r7
  18:	b003      	add	sp, #12
  1a:	e8bd 8ff0 	ldmia.w	sp!, {r4, r5, r6, r7, r8, r9, sl, fp, pc}
  1e:	7c60      	ldrb	r0, [r4, #17]
  20:	b9f0      	cbnz	r0, 60 <SetASN_Items+0x60>
  22:	6822      	ldr	r2, [r4, #0]
  24:	7c23      	ldrb	r3, [r4, #16]
  26:	1aba      	subs	r2, r7, r2
  28:	2b07      	cmp	r3, #7
  2a:	eb08 0502 	add.w	r5, r8, r2
  2e:	d046      	beq.n	be <SetASN_Items+0xbe>
  30:	78b3      	ldrb	r3, [r6, #2]
  32:	7871      	ldrb	r1, [r6, #1]
  34:	015b      	lsls	r3, r3, #5
  36:	f003 0320 	and.w	r3, r3, #32
  3a:	430b      	orrs	r3, r1
  3c:	f808 3002 	strb.w	r3, [r8, r2]
  40:	7c23      	ldrb	r3, [r4, #16]
  42:	2b08      	cmp	r3, #8
  44:	d80c      	bhi.n	60 <SetASN_Items+0x60>
  46:	e8df f003 	tbb	[pc, r3]
  4a:	0543      	.short	0x0543
  4c:	0b0b0b10 	.word	0x0b0b0b10
  50:	390b      	.short	0x390b
  52:	15          	.byte	0x15
  53:	00          	.byte	0x00
  54:	7873      	ldrb	r3, [r6, #1]
  56:	7a20      	ldrb	r0, [r4, #8]
  58:	462a      	mov	r2, r5
  5a:	2108      	movs	r1, #8
  5c:	f7ff fffe 	bl	0 <SetASN_Items>
  60:	f10a 0a01 	add.w	sl, sl, #1
  64:	3604      	adds	r6, #4
  66:	3414      	adds	r4, #20
  68:	e7d3      	b.n	12 <SetASN_Items+0x12>
  6a:	7873      	ldrb	r3, [r6, #1]
  6c:	8920      	ldrh	r0, [r4, #8]
  6e:	462a      	mov	r2, r5
  70:	2110      	movs	r1, #16
  72:	e7f3      	b.n	5c <SetASN_Items+0x5c>
  74:	68a0      	ldr	r0, [r4, #8]
  76:	f7ff fffe 	bl	0 <sp_unsigned_bin_size>
  7a:	4683      	mov	fp, r0
  7c:	68a0      	ldr	r0, [r4, #8]
  7e:	f7ff fffe 	bl	0 <sp_leading_bit>
  82:	1c69      	adds	r1, r5, #1
  84:	2800      	cmp	r0, #0
  86:	bf0c      	ite	eq
  88:	4658      	moveq	r0, fp
  8a:	f10b 0001 	addne.w	r0, fp, #1
  8e:	f7ff fffe 	bl	0 <SetASN_Items>
  92:	1c41      	adds	r1, r0, #1
  94:	4683      	mov	fp, r0
  96:	68a0      	ldr	r0, [r4, #8]
  98:	9101      	str	r1, [sp, #4]
  9a:	f7ff fffe 	bl	0 <sp_leading_bit>
  9e:	9901      	ldr	r1, [sp, #4]
  a0:	b118      	cbz	r0, aa <SetASN_Items+0xaa>
  a2:	2300      	movs	r3, #0
  a4:	546b      	strb	r3, [r5, r1]
  a6:	f10b 0102 	add.w	r1, fp, #2
  aa:	68a0      	ldr	r0, [r4, #8]
  ac:	4429      	add	r1, r5
  ae:	f7ff fffe 	bl	0 <sp_to_unsigned_bin>
  b2:	2800      	cmp	r0, #0
  b4:	d0d4      	beq.n	60 <SetASN_Items+0x60>
  b6:	f06f 0070 	mvn.w	r0, #112	@ 0x70
  ba:	e7ad      	b.n	18 <SetASN_Items+0x18>
  bc:	2001      	movs	r0, #1
  be:	68a1      	ldr	r1, [r4, #8]
  c0:	4428      	add	r0, r5
  c2:	b909      	cbnz	r1, c8 <SetASN_Items+0xc8>
  c4:	60a0      	str	r0, [r4, #8]
  c6:	e7cb      	b.n	60 <SetASN_Items+0x60>
  c8:	68e2      	ldr	r2, [r4, #12]
  ca:	f7ff fffe 	bl	0 <memcpy>
  ce:	e7c7      	b.n	60 <SetASN_Items+0x60>
  d0:	7873      	ldrb	r3, [r6, #1]
  d2:	2b01      	cmp	r3, #1
  d4:	d107      	bne.n	e6 <SetASN_Items+0xe6>
  d6:	706b      	strb	r3, [r5, #1]
  d8:	7a23      	ldrb	r3, [r4, #8]
  da:	3b00      	subs	r3, #0
  dc:	bf18      	it	ne
  de:	2301      	movne	r3, #1
  e0:	425b      	negs	r3, r3
  e2:	70ab      	strb	r3, [r5, #2]
  e4:	e7bc      	b.n	60 <SetASN_Items+0x60>
  e6:	2b05      	cmp	r3, #5
  e8:	d102      	bne.n	f0 <SetASN_Items+0xf0>
  ea:	2300      	movs	r3, #0
  ec:	706b      	strb	r3, [r5, #1]
  ee:	e7b7      	b.n	60 <SetASN_Items+0x60>
  f0:	2b03      	cmp	r3, #3
  f2:	68e0      	ldr	r0, [r4, #12]
  f4:	d007      	beq.n	106 <SetASN_Items+0x106>
  f6:	2b02      	cmp	r3, #2
  f8:	d106      	bne.n	108 <SetASN_Items+0x108>
  fa:	68a3      	ldr	r3, [r4, #8]
  fc:	b123      	cbz	r3, 108 <SetASN_Items+0x108>
  fe:	f993 3000 	ldrsb.w	r3, [r3]
 102:	2b00      	cmp	r3, #0
 104:	da00      	bge.n	108 <SetASN_Items+0x108>
 106:	3001      	adds	r0, #1
 108:	1c69      	adds	r1, r5, #1
 10a:	f7ff fffe 	bl	0 <SetASN_Items>
 10e:	7872      	ldrb	r2, [r6, #1]
 110:	2a03      	cmp	r2, #3
 112:	f100 0301 	add.w	r3, r0, #1
 116:	d007      	beq.n	128 <SetASN_Items+0x128>
 118:	2a02      	cmp	r2, #2
 11a:	d108      	bne.n	12e <SetASN_Items+0x12e>
 11c:	68a2      	ldr	r2, [r4, #8]
 11e:	b132      	cbz	r2, 12e <SetASN_Items+0x12e>
 120:	f992 2000 	ldrsb.w	r2, [r2]
 124:	2a00      	cmp	r2, #0
 126:	da02      	bge.n	12e <SetASN_Items+0x12e>
 128:	2200      	movs	r2, #0
 12a:	54ea      	strb	r2, [r5, r3]
 12c:	1c83      	adds	r3, r0, #2
 12e:	68a1      	ldr	r1, [r4, #8]
 130:	18e8      	adds	r0, r5, r3
 132:	2900      	cmp	r1, #0
 134:	d0c6      	beq.n	c4 <SetASN_Items+0xc4>
 136:	68e2      	ldr	r2, [r4, #12]
 138:	f7ff fffe 	bl	0 <memmove>
 13c:	e790      	b.n	60 <SetASN_Items+0x60>

Disassembly of section .text.GetLength_ex:

00000000 <GetLength_ex>:
   0:	b5f0      	push	{r4, r5, r6, r7, lr}
   2:	680e      	ldr	r6, [r1, #0]
   4:	1c75      	adds	r5, r6, #1
   6:	2400      	movs	r4, #0
   8:	429d      	cmp	r5, r3
   a:	4607      	mov	r7, r0
   c:	6014      	str	r4, [r2, #0]
   e:	d831      	bhi.n	74 <GetLength_ex+0x74>
  10:	57bf      	ldrsb	r7, [r7, r6]
  12:	42a7      	cmp	r7, r4
  14:	eb00 0c06 	add.w	ip, r0, r6
  18:	5d80      	ldrb	r0, [r0, r6]
  1a:	da18      	bge.n	4e <GetLength_ex+0x4e>
  1c:	f000 077f 	and.w	r7, r0, #127	@ 0x7f
  20:	2880      	cmp	r0, #128	@ 0x80
  22:	46be      	mov	lr, r7
  24:	d007      	beq.n	36 <GetLength_ex+0x36>
  26:	2f01      	cmp	r7, #1
  28:	d01a      	beq.n	60 <GetLength_ex+0x60>
  2a:	2f04      	cmp	r7, #4
  2c:	d81f      	bhi.n	6e <GetLength_ex+0x6e>
  2e:	1e78      	subs	r0, r7, #1
  30:	00c0      	lsls	r0, r0, #3
  32:	2401      	movs	r4, #1
  34:	4084      	lsls	r4, r0
  36:	443d      	add	r5, r7
  38:	429d      	cmp	r5, r3
  3a:	d81b      	bhi.n	74 <GetLength_ex+0x74>
  3c:	4667      	mov	r7, ip
  3e:	2000      	movs	r0, #0
  40:	f1be 0e01 	subs.w	lr, lr, #1
  44:	d20e      	bcs.n	64 <GetLength_ex+0x64>
  46:	2800      	cmp	r0, #0
  48:	db11      	blt.n	6e <GetLength_ex+0x6e>
  4a:	42a0      	cmp	r0, r4
  4c:	db0f      	blt.n	6e <GetLength_ex+0x6e>
  4e:	9c05      	ldr	r4, [sp, #20]
  50:	b114      	cbz	r4, 58 <GetLength_ex+0x58>
  52:	1944      	adds	r4, r0, r5
  54:	429c      	cmp	r4, r3
  56:	d80d      	bhi.n	74 <GetLength_ex+0x74>
  58:	600d      	str	r5, [r1, #0]
  5a:	b100      	cbz	r0, 5e <GetLength_ex+0x5e>
  5c:	6010      	str	r0, [r2, #0]
  5e:	bdf0      	pop	{r4, r5, r6, r7, pc}
  60:	2480      	movs	r4, #128	@ 0x80
  62:	e7e8      	b.n	36 <GetLength_ex+0x36>
  64:	f817 cf01 	ldrb.w	ip, [r7, #1]!
  68:	ea4c 2000 	orr.w	r0, ip, r0, lsl #8
  6c:	e7e8      	b.n	40 <GetLength_ex+0x40>
  6e:	f06f 008b 	mvn.w	r0, #139	@ 0x8b
  72:	e7f4      	b.n	5e <GetLength_ex+0x5e>
  74:	f06f 0083 	mvn.w	r0, #131	@ 0x83
  78:	e7f1      	b.n	5e <GetLength_ex+0x5e>

Disassembly of section .text.GetLength:

00000000 <GetLength>:
   0:	b513      	push	{r0, r1, r4, lr}
   2:	2401      	movs	r4, #1
   4:	9400      	str	r4, [sp, #0]
   6:	f7ff fffe 	bl	0 <GetLength>
   a:	b002      	add	sp, #8
   c:	bd10      	pop	{r4, pc}

Disassembly of section .text.GetASNTag:

00000000 <GetASNTag>:
   0:	b530      	push	{r4, r5, lr}
   2:	b152      	cbz	r2, 1a <GetASNTag+0x1a>
   4:	b149      	cbz	r1, 1a <GetASNTag+0x1a>
   6:	b140      	cbz	r0, 1a <GetASNTag+0x1a>
   8:	680d      	ldr	r5, [r1, #0]
   a:	1c6c      	adds	r4, r5, #1
   c:	429c      	cmp	r4, r3
   e:	d807      	bhi.n	20 <GetASNTag+0x20>
  10:	5d43      	ldrb	r3, [r0, r5]
  12:	7013      	strb	r3, [r2, #0]
  14:	2000      	movs	r0, #0
  16:	600c      	str	r4, [r1, #0]
  18:	bd30      	pop	{r4, r5, pc}
  1a:	f06f 00ac 	mvn.w	r0, #172	@ 0xac
  1e:	e7fb      	b.n	18 <GetASNTag+0x18>
  20:	f06f 0083 	mvn.w	r0, #131	@ 0x83
  24:	e7f8      	b.n	18 <GetASNTag+0x18>

Disassembly of section .text.GetASNHeader_ex:

00000000 <GetASNHeader_ex>:
   0:	e92d 41f0 	stmdb	sp!, {r4, r5, r6, r7, r8, lr}
   4:	b086      	sub	sp, #24
   6:	461d      	mov	r5, r3
   8:	f8dd 8030 	ldr.w	r8, [sp, #48]	@ 0x30
   c:	6813      	ldr	r3, [r2, #0]
   e:	9304      	str	r3, [sp, #16]
  10:	460f      	mov	r7, r1
  12:	4614      	mov	r4, r2
  14:	4643      	mov	r3, r8
  16:	f10d 020f 	add.w	r2, sp, #15
  1a:	a904      	add	r1, sp, #16
  1c:	4606      	mov	r6, r0
  1e:	f7ff fffe 	bl	0 <GetASNHeader_ex>
  22:	b120      	cbz	r0, 2e <GetASNHeader_ex+0x2e>
  24:	f06f 008b 	mvn.w	r0, #139	@ 0x8b
  28:	b006      	add	sp, #24
  2a:	e8bd 81f0 	ldmia.w	sp!, {r4, r5, r6, r7, r8, pc}
  2e:	f89d 300f 	ldrb.w	r3, [sp, #15]
  32:	42bb      	cmp	r3, r7
  34:	d1f6      	bne.n	24 <GetASNHeader_ex+0x24>
  36:	9b0d      	ldr	r3, [sp, #52]	@ 0x34
  38:	9300      	str	r3, [sp, #0]
  3a:	aa05      	add	r2, sp, #20
  3c:	4643      	mov	r3, r8
  3e:	4630      	mov	r0, r6
  40:	f7ff fffe 	bl	0 <GetASNHeader_ex>
  44:	2800      	cmp	r0, #0
  46:	dbed      	blt.n	24 <GetASNHeader_ex+0x24>
  48:	9805      	ldr	r0, [sp, #20]
  4a:	9b04      	ldr	r3, [sp, #16]
  4c:	6028      	str	r0, [r5, #0]
  4e:	6023      	str	r3, [r4, #0]
  50:	e7ea      	b.n	28 <GetASNHeader_ex+0x28>

Disassembly of section .text.GetSequence:

00000000 <GetSequence>:
   0:	b513      	push	{r0, r1, r4, lr}
   2:	2401      	movs	r4, #1
   4:	e9cd 3400 	strd	r3, r4, [sp]
   8:	4613      	mov	r3, r2
   a:	460a      	mov	r2, r1
   c:	2130      	movs	r1, #48	@ 0x30
   e:	f7ff fffe 	bl	0 <GetSequence>
  12:	b002      	add	sp, #8
  14:	bd10      	pop	{r4, pc}

Disassembly of section .text.GetSequence_ex:

00000000 <GetSequence_ex>:
   0:	b513      	push	{r0, r1, r4, lr}
   2:	9c04      	ldr	r4, [sp, #16]
   4:	e9cd 3400 	strd	r3, r4, [sp]
   8:	4613      	mov	r3, r2
   a:	460a      	mov	r2, r1
   c:	2130      	movs	r1, #48	@ 0x30
   e:	f7ff fffe 	bl	0 <GetSequence_ex>
  12:	b002      	add	sp, #8
  14:	bd10      	pop	{r4, pc}

Disassembly of section .text.GetSet:

00000000 <GetSet>:
   0:	b513      	push	{r0, r1, r4, lr}
   2:	2401      	movs	r4, #1
   4:	e9cd 3400 	strd	r3, r4, [sp]
   8:	4613      	mov	r3, r2
   a:	460a      	mov	r2, r1
   c:	2131      	movs	r1, #49	@ 0x31
   e:	f7ff fffe 	bl	0 <GetSet>
  12:	b002      	add	sp, #8
  14:	bd10      	pop	{r4, pc}

Disassembly of section .text.GetSet_ex:

00000000 <GetSet_ex>:
   0:	b513      	push	{r0, r1, r4, lr}
   2:	9c04      	ldr	r4, [sp, #16]
   4:	e9cd 3400 	strd	r3, r4, [sp]
   8:	4613      	mov	r3, r2
   a:	460a      	mov	r2, r1
   c:	2131      	movs	r1, #49	@ 0x31
   e:	f7ff fffe 	bl	0 <GetSet_ex>
  12:	b002      	add	sp, #8
  14:	bd10      	pop	{r4, pc}

Disassembly of section .text.GetOctetString:

00000000 <GetOctetString>:
   0:	b513      	push	{r0, r1, r4, lr}
   2:	2401      	movs	r4, #1
   4:	e9cd 3400 	strd	r3, r4, [sp]
   8:	4613      	mov	r3, r2
   a:	460a      	mov	r2, r1
   c:	2104      	movs	r1, #4
   e:	f7ff fffe 	bl	0 <GetOctetString>
  12:	b002      	add	sp, #8
  14:	bd10      	pop	{r4, pc}

Disassembly of section .text.GetASNInt:

00000000 <GetASNInt>:
   0:	b5f7      	push	{r0, r1, r2, r4, r5, r6, r7, lr}
   2:	4616      	mov	r6, r2
   4:	2201      	movs	r2, #1
   6:	e9cd 3200 	strd	r3, r2, [sp]
   a:	460d      	mov	r5, r1
   c:	460a      	mov	r2, r1
   e:	4633      	mov	r3, r6
  10:	2102      	movs	r1, #2
  12:	4607      	mov	r7, r0
  14:	f7ff fffe 	bl	0 <GetASNInt>
  18:	2800      	cmp	r0, #0
  1a:	db0f      	blt.n	3c <GetASNInt+0x3c>
  1c:	6832      	ldr	r2, [r6, #0]
  1e:	2a00      	cmp	r2, #0
  20:	dd1a      	ble.n	58 <GetASNInt+0x58>
  22:	682c      	ldr	r4, [r5, #0]
  24:	2a01      	cmp	r2, #1
  26:	5d3b      	ldrb	r3, [r7, r4]
  28:	d016      	beq.n	58 <GetASNInt+0x58>
  2a:	2bff      	cmp	r3, #255	@ 0xff
  2c:	d108      	bne.n	40 <GetASNInt+0x40>
  2e:	443c      	add	r4, r7
  30:	f994 3001 	ldrsb.w	r3, [r4, #1]
  34:	2b00      	cmp	r3, #0
  36:	da0f      	bge.n	58 <GetASNInt+0x58>
  38:	f06f 008b 	mvn.w	r0, #139	@ 0x8b
  3c:	b003      	add	sp, #12
  3e:	bdf0      	pop	{r4, r5, r6, r7, pc}
  40:	b953      	cbnz	r3, 58 <GetASNInt+0x58>
  42:	3401      	adds	r4, #1
  44:	602c      	str	r4, [r5, #0]
  46:	6833      	ldr	r3, [r6, #0]
  48:	3b01      	subs	r3, #1
  4a:	2b00      	cmp	r3, #0
  4c:	6033      	str	r3, [r6, #0]
  4e:	dd03      	ble.n	58 <GetASNInt+0x58>
  50:	682b      	ldr	r3, [r5, #0]
  52:	56fb      	ldrsb	r3, [r7, r3]
  54:	2b00      	cmp	r3, #0
  56:	daef      	bge.n	38 <GetASNInt+0x38>
  58:	2000      	movs	r0, #0
  5a:	e7ef      	b.n	3c <GetASNInt+0x3c>

Disassembly of section .text.GetSigName:

00000000 <GetSigName>:
   0:	f46f 7322 	mvn.w	r3, #648	@ 0x288
   4:	4418      	add	r0, r3
   6:	2806      	cmp	r0, #6
   8:	bf9a      	itte	ls
   a:	4b02      	ldrls	r3, [pc, #8]	@ (14 <GetSigName+0x14>)
   c:	f853 0020 	ldrls.w	r0, [r3, r0, lsl #2]
  10:	4801      	ldrhi	r0, [pc, #4]	@ (18 <GetSigName+0x18>)
  12:	4770      	bx	lr
	...

Disassembly of section .text.OidFromId:

00000000 <OidFromId>:
   0:	2300      	movs	r3, #0
   2:	6013      	str	r3, [r2, #0]
   4:	290f      	cmp	r1, #15
   6:	d816      	bhi.n	36 <OidFromId+0x36>
   8:	e8df f011 	tbh	[pc, r1, lsl #1]
   c:	001f0010 	.word	0x001f0010
  10:	00150037 	.word	0x00150037
  14:	0015004f 	.word	0x0015004f
  18:	00e5007a 	.word	0x00e5007a
  1c:	00f900f2 	.word	0x00f900f2
  20:	013d0100 	.word	0x013d0100
  24:	01b80150 	.word	0x01b80150
  28:	01c60145 	.word	0x01c60145
  2c:	2858      	cmp	r0, #88	@ 0x58
  2e:	d004      	beq.n	3a <OidFromId+0x3a>
  30:	f5b0 7fcf 	cmp.w	r0, #414	@ 0x19e
  34:	d005      	beq.n	42 <OidFromId+0x42>
  36:	2000      	movs	r0, #0
  38:	4770      	bx	lr
  3a:	2305      	movs	r3, #5
  3c:	48a4      	ldr	r0, [pc, #656]	@ (2d0 <OidFromId+0x2d0>)
  3e:	6013      	str	r3, [r2, #0]
  40:	4770      	bx	lr
  42:	2309      	movs	r3, #9
  44:	48a3      	ldr	r0, [pc, #652]	@ (2d4 <OidFromId+0x2d4>)
  46:	6013      	str	r3, [r2, #0]
  48:	4770      	bx	lr
  4a:	f240 238e 	movw	r3, #654	@ 0x28e
  4e:	4298      	cmp	r0, r3
  50:	d00f      	beq.n	72 <OidFromId+0x72>
  52:	f240 238f 	movw	r3, #655	@ 0x28f
  56:	4298      	cmp	r0, r3
  58:	d007      	beq.n	6a <OidFromId+0x6a>
  5a:	f240 2389 	movw	r3, #649	@ 0x289
  5e:	4298      	cmp	r0, r3
  60:	d1e9      	bne.n	36 <OidFromId+0x36>
  62:	2309      	movs	r3, #9
  64:	489c      	ldr	r0, [pc, #624]	@ (2d8 <OidFromId+0x2d8>)
  66:	6013      	str	r3, [r2, #0]
  68:	4770      	bx	lr
  6a:	2309      	movs	r3, #9
  6c:	489b      	ldr	r0, [pc, #620]	@ (2dc <OidFromId+0x2dc>)
  6e:	6013      	str	r3, [r2, #0]
  70:	4770      	bx	lr
  72:	2309      	movs	r3, #9
  74:	489a      	ldr	r0, [pc, #616]	@ (2e0 <OidFromId+0x2e0>)
  76:	6013      	str	r3, [r2, #0]
  78:	4770      	bx	lr
  7a:	f240 2387 	movw	r3, #647	@ 0x287
  7e:	4298      	cmp	r0, r3
  80:	d00f      	beq.n	a2 <OidFromId+0xa2>
  82:	f240 238e 	movw	r3, #654	@ 0x28e
  86:	4298      	cmp	r0, r3
  88:	d007      	beq.n	9a <OidFromId+0x9a>
  8a:	f240 2385 	movw	r3, #645	@ 0x285
  8e:	4298      	cmp	r0, r3
  90:	d1d1      	bne.n	36 <OidFromId+0x36>
  92:	2309      	movs	r3, #9
  94:	4893      	ldr	r0, [pc, #588]	@ (2e4 <OidFromId+0x2e4>)
  96:	6013      	str	r3, [r2, #0]
  98:	4770      	bx	lr
  9a:	2309      	movs	r3, #9
  9c:	4892      	ldr	r0, [pc, #584]	@ (2e8 <OidFromId+0x2e8>)
  9e:	6013      	str	r3, [r2, #0]
  a0:	4770      	bx	lr
  a2:	2309      	movs	r3, #9
  a4:	4891      	ldr	r0, [pc, #580]	@ (2ec <OidFromId+0x2ec>)
  a6:	6013      	str	r3, [r2, #0]
  a8:	4770      	bx	lr
  aa:	f5b0 7fdb 	cmp.w	r0, #438	@ 0x1b6
  ae:	d023      	beq.n	f8 <OidFromId+0xf8>
  b0:	d80c      	bhi.n	cc <OidFromId+0xcc>
  b2:	f5b0 7fd1 	cmp.w	r0, #418	@ 0x1a2
  b6:	d01b      	beq.n	f0 <OidFromId+0xf0>
  b8:	f5b0 7fd9 	cmp.w	r0, #434	@ 0x1b2
  bc:	d010      	beq.n	e0 <OidFromId+0xe0>
  be:	f5b0 7fcf 	cmp.w	r0, #414	@ 0x19e
  c2:	d1b8      	bne.n	36 <OidFromId+0x36>
  c4:	2309      	movs	r3, #9
  c6:	488a      	ldr	r0, [pc, #552]	@ (2f0 <OidFromId+0x2f0>)
  c8:	6013      	str	r3, [r2, #0]
  ca:	4770      	bx	lr
  cc:	f5b0 7fe3 	cmp.w	r0, #454	@ 0x1c6
  d0:	d00a      	beq.n	e8 <OidFromId+0xe8>
  d2:	f5b0 7fe5 	cmp.w	r0, #458	@ 0x1ca
  d6:	d1ae      	bne.n	36 <OidFromId+0x36>
  d8:	2309      	movs	r3, #9
  da:	4886      	ldr	r0, [pc, #536]	@ (2f4 <OidFromId+0x2f4>)
  dc:	6013      	str	r3, [r2, #0]
  de:	4770      	bx	lr
  e0:	2309      	movs	r3, #9
  e2:	4885      	ldr	r0, [pc, #532]	@ (2f8 <OidFromId+0x2f8>)
  e4:	6013      	str	r3, [r2, #0]
  e6:	4770      	bx	lr
  e8:	2309      	movs	r3, #9
  ea:	4884      	ldr	r0, [pc, #528]	@ (2fc <OidFromId+0x2fc>)
  ec:	6013      	str	r3, [r2, #0]
  ee:	4770      	bx	lr
  f0:	2309      	movs	r3, #9
  f2:	4883      	ldr	r0, [pc, #524]	@ (300 <OidFromId+0x300>)
  f4:	6013      	str	r3, [r2, #0]
  f6:	4770      	bx	lr
  f8:	2309      	movs	r3, #9
  fa:	4882      	ldr	r0, [pc, #520]	@ (304 <OidFromId+0x304>)
  fc:	6013      	str	r3, [r2, #0]
  fe:	4770      	bx	lr
 100:	2897      	cmp	r0, #151	@ 0x97
 102:	d83d      	bhi.n	180 <OidFromId+0x180>
 104:	287f      	cmp	r0, #127	@ 0x7f
 106:	d805      	bhi.n	114 <OidFromId+0x114>
 108:	2845      	cmp	r0, #69	@ 0x45
 10a:	d194      	bne.n	36 <OidFromId+0x36>
 10c:	2308      	movs	r3, #8
 10e:	487e      	ldr	r0, [pc, #504]	@ (308 <OidFromId+0x308>)
 110:	6013      	str	r3, [r2, #0]
 112:	4770      	bx	lr
 114:	3880      	subs	r0, #128	@ 0x80
 116:	2817      	cmp	r0, #23
 118:	d88d      	bhi.n	36 <OidFromId+0x36>
 11a:	a301      	add	r3, pc, #4	@ (adr r3, 120 <OidFromId+0x120>)
 11c:	f853 f020 	ldr.w	pc, [r3, r0, lsl #2]
 120:	000001af 	.word	0x000001af
 124:	000001bf 	.word	0x000001bf
 128:	00000037 	.word	0x00000037
 12c:	00000197 	.word	0x00000197
 130:	00000037 	.word	0x00000037
 134:	0000018f 	.word	0x0000018f
 138:	00000037 	.word	0x00000037
 13c:	00000037 	.word	0x00000037
 140:	00000037 	.word	0x00000037
 144:	00000037 	.word	0x00000037
 148:	00000037 	.word	0x00000037
 14c:	00000037 	.word	0x00000037
 150:	00000037 	.word	0x00000037
 154:	00000037 	.word	0x00000037
 158:	00000037 	.word	0x00000037
 15c:	00000037 	.word	0x00000037
 160:	000001cf 	.word	0x000001cf
 164:	0000019f 	.word	0x0000019f
 168:	000001b7 	.word	0x000001b7
 16c:	00000037 	.word	0x00000037
 170:	00000037 	.word	0x00000037
 174:	000001a7 	.word	0x000001a7
 178:	00000037 	.word	0x00000037
 17c:	000001c7 	.word	0x000001c7
 180:	28a8      	cmp	r0, #168	@ 0xa8
 182:	f47f af58 	bne.w	36 <OidFromId+0x36>
 186:	2303      	movs	r3, #3
 188:	4860      	ldr	r0, [pc, #384]	@ (30c <OidFromId+0x30c>)
 18a:	6013      	str	r3, [r2, #0]
 18c:	4770      	bx	lr
 18e:	2303      	movs	r3, #3
 190:	485f      	ldr	r0, [pc, #380]	@ (310 <OidFromId+0x310>)
 192:	6013      	str	r3, [r2, #0]
 194:	4770      	bx	lr
 196:	2303      	movs	r3, #3
 198:	485e      	ldr	r0, [pc, #376]	@ (314 <OidFromId+0x314>)
 19a:	6013      	str	r3, [r2, #0]
 19c:	4770      	bx	lr
 19e:	2303      	movs	r3, #3
 1a0:	485d      	ldr	r0, [pc, #372]	@ (318 <OidFromId+0x318>)
 1a2:	6013      	str	r3, [r2, #0]
 1a4:	4770      	bx	lr
 1a6:	2303      	movs	r3, #3
 1a8:	485c      	ldr	r0, [pc, #368]	@ (31c <OidFromId+0x31c>)
 1aa:	6013      	str	r3, [r2, #0]
 1ac:	4770      	bx	lr
 1ae:	2303      	movs	r3, #3
 1b0:	485b      	ldr	r0, [pc, #364]	@ (320 <OidFromId+0x320>)
 1b2:	6013      	str	r3, [r2, #0]
 1b4:	4770      	bx	lr
 1b6:	2303      	movs	r3, #3
 1b8:	485a      	ldr	r0, [pc, #360]	@ (324 <OidFromId+0x324>)
 1ba:	6013      	str	r3, [r2, #0]
 1bc:	4770      	bx	lr
 1be:	2303      	movs	r3, #3
 1c0:	4859      	ldr	r0, [pc, #356]	@ (328 <OidFromId+0x328>)
 1c2:	6013      	str	r3, [r2, #0]
 1c4:	4770      	bx	lr
 1c6:	2303      	movs	r3, #3
 1c8:	4858      	ldr	r0, [pc, #352]	@ (32c <OidFromId+0x32c>)
 1ca:	6013      	str	r3, [r2, #0]
 1cc:	4770      	bx	lr
 1ce:	2303      	movs	r3, #3
 1d0:	4857      	ldr	r0, [pc, #348]	@ (330 <OidFromId+0x330>)
 1d2:	6013      	str	r3, [r2, #0]
 1d4:	4770      	bx	lr
 1d6:	2874      	cmp	r0, #116	@ 0x74
 1d8:	d006      	beq.n	1e8 <OidFromId+0x1e8>
 1da:	2875      	cmp	r0, #117	@ 0x75
 1dc:	f47f af2b 	bne.w	36 <OidFromId+0x36>
 1e0:	2308      	movs	r3, #8
 1e2:	4854      	ldr	r0, [pc, #336]	@ (334 <OidFromId+0x334>)
 1e4:	6013      	str	r3, [r2, #0]
 1e6:	4770      	bx	lr
 1e8:	2308      	movs	r3, #8
 1ea:	4853      	ldr	r0, [pc, #332]	@ (338 <OidFromId+0x338>)
 1ec:	6013      	str	r3, [r2, #0]
 1ee:	4770      	bx	lr
 1f0:	2892      	cmp	r0, #146	@ 0x92
 1f2:	f47f af20 	bne.w	36 <OidFromId+0x36>
 1f6:	2304      	movs	r3, #4
 1f8:	4850      	ldr	r0, [pc, #320]	@ (33c <OidFromId+0x33c>)
 1fa:	6013      	str	r3, [r2, #0]
 1fc:	4770      	bx	lr
 1fe:	284f      	cmp	r0, #79	@ 0x4f
 200:	f47f af19 	bne.w	36 <OidFromId+0x36>
 204:	2308      	movs	r3, #8
 206:	484e      	ldr	r0, [pc, #312]	@ (340 <OidFromId+0x340>)
 208:	6013      	str	r3, [r2, #0]
 20a:	4770      	bx	lr
 20c:	284f      	cmp	r0, #79	@ 0x4f
 20e:	d81b      	bhi.n	248 <OidFromId+0x248>
 210:	2846      	cmp	r0, #70	@ 0x46
 212:	f67f af10 	bls.w	36 <OidFromId+0x36>
 216:	3847      	subs	r0, #71	@ 0x47
 218:	2808      	cmp	r0, #8
 21a:	f63f af0c 	bhi.w	36 <OidFromId+0x36>
 21e:	a301      	add	r3, pc, #4	@ (adr r3, 224 <OidFromId+0x224>)
 220:	f853 f020 	ldr.w	pc, [r3, r0, lsl #2]
 224:	00000257 	.word	0x00000257
 228:	0000025f 	.word	0x0000025f
 22c:	00000267 	.word	0x00000267
 230:	0000026f 	.word	0x0000026f
 234:	00000037 	.word	0x00000037
 238:	00000037 	.word	0x00000037
 23c:	00000037 	.word	0x00000037
 240:	00000277 	.word	0x00000277
 244:	0000027f 	.word	0x0000027f
 248:	2897      	cmp	r0, #151	@ 0x97
 24a:	f47f aef4 	bne.w	36 <OidFromId+0x36>
 24e:	2304      	movs	r3, #4
 250:	483c      	ldr	r0, [pc, #240]	@ (344 <OidFromId+0x344>)
 252:	6013      	str	r3, [r2, #0]
 254:	4770      	bx	lr
 256:	2308      	movs	r3, #8
 258:	483b      	ldr	r0, [pc, #236]	@ (348 <OidFromId+0x348>)
 25a:	6013      	str	r3, [r2, #0]
 25c:	4770      	bx	lr
 25e:	2308      	movs	r3, #8
 260:	483a      	ldr	r0, [pc, #232]	@ (34c <OidFromId+0x34c>)
 262:	6013      	str	r3, [r2, #0]
 264:	4770      	bx	lr
 266:	2308      	movs	r3, #8
 268:	4839      	ldr	r0, [pc, #228]	@ (350 <OidFromId+0x350>)
 26a:	6013      	str	r3, [r2, #0]
 26c:	4770      	bx	lr
 26e:	2308      	movs	r3, #8
 270:	4838      	ldr	r0, [pc, #224]	@ (354 <OidFromId+0x354>)
 272:	6013      	str	r3, [r2, #0]
 274:	4770      	bx	lr
 276:	2308      	movs	r3, #8
 278:	4837      	ldr	r0, [pc, #220]	@ (358 <OidFromId+0x358>)
 27a:	6013      	str	r3, [r2, #0]
 27c:	4770      	bx	lr
 27e:	2308      	movs	r3, #8
 280:	4836      	ldr	r0, [pc, #216]	@ (35c <OidFromId+0x35c>)
 282:	6013      	str	r3, [r2, #0]
 284:	4770      	bx	lr
 286:	f5b0 7f25 	cmp.w	r0, #660	@ 0x294
 28a:	f47f aed4 	bne.w	36 <OidFromId+0x36>
 28e:	2309      	movs	r3, #9
 290:	4833      	ldr	r0, [pc, #204]	@ (360 <OidFromId+0x360>)
 292:	6013      	str	r3, [r2, #0]
 294:	4770      	bx	lr
 296:	280d      	cmp	r0, #13
 298:	d004      	beq.n	2a4 <OidFromId+0x2a4>
 29a:	f240 2395 	movw	r3, #661	@ 0x295
 29e:	4298      	cmp	r0, r3
 2a0:	f47f aec9 	bne.w	36 <OidFromId+0x36>
 2a4:	2309      	movs	r3, #9
 2a6:	482f      	ldr	r0, [pc, #188]	@ (364 <OidFromId+0x364>)
 2a8:	6013      	str	r3, [r2, #0]
 2aa:	4770      	bx	lr
 2ac:	f240 13b5 	movw	r3, #437	@ 0x1b5
 2b0:	4298      	cmp	r0, r3
 2b2:	d05b      	beq.n	36c <OidFromId+0x36c>
 2b4:	f240 13c9 	movw	r3, #457	@ 0x1c9
 2b8:	4298      	cmp	r0, r3
 2ba:	d05b      	beq.n	374 <OidFromId+0x374>
 2bc:	f240 13a1 	movw	r3, #417	@ 0x1a1
 2c0:	4298      	cmp	r0, r3
 2c2:	f47f aeb8 	bne.w	36 <OidFromId+0x36>
 2c6:	2309      	movs	r3, #9
 2c8:	4827      	ldr	r0, [pc, #156]	@ (368 <OidFromId+0x368>)
 2ca:	6013      	str	r3, [r2, #0]
 2cc:	4770      	bx	lr
 2ce:	bf00      	nop
	...
 36c:	2309      	movs	r3, #9
 36e:	480f      	ldr	r0, [pc, #60]	@ (3ac <OidFromId+0x3ac>)
 370:	6013      	str	r3, [r2, #0]
 372:	4770      	bx	lr
 374:	2309      	movs	r3, #9
 376:	480e      	ldr	r0, [pc, #56]	@ (3b0 <OidFromId+0x3b0>)
 378:	6013      	str	r3, [r2, #0]
 37a:	4770      	bx	lr
 37c:	28bd      	cmp	r0, #189	@ 0xbd
 37e:	d007      	beq.n	390 <OidFromId+0x390>
 380:	f5b0 7fe8 	cmp.w	r0, #464	@ 0x1d0
 384:	f47f ae57 	bne.w	36 <OidFromId+0x36>
 388:	2309      	movs	r3, #9
 38a:	480a      	ldr	r0, [pc, #40]	@ (3b4 <OidFromId+0x3b4>)
 38c:	6013      	str	r3, [r2, #0]
 38e:	4770      	bx	lr
 390:	2306      	movs	r3, #6
 392:	4809      	ldr	r0, [pc, #36]	@ (3b8 <OidFromId+0x3b8>)
 394:	6013      	str	r3, [r2, #0]
 396:	4770      	bx	lr
 398:	f240 238d 	movw	r3, #653	@ 0x28d
 39c:	4298      	cmp	r0, r3
 39e:	f47f ae4a 	bne.w	36 <OidFromId+0x36>
 3a2:	2308      	movs	r3, #8
 3a4:	4805      	ldr	r0, [pc, #20]	@ (3bc <OidFromId+0x3bc>)
 3a6:	6013      	str	r3, [r2, #0]
 3a8:	4770      	bx	lr
 3aa:	bf00      	nop
	...

Disassembly of section .text.GetASN_Items:

00000000 <GetASN_Items>:
   0:	e92d 4ff0 	stmdb	sp!, {r4, r5, r6, r7, r8, r9, sl, fp, lr}
   4:	b097      	sub	sp, #92	@ 0x5c
   6:	e9cd 2107 	strd	r2, r1, [sp, #28]
   a:	9309      	str	r3, [sp, #36]	@ 0x24
   c:	e9dd 7320 	ldrd	r7, r3, [sp, #128]	@ 0x80
  10:	681b      	ldr	r3, [r3, #0]
  12:	930d      	str	r3, [sp, #52]	@ 0x34
  14:	f64f 73ff 	movw	r3, #65535	@ 0xffff
  18:	f8ad 302c 	strh.w	r3, [sp, #44]	@ 0x2c
  1c:	9b22      	ldr	r3, [sp, #136]	@ 0x88
  1e:	f890 a000 	ldrb.w	sl, [r0]
  22:	9315      	str	r3, [sp, #84]	@ 0x54
  24:	e9cd 330f 	strd	r3, r3, [sp, #60]	@ 0x3c
  28:	e9cd 3311 	strd	r3, r3, [sp, #68]	@ 0x44
  2c:	e9cd 3313 	strd	r3, r3, [sp, #76]	@ 0x4c
  30:	2300      	movs	r3, #0
  32:	9004      	str	r0, [sp, #16]
  34:	f8cd a018 	str.w	sl, [sp, #24]
  38:	9303      	str	r3, [sp, #12]
  3a:	461e      	mov	r6, r3
  3c:	9b07      	ldr	r3, [sp, #28]
  3e:	429e      	cmp	r6, r3
  40:	db14      	blt.n	6c <GetASN_Items+0x6c>
  42:	9b09      	ldr	r3, [sp, #36]	@ 0x24
  44:	b12b      	cbz	r3, 52 <GetASN_Items+0x52>
  46:	9b0d      	ldr	r3, [sp, #52]	@ 0x34
  48:	aa0f      	add	r2, sp, #60	@ 0x3c
  4a:	9906      	ldr	r1, [sp, #24]
  4c:	458a      	cmp	sl, r1
  4e:	f300 820a 	bgt.w	466 <GetASN_Items+0x466>
  52:	f99d 302c 	ldrsb.w	r3, [sp, #44]	@ 0x2c
  56:	2b00      	cmp	r3, #0
  58:	d061      	beq.n	11e <GetASN_Items+0x11e>
  5a:	f99d 302d 	ldrsb.w	r3, [sp, #45]	@ 0x2d
  5e:	2b00      	cmp	r3, #0
  60:	d05d      	beq.n	11e <GetASN_Items+0x11e>
  62:	9a21      	ldr	r2, [sp, #132]	@ 0x84
  64:	9b0d      	ldr	r3, [sp, #52]	@ 0x34
  66:	6013      	str	r3, [r2, #0]
  68:	2000      	movs	r0, #0
  6a:	e05a      	b.n	122 <GetASN_Items+0x122>
  6c:	9a08      	ldr	r2, [sp, #32]
  6e:	9908      	ldr	r1, [sp, #32]
  70:	231c      	movs	r3, #28
  72:	4373      	muls	r3, r6
  74:	18d4      	adds	r4, r2, r3
  76:	9a0d      	ldr	r2, [sp, #52]	@ 0x34
  78:	50ca      	str	r2, [r1, r3]
  7a:	2300      	movs	r3, #0
  7c:	6063      	str	r3, [r4, #4]
  7e:	9b04      	ldr	r3, [sp, #16]
  80:	f813 a026 	ldrb.w	sl, [r3, r6, lsl #2]
  84:	eb03 0986 	add.w	r9, r3, r6, lsl #2
  88:	9b03      	ldr	r3, [sp, #12]
  8a:	2b00      	cmp	r3, #0
  8c:	dd21      	ble.n	d2 <GetASN_Items+0xd2>
  8e:	f899 3003 	ldrb.w	r3, [r9, #3]
  92:	9903      	ldr	r1, [sp, #12]
  94:	428b      	cmp	r3, r1
  96:	d11d      	bne.n	d4 <GetASN_Items+0xd4>
  98:	ab16      	add	r3, sp, #88	@ 0x58
  9a:	eb03 038a 	add.w	r3, r3, sl, lsl #2
  9e:	f853 3c1c 	ldr.w	r3, [r3, #-28]
  a2:	429a      	cmp	r2, r3
  a4:	d00b      	beq.n	be <GetASN_Items+0xbe>
  a6:	7e21      	ldrb	r1, [r4, #24]
  a8:	f817 b002 	ldrb.w	fp, [r7, r2]
  ac:	9105      	str	r1, [sp, #20]
  ae:	290b      	cmp	r1, #11
  b0:	d044      	beq.n	13c <GetASN_Items+0x13c>
  b2:	f899 0001 	ldrb.w	r0, [r9, #1]
  b6:	f02b 0120 	bic.w	r1, fp, #32
  ba:	4281      	cmp	r1, r0
  bc:	d06f      	beq.n	19e <GetASN_Items+0x19e>
  be:	f899 1003 	ldrb.w	r1, [r9, #3]
  c2:	b331      	cbz	r1, 112 <GetASN_Items+0x112>
  c4:	3601      	adds	r6, #1
  c6:	2300      	movs	r3, #0
  c8:	9907      	ldr	r1, [sp, #28]
  ca:	428e      	cmp	r6, r1
  cc:	d117      	bne.n	fe <GetASN_Items+0xfe>
  ce:	3e01      	subs	r6, #1
  d0:	e08f      	b.n	1f2 <GetASN_Items+0x1f2>
  d2:	d1e1      	bne.n	98 <GetASN_Items+0x98>
  d4:	f899 8003 	ldrb.w	r8, [r9, #3]
  d8:	f1b8 0f01 	cmp.w	r8, #1
  dc:	d90c      	bls.n	f8 <GetASN_Items+0xf8>
  de:	4643      	mov	r3, r8
  e0:	3356      	adds	r3, #86	@ 0x56
  e2:	446b      	add	r3, sp
  e4:	f8cd 800c 	str.w	r8, [sp, #12]
  e8:	f913 1c2c 	ldrsb.w	r1, [r3, #-44]
  ec:	3101      	adds	r1, #1
  ee:	d1d3      	bne.n	98 <GetASN_Items+0x98>
  f0:	2100      	movs	r1, #0
  f2:	f803 1c2c 	strb.w	r1, [r3, #-44]
  f6:	e7cf      	b.n	98 <GetASN_Items+0x98>
  f8:	2300      	movs	r3, #0
  fa:	9303      	str	r3, [sp, #12]
  fc:	e7cc      	b.n	98 <GetASN_Items+0x98>
  fe:	9904      	ldr	r1, [sp, #16]
 100:	f811 1026 	ldrb.w	r1, [r1, r6, lsl #2]
 104:	4551      	cmp	r1, sl
 106:	d9e2      	bls.n	ce <GetASN_Items+0xce>
 108:	e9c4 2307 	strd	r2, r3, [r4, #28]
 10c:	3601      	adds	r6, #1
 10e:	341c      	adds	r4, #28
 110:	e7da      	b.n	c8 <GetASN_Items+0xc8>
 112:	9922      	ldr	r1, [sp, #136]	@ 0x88
 114:	428a      	cmp	r2, r1
 116:	f000 81ae 	beq.w	476 <GetASN_Items+0x476>
 11a:	429a      	cmp	r2, r3
 11c:	d104      	bne.n	128 <GetASN_Items+0x128>
 11e:	f06f 008b 	mvn.w	r0, #139	@ 0x8b
 122:	b017      	add	sp, #92	@ 0x5c
 124:	e8bd 8ff0 	ldmia.w	sp!, {r4, r5, r6, r7, r8, r9, sl, fp, pc}
 128:	f899 3001 	ldrb.w	r3, [r9, #1]
 12c:	2b06      	cmp	r3, #6
 12e:	f000 81a5 	beq.w	47c <GetASN_Items+0x47c>
 132:	2b03      	cmp	r3, #3
 134:	d1f3      	bne.n	11e <GetASN_Items+0x11e>
 136:	f06f 0092 	mvn.w	r0, #146	@ 0x92
 13a:	e7f2      	b.n	122 <GetASN_Items+0x122>
 13c:	f884 b019 	strb.w	fp, [r4, #25]
 140:	3201      	adds	r2, #1
 142:	2501      	movs	r5, #1
 144:	920d      	str	r2, [sp, #52]	@ 0x34
 146:	9500      	str	r5, [sp, #0]
 148:	aa0c      	add	r2, sp, #48	@ 0x30
 14a:	a90d      	add	r1, sp, #52	@ 0x34
 14c:	4638      	mov	r0, r7
 14e:	f7ff fffe 	bl	0 <GetASN_Items>
 152:	2800      	cmp	r0, #0
 154:	dbe3      	blt.n	11e <GetASN_Items+0x11e>
 156:	9b0c      	ldr	r3, [sp, #48]	@ 0x30
 158:	9a0d      	ldr	r2, [sp, #52]	@ 0x34
 15a:	6063      	str	r3, [r4, #4]
 15c:	a916      	add	r1, sp, #88	@ 0x58
 15e:	eb01 018a 	add.w	r1, r1, sl, lsl #2
 162:	1898      	adds	r0, r3, r2
 164:	f841 0c18 	str.w	r0, [r1, #-24]
 168:	9903      	ldr	r1, [sp, #12]
 16a:	42a9      	cmp	r1, r5
 16c:	bfc2      	ittt	gt
 16e:	3158      	addgt	r1, #88	@ 0x58
 170:	4469      	addgt	r1, sp
 172:	f801 5c2e 	strbgt.w	r5, [r1, #-46]
 176:	f899 1001 	ldrb.w	r1, [r9, #1]
 17a:	2902      	cmp	r1, #2
 17c:	d140      	bne.n	200 <GetASN_Items+0x200>
 17e:	2b00      	cmp	r3, #0
 180:	d0cd      	beq.n	11e <GetASN_Items+0x11e>
 182:	5cbd      	ldrb	r5, [r7, r2]
 184:	b9b5      	cbnz	r5, 1b4 <GetASN_Items+0x1b4>
 186:	2b01      	cmp	r3, #1
 188:	dd29      	ble.n	1de <GetASN_Items+0x1de>
 18a:	18b8      	adds	r0, r7, r2
 18c:	f990 0001 	ldrsb.w	r0, [r0, #1]
 190:	2800      	cmp	r0, #0
 192:	dac4      	bge.n	11e <GetASN_Items+0x11e>
 194:	3201      	adds	r2, #1
 196:	3b01      	subs	r3, #1
 198:	920d      	str	r2, [sp, #52]	@ 0x34
 19a:	930c      	str	r3, [sp, #48]	@ 0x30
 19c:	e01f      	b.n	1de <GetASN_Items+0x1de>
 19e:	f884 b019 	strb.w	fp, [r4, #25]
 1a2:	f899 1002 	ldrb.w	r1, [r9, #2]
 1a6:	f3cb 1040 	ubfx	r0, fp, #5, #1
 1aa:	f001 0101 	and.w	r1, r1, #1
 1ae:	4281      	cmp	r1, r0
 1b0:	d0c6      	beq.n	140 <GetASN_Items+0x140>
 1b2:	e7b4      	b.n	11e <GetASN_Items+0x11e>
 1b4:	9805      	ldr	r0, [sp, #20]
 1b6:	2b01      	cmp	r3, #1
 1b8:	f1a0 0008 	sub.w	r0, r0, #8
 1bc:	b2c0      	uxtb	r0, r0
 1be:	dd0a      	ble.n	1d6 <GetASN_Items+0x1d6>
 1c0:	2dff      	cmp	r5, #255	@ 0xff
 1c2:	d108      	bne.n	1d6 <GetASN_Items+0x1d6>
 1c4:	443a      	add	r2, r7
 1c6:	f992 3001 	ldrsb.w	r3, [r2, #1]
 1ca:	2b00      	cmp	r3, #0
 1cc:	f280 815f 	bge.w	48e <GetASN_Items+0x48e>
 1d0:	f06f 0091 	mvn.w	r0, #145	@ 0x91
 1d4:	e7a5      	b.n	122 <GetASN_Items+0x122>
 1d6:	2801      	cmp	r0, #1
 1d8:	d801      	bhi.n	1de <GetASN_Items+0x1de>
 1da:	062a      	lsls	r2, r5, #24
 1dc:	d4f8      	bmi.n	1d0 <GetASN_Items+0x1d0>
 1de:	f899 2002 	ldrb.w	r2, [r9, #2]
 1e2:	0793      	lsls	r3, r2, #30
 1e4:	e9dd 580c 	ldrd	r5, r8, [sp, #48]	@ 0x30
 1e8:	d55e      	bpl.n	2a8 <GetASN_Items+0x2a8>
 1ea:	eb07 0308 	add.w	r3, r7, r8
 1ee:	e9c4 3502 	strd	r3, r5, [r4, #8]
 1f2:	9b06      	ldr	r3, [sp, #24]
 1f4:	4553      	cmp	r3, sl
 1f6:	bfa8      	it	ge
 1f8:	4653      	movge	r3, sl
 1fa:	9306      	str	r3, [sp, #24]
 1fc:	3601      	adds	r6, #1
 1fe:	e71d      	b.n	3c <GetASN_Items+0x3c>
 200:	2903      	cmp	r1, #3
 202:	d10e      	bne.n	222 <GetASN_Items+0x222>
 204:	2b00      	cmp	r3, #0
 206:	d08a      	beq.n	11e <GetASN_Items+0x11e>
 208:	5cbd      	ldrb	r5, [r7, r2]
 20a:	2d07      	cmp	r5, #7
 20c:	d887      	bhi.n	11e <GetASN_Items+0x11e>
 20e:	4438      	add	r0, r7
 210:	f1c5 0508 	rsb	r5, r5, #8
 214:	f810 0c01 	ldrb.w	r0, [r0, #-1]
 218:	40a8      	lsls	r0, r5
 21a:	b2c0      	uxtb	r0, r0
 21c:	2800      	cmp	r0, #0
 21e:	d0b9      	beq.n	194 <GetASN_Items+0x194>
 220:	e77d      	b.n	11e <GetASN_Items+0x11e>
 222:	290c      	cmp	r1, #12
 224:	d120      	bne.n	268 <GetASN_Items+0x268>
 226:	2b00      	cmp	r3, #0
 228:	ddd9      	ble.n	1de <GetASN_Items+0x1de>
 22a:	2000      	movs	r0, #0
 22c:	443a      	add	r2, r7
 22e:	f912 c000 	ldrsb.w	ip, [r2, r0]
 232:	5c15      	ldrb	r5, [r2, r0]
 234:	f1bc 0f00 	cmp.w	ip, #0
 238:	da25      	bge.n	286 <GetASN_Items+0x286>
 23a:	f005 0ce0 	and.w	ip, r5, #224	@ 0xe0
 23e:	f1bc 0fc0 	cmp.w	ip, #192	@ 0xc0
 242:	d022      	beq.n	28a <GetASN_Items+0x28a>
 244:	f005 0cf0 	and.w	ip, r5, #240	@ 0xf0
 248:	f1bc 0fe0 	cmp.w	ip, #224	@ 0xe0
 24c:	d01f      	beq.n	28e <GetASN_Items+0x28e>
 24e:	f005 05f8 	and.w	r5, r5, #248	@ 0xf8
 252:	2df0      	cmp	r5, #240	@ 0xf0
 254:	f47f af63 	bne.w	11e <GetASN_Items+0x11e>
 258:	2503      	movs	r5, #3
 25a:	3001      	adds	r0, #1
 25c:	4405      	add	r5, r0
 25e:	4285      	cmp	r5, r0
 260:	d117      	bne.n	292 <GetASN_Items+0x292>
 262:	4283      	cmp	r3, r0
 264:	dce3      	bgt.n	22e <GetASN_Items+0x22e>
 266:	e7ba      	b.n	1de <GetASN_Items+0x1de>
 268:	f1bb 0f0c 	cmp.w	fp, #12
 26c:	d0db      	beq.n	226 <GetASN_Items+0x226>
 26e:	2906      	cmp	r1, #6
 270:	d1b5      	bne.n	1de <GetASN_Items+0x1de>
 272:	2b02      	cmp	r3, #2
 274:	f77f af53 	ble.w	11e <GetASN_Items+0x11e>
 278:	443b      	add	r3, r7
 27a:	4413      	add	r3, r2
 27c:	f913 3c01 	ldrsb.w	r3, [r3, #-1]
 280:	2b00      	cmp	r3, #0
 282:	daac      	bge.n	1de <GetASN_Items+0x1de>
 284:	e74b      	b.n	11e <GetASN_Items+0x11e>
 286:	2500      	movs	r5, #0
 288:	e7e7      	b.n	25a <GetASN_Items+0x25a>
 28a:	2501      	movs	r5, #1
 28c:	e7e5      	b.n	25a <GetASN_Items+0x25a>
 28e:	2502      	movs	r5, #2
 290:	e7e3      	b.n	25a <GetASN_Items+0x25a>
 292:	4283      	cmp	r3, r0
 294:	f43f af43 	beq.w	11e <GetASN_Items+0x11e>
 298:	f912 c000 	ldrsb.w	ip, [r2, r0]
 29c:	f1bc 0f00 	cmp.w	ip, #0
 2a0:	f6bf af3d 	bge.w	11e <GetASN_Items+0x11e>
 2a4:	3001      	adds	r0, #1
 2a6:	e7da      	b.n	25e <GetASN_Items+0x25e>
 2a8:	9b05      	ldr	r3, [sp, #20]
 2aa:	2b0b      	cmp	r3, #11
 2ac:	d81c      	bhi.n	2e8 <GetASN_Items+0x2e8>
 2ae:	e8df f003 	tbb	[pc, r3]
 2b2:	1497      	.short	0x1497
 2b4:	694f1b37 	.word	0x694f1b37
 2b8:	89841b77 	.word	0x89841b77
 2bc:	0684      	.short	0x0684
 2be:	68a2      	ldr	r2, [r4, #8]
 2c0:	3a01      	subs	r2, #1
 2c2:	f812 1f01 	ldrb.w	r1, [r2, #1]!
 2c6:	2900      	cmp	r1, #0
 2c8:	f43f af29 	beq.w	11e <GetASN_Items+0x11e>
 2cc:	458b      	cmp	fp, r1
 2ce:	d1f8      	bne.n	2c2 <GetASN_Items+0x2c2>
 2d0:	eb07 0208 	add.w	r2, r7, r8
 2d4:	e9c4 2502 	strd	r2, r5, [r4, #8]
 2d8:	e006      	b.n	2e8 <GetASN_Items+0x2e8>
 2da:	2d01      	cmp	r5, #1
 2dc:	f47f af1f 	bne.w	11e <GetASN_Items+0x11e>
 2e0:	68a2      	ldr	r2, [r4, #8]
 2e2:	f817 1008 	ldrb.w	r1, [r7, r8]
 2e6:	7011      	strb	r1, [r2, #0]
 2e8:	f899 3003 	ldrb.w	r3, [r9, #3]
 2ec:	4445      	add	r5, r8
 2ee:	2b01      	cmp	r3, #1
 2f0:	950d      	str	r5, [sp, #52]	@ 0x34
 2f2:	f67f af7e 	bls.w	1f2 <GetASN_Items+0x1f2>
 2f6:	9a04      	ldr	r2, [sp, #16]
 2f8:	3601      	adds	r6, #1
 2fa:	3203      	adds	r2, #3
 2fc:	9907      	ldr	r1, [sp, #28]
 2fe:	428e      	cmp	r6, r1
 300:	f43f aee5 	beq.w	ce <GetASN_Items+0xce>
 304:	9904      	ldr	r1, [sp, #16]
 306:	f811 0026 	ldrb.w	r0, [r1, r6, lsl #2]
 30a:	f899 1000 	ldrb.w	r1, [r9]
 30e:	4288      	cmp	r0, r1
 310:	d804      	bhi.n	31c <GetASN_Items+0x31c>
 312:	f812 1026 	ldrb.w	r1, [r2, r6, lsl #2]
 316:	4299      	cmp	r1, r3
 318:	f47f aed9 	bne.w	ce <GetASN_Items+0xce>
 31c:	3601      	adds	r6, #1
 31e:	e7ed      	b.n	2fc <GetASN_Items+0x2fc>
 320:	2d00      	cmp	r5, #0
 322:	f43f aefc 	beq.w	11e <GetASN_Items+0x11e>
 326:	2d02      	cmp	r5, #2
 328:	f73f aef9 	bgt.w	11e <GetASN_Items+0x11e>
 32c:	2200      	movs	r2, #0
 32e:	68a0      	ldr	r0, [r4, #8]
 330:	4611      	mov	r1, r2
 332:	eb07 0408 	add.w	r4, r7, r8
 336:	42a9      	cmp	r1, r5
 338:	db01      	blt.n	33e <GetASN_Items+0x33e>
 33a:	8002      	strh	r2, [r0, #0]
 33c:	e7d4      	b.n	2e8 <GetASN_Items+0x2e8>
 33e:	0212      	lsls	r2, r2, #8
 340:	b292      	uxth	r2, r2
 342:	8002      	strh	r2, [r0, #0]
 344:	f814 cb01 	ldrb.w	ip, [r4], #1
 348:	3101      	adds	r1, #1
 34a:	ea4c 0202 	orr.w	r2, ip, r2
 34e:	e7f2      	b.n	336 <GetASN_Items+0x336>
 350:	2d00      	cmp	r5, #0
 352:	f43f aee4 	beq.w	11e <GetASN_Items+0x11e>
 356:	2d04      	cmp	r5, #4
 358:	f73f aee1 	bgt.w	11e <GetASN_Items+0x11e>
 35c:	68a1      	ldr	r1, [r4, #8]
 35e:	2200      	movs	r2, #0
 360:	600a      	str	r2, [r1, #0]
 362:	eb07 0008 	add.w	r0, r7, r8
 366:	42aa      	cmp	r2, r5
 368:	dabe      	bge.n	2e8 <GetASN_Items+0x2e8>
 36a:	68a3      	ldr	r3, [r4, #8]
 36c:	6819      	ldr	r1, [r3, #0]
 36e:	0209      	lsls	r1, r1, #8
 370:	6019      	str	r1, [r3, #0]
 372:	68a3      	ldr	r3, [r4, #8]
 374:	f810 eb01 	ldrb.w	lr, [r0], #1
 378:	6819      	ldr	r1, [r3, #0]
 37a:	ea41 010e 	orr.w	r1, r1, lr
 37e:	6019      	str	r1, [r3, #0]
 380:	3201      	adds	r2, #1
 382:	e7f0      	b.n	366 <GetASN_Items+0x366>
 384:	68e2      	ldr	r2, [r4, #12]
 386:	6812      	ldr	r2, [r2, #0]
 388:	42aa      	cmp	r2, r5
 38a:	f6ff aec8 	blt.w	11e <GetASN_Items+0x11e>
 38e:	462a      	mov	r2, r5
 390:	68a0      	ldr	r0, [r4, #8]
 392:	eb07 0108 	add.w	r1, r7, r8
 396:	f7ff fffe 	bl	0 <memcpy>
 39a:	68e2      	ldr	r2, [r4, #12]
 39c:	6015      	str	r5, [r2, #0]
 39e:	e7a3      	b.n	2e8 <GetASN_Items+0x2e8>
 3a0:	68e2      	ldr	r2, [r4, #12]
 3a2:	42aa      	cmp	r2, r5
 3a4:	f47f aebb 	bne.w	11e <GetASN_Items+0x11e>
 3a8:	68a0      	ldr	r0, [r4, #8]
 3aa:	462a      	mov	r2, r5
 3ac:	eb07 0108 	add.w	r1, r7, r8
 3b0:	f7ff fffe 	bl	0 <memcmp>
 3b4:	2800      	cmp	r0, #0
 3b6:	d097      	beq.n	2e8 <GetASN_Items+0x2e8>
 3b8:	e6b1      	b.n	11e <GetASN_Items+0x11e>
 3ba:	68a0      	ldr	r0, [r4, #8]
 3bc:	f7ff fffe 	bl	0 <sp_init>
 3c0:	2800      	cmp	r0, #0
 3c2:	d15e      	bne.n	482 <GetASN_Items+0x482>
 3c4:	68a0      	ldr	r0, [r4, #8]
 3c6:	462a      	mov	r2, r5
 3c8:	eb07 0108 	add.w	r1, r7, r8
 3cc:	f7ff fffe 	bl	0 <sp_read_unsigned_bin>
 3d0:	2800      	cmp	r0, #0
 3d2:	d089      	beq.n	2e8 <GetASN_Items+0x2e8>
 3d4:	68a0      	ldr	r0, [r4, #8]
 3d6:	f7ff fffe 	bl	0 <sp_clear>
 3da:	f06f 008d 	mvn.w	r0, #141	@ 0x8d
 3de:	e6a0      	b.n	122 <GetASN_Items+0x122>
 3e0:	2901      	cmp	r1, #1
 3e2:	d10c      	bne.n	3fe <GetASN_Items+0x3fe>
 3e4:	2d01      	cmp	r5, #1
 3e6:	f47f ae9a 	bne.w	11e <GetASN_Items+0x11e>
 3ea:	68a1      	ldr	r1, [r4, #8]
 3ec:	2900      	cmp	r1, #0
 3ee:	d04b      	beq.n	488 <GetASN_Items+0x488>
 3f0:	f817 2008 	ldrb.w	r2, [r7, r8]
 3f4:	3a00      	subs	r2, #0
 3f6:	bf18      	it	ne
 3f8:	2201      	movne	r2, #1
 3fa:	700a      	strb	r2, [r1, #0]
 3fc:	e774      	b.n	2e8 <GetASN_Items+0x2e8>
 3fe:	2905      	cmp	r1, #5
 400:	d106      	bne.n	410 <GetASN_Items+0x410>
 402:	2d00      	cmp	r5, #0
 404:	f47f aee4 	bne.w	1d0 <GetASN_Items+0x1d0>
 408:	eb07 0208 	add.w	r2, r7, r8
 40c:	60a2      	str	r2, [r4, #8]
 40e:	e76b      	b.n	2e8 <GetASN_Items+0x2e8>
 410:	eb07 0b08 	add.w	fp, r7, r8
 414:	2906      	cmp	r1, #6
 416:	e9c4 b502 	strd	fp, r5, [r4, #8]
 41a:	f47f af65 	bne.w	2e8 <GetASN_Items+0x2e8>
 41e:	6921      	ldr	r1, [r4, #16]
 420:	465a      	mov	r2, fp
 422:	eb05 0c0b 	add.w	ip, r5, fp
 426:	2000      	movs	r0, #0
 428:	4594      	cmp	ip, r2
 42a:	6160      	str	r0, [r4, #20]
 42c:	d10f      	bne.n	44e <GetASN_Items+0x44e>
 42e:	2915      	cmp	r1, #21
 430:	f43f af5a 	beq.w	2e8 <GetASN_Items+0x2e8>
 434:	aa0e      	add	r2, sp, #56	@ 0x38
 436:	f7ff fffe 	bl	0 <GetASN_Items>
 43a:	4601      	mov	r1, r0
 43c:	2800      	cmp	r0, #0
 43e:	f43f af53 	beq.w	2e8 <GetASN_Items+0x2e8>
 442:	9a0e      	ldr	r2, [sp, #56]	@ 0x38
 444:	4295      	cmp	r5, r2
 446:	d006      	beq.n	456 <GetASN_Items+0x456>
 448:	f06f 0093 	mvn.w	r0, #147	@ 0x93
 44c:	e669      	b.n	122 <GetASN_Items+0x122>
 44e:	f812 eb01 	ldrb.w	lr, [r2], #1
 452:	4470      	add	r0, lr
 454:	e7e8      	b.n	428 <GetASN_Items+0x428>
 456:	462a      	mov	r2, r5
 458:	4658      	mov	r0, fp
 45a:	f7ff fffe 	bl	0 <memcmp>
 45e:	2800      	cmp	r0, #0
 460:	f43f af42 	beq.w	2e8 <GetASN_Items+0x2e8>
 464:	e7f0      	b.n	448 <GetASN_Items+0x448>
 466:	f852 102a 	ldr.w	r1, [r2, sl, lsl #2]
 46a:	4299      	cmp	r1, r3
 46c:	f63f ae57 	bhi.w	11e <GetASN_Items+0x11e>
 470:	f10a 3aff 	add.w	sl, sl, #4294967295	@ 0xffffffff
 474:	e5e9      	b.n	4a <GetASN_Items+0x4a>
 476:	f06f 0083 	mvn.w	r0, #131	@ 0x83
 47a:	e652      	b.n	122 <GetASN_Items+0x122>
 47c:	f06f 008f 	mvn.w	r0, #143	@ 0x8f
 480:	e64f      	b.n	122 <GetASN_Items+0x122>
 482:	f06f 006d 	mvn.w	r0, #109	@ 0x6d
 486:	e64c      	b.n	122 <GetASN_Items+0x122>
 488:	f06f 00bf 	mvn.w	r0, #191	@ 0xbf
 48c:	e649      	b.n	122 <GetASN_Items+0x122>
 48e:	2801      	cmp	r0, #1
 490:	f63f aea5 	bhi.w	1de <GetASN_Items+0x1de>
 494:	e69c      	b.n	1d0 <GetASN_Items+0x1d0>

Disassembly of section .text.GetMyVersion:

00000000 <GetMyVersion>:
   0:	e92d 41f0 	stmdb	sp!, {r4, r5, r6, r7, r8, lr}
   4:	2500      	movs	r5, #0
   6:	b08c      	sub	sp, #48	@ 0x30
   8:	4606      	mov	r6, r0
   a:	460f      	mov	r7, r1
   c:	4614      	mov	r4, r2
   e:	4629      	mov	r1, r5
  10:	221c      	movs	r2, #28
  12:	a805      	add	r0, sp, #20
  14:	4698      	mov	r8, r3
  16:	f88d 5013 	strb.w	r5, [sp, #19]
  1a:	f7ff fffe 	bl	0 <memset>
  1e:	f10d 0313 	add.w	r3, sp, #19
  22:	2201      	movs	r2, #1
  24:	9307      	str	r3, [sp, #28]
  26:	e9cd 7801 	strd	r7, r8, [sp, #4]
  2a:	4807      	ldr	r0, [pc, #28]	@ (48 <GetMyVersion+0x48>)
  2c:	9600      	str	r6, [sp, #0]
  2e:	462b      	mov	r3, r5
  30:	a905      	add	r1, sp, #20
  32:	f88d 202c 	strb.w	r2, [sp, #44]	@ 0x2c
  36:	f7ff fffe 	bl	0 <GetMyVersion>
  3a:	b910      	cbnz	r0, 42 <GetMyVersion+0x42>
  3c:	f89d 0013 	ldrb.w	r0, [sp, #19]
  40:	6020      	str	r0, [r4, #0]
  42:	b00c      	add	sp, #48	@ 0x30
  44:	e8bd 81f0 	ldmia.w	sp!, {r4, r5, r6, r7, r8, pc}
  48:	00000000 	.word	0x00000000

Disassembly of section .text.GetInt:

00000000 <GetInt>:
   0:	b5f0      	push	{r4, r5, r6, r7, lr}
   2:	b08d      	sub	sp, #52	@ 0x34
   4:	4607      	mov	r7, r0
   6:	460c      	mov	r4, r1
   8:	4615      	mov	r5, r2
   a:	2100      	movs	r1, #0
   c:	221c      	movs	r2, #28
   e:	a805      	add	r0, sp, #20
  10:	461e      	mov	r6, r3
  12:	f7ff fffe 	bl	0 <memset>
  16:	230a      	movs	r3, #10
  18:	f88d 302c 	strb.w	r3, [sp, #44]	@ 0x2c
  1c:	e9cd 5601 	strd	r5, r6, [sp, #4]
  20:	9400      	str	r4, [sp, #0]
  22:	2300      	movs	r3, #0
  24:	2201      	movs	r2, #1
  26:	a905      	add	r1, sp, #20
  28:	4802      	ldr	r0, [pc, #8]	@ (34 <GetInt+0x34>)
  2a:	9707      	str	r7, [sp, #28]
  2c:	f7ff fffe 	bl	0 <GetInt>
  30:	b00d      	add	sp, #52	@ 0x34
  32:	bdf0      	pop	{r4, r5, r6, r7, pc}
  34:	00000000 	.word	0x00000000

Disassembly of section .text.CheckBitString:

00000000 <CheckBitString>:
   0:	e92d 41f0 	stmdb	sp!, {r4, r5, r6, r7, r8, lr}
   4:	b08c      	sub	sp, #48	@ 0x30
   6:	4698      	mov	r8, r3
   8:	4606      	mov	r6, r0
   a:	460f      	mov	r7, r1
   c:	4614      	mov	r4, r2
   e:	2100      	movs	r1, #0
  10:	221c      	movs	r2, #28
  12:	a805      	add	r0, sp, #20
  14:	9d13      	ldr	r5, [sp, #76]	@ 0x4c
  16:	f7ff fffe 	bl	0 <memset>
  1a:	e9cd 7801 	strd	r7, r8, [sp, #4]
  1e:	480c      	ldr	r0, [pc, #48]	@ (50 <CheckBitString+0x50>)
  20:	9600      	str	r6, [sp, #0]
  22:	2300      	movs	r3, #0
  24:	2201      	movs	r2, #1
  26:	a905      	add	r1, sp, #20
  28:	f7ff fffe 	bl	0 <CheckBitString>
  2c:	b950      	cbnz	r0, 44 <CheckBitString+0x44>
  2e:	9b07      	ldr	r3, [sp, #28]
  30:	9a12      	ldr	r2, [sp, #72]	@ 0x48
  32:	f813 3c01 	ldrb.w	r3, [r3, #-1]
  36:	b102      	cbz	r2, 3a <CheckBitString+0x3a>
  38:	b93b      	cbnz	r3, 4a <CheckBitString+0x4a>
  3a:	b10c      	cbz	r4, 40 <CheckBitString+0x40>
  3c:	9a08      	ldr	r2, [sp, #32]
  3e:	6022      	str	r2, [r4, #0]
  40:	b105      	cbz	r5, 44 <CheckBitString+0x44>
  42:	702b      	strb	r3, [r5, #0]
  44:	b00c      	add	sp, #48	@ 0x30
  46:	e8bd 81f0 	ldmia.w	sp!, {r4, r5, r6, r7, r8, pc}
  4a:	f06f 0091 	mvn.w	r0, #145	@ 0x91
  4e:	e7f9      	b.n	44 <CheckBitString+0x44>
  50:	00000000 	.word	0x00000000

Disassembly of section .text.DecodeRsaPssParams:

00000000 <DecodeRsaPssParams>:
   0:	e92d 43f0 	stmdb	sp!, {r4, r5, r6, r7, r8, r9, lr}
   4:	b0f1      	sub	sp, #452	@ 0x1c4
   6:	f1b0 0800 	subs.w	r8, r0, #0
   a:	f10d 0716 	add.w	r7, sp, #22
   e:	4689      	mov	r9, r1
  10:	4615      	mov	r5, r2
  12:	461c      	mov	r4, r3
  14:	bf08      	it	eq
  16:	f06f 06ac 	mvneq.w	r6, #172	@ 0xac
  1a:	f04f 0314 	mov.w	r3, #20
  1e:	bf18      	it	ne
  20:	2600      	movne	r6, #0
  22:	f44f 72d2 	mov.w	r2, #420	@ 0x1a4
  26:	2100      	movs	r1, #0
  28:	a807      	add	r0, sp, #28
  2a:	803b      	strh	r3, [r7, #0]
  2c:	f7ff fffe 	bl	0 <memset>
  30:	2e00      	cmp	r6, #0
  32:	d131      	bne.n	98 <DecodeRsaPssParams+0x98>
  34:	2204      	movs	r2, #4
  36:	702a      	strb	r2, [r5, #0]
  38:	221a      	movs	r2, #26
  3a:	6022      	str	r2, [r4, #0]
  3c:	ab06      	add	r3, sp, #24
  3e:	2202      	movs	r2, #2
  40:	e9cd 3901 	strd	r3, r9, [sp, #4]
  44:	f88d 2184 	strb.w	r2, [sp, #388]	@ 0x184
  48:	4815      	ldr	r0, [pc, #84]	@ (a0 <DecodeRsaPssParams+0xa0>)
  4a:	f8cd 8000 	str.w	r8, [sp]
  4e:	2301      	movs	r3, #1
  50:	220f      	movs	r2, #15
  52:	a907      	add	r1, sp, #28
  54:	9606      	str	r6, [sp, #24]
  56:	9620      	str	r6, [sp, #128]	@ 0x80
  58:	964a      	str	r6, [sp, #296]	@ 0x128
  5a:	975d      	str	r7, [sp, #372]	@ 0x174
  5c:	f7ff fffe 	bl	0 <DecodeRsaPssParams>
  60:	b940      	cbnz	r0, 74 <DecodeRsaPssParams+0x74>
  62:	f89d 3089 	ldrb.w	r3, [sp, #137]	@ 0x89
  66:	b153      	cbz	r3, 7e <DecodeRsaPssParams+0x7e>
  68:	9b21      	ldr	r3, [sp, #132]	@ 0x84
  6a:	f5b3 7fcf 	cmp.w	r3, #414	@ 0x19e
  6e:	d004      	beq.n	7a <DecodeRsaPssParams+0x7a>
  70:	f06f 008b 	mvn.w	r0, #139	@ 0x8b
  74:	b071      	add	sp, #452	@ 0x1c4
  76:	e8bd 83f0 	ldmia.w	sp!, {r4, r5, r6, r7, r8, r9, pc}
  7a:	2306      	movs	r3, #6
  7c:	702b      	strb	r3, [r5, #0]
  7e:	f89d 3131 	ldrb.w	r3, [sp, #305]	@ 0x131
  82:	b12b      	cbz	r3, 90 <DecodeRsaPssParams+0x90>
  84:	9b4b      	ldr	r3, [sp, #300]	@ 0x12c
  86:	f5b3 7fcf 	cmp.w	r3, #414	@ 0x19e
  8a:	d1f1      	bne.n	70 <DecodeRsaPssParams+0x70>
  8c:	2301      	movs	r3, #1
  8e:	6023      	str	r3, [r4, #0]
  90:	9b78      	ldr	r3, [sp, #480]	@ 0x1e0
  92:	883a      	ldrh	r2, [r7, #0]
  94:	601a      	str	r2, [r3, #0]
  96:	e7ed      	b.n	74 <DecodeRsaPssParams+0x74>
  98:	f06f 00ac 	mvn.w	r0, #172	@ 0xac
  9c:	e7ea      	b.n	74 <DecodeRsaPssParams+0x74>
  9e:	bf00      	nop
  a0:	00000000 	.word	0x00000000

Disassembly of section .text.GetASNObjectId:

00000000 <GetASNObjectId>:
   0:	b513      	push	{r0, r1, r4, lr}
   2:	2401      	movs	r4, #1
   4:	e9cd 3400 	strd	r3, r4, [sp]
   8:	4613      	mov	r3, r2
   a:	460a      	mov	r2, r1
   c:	2106      	movs	r1, #6
   e:	f7ff fffe 	bl	0 <GetASNObjectId>
  12:	ea00 70e0 	and.w	r0, r0, r0, asr #31
  16:	b002      	add	sp, #8
  18:	bd10      	pop	{r4, pc}

Disassembly of section .text.GetObjectId:

00000000 <GetObjectId>:
   0:	b5f0      	push	{r4, r5, r6, r7, lr}
   2:	b08d      	sub	sp, #52	@ 0x34
   4:	4605      	mov	r5, r0
   6:	460e      	mov	r6, r1
   8:	4614      	mov	r4, r2
   a:	2100      	movs	r1, #0
   c:	221c      	movs	r2, #28
   e:	a805      	add	r0, sp, #20
  10:	461f      	mov	r7, r3
  12:	f7ff fffe 	bl	0 <memset>
  16:	9b12      	ldr	r3, [sp, #72]	@ 0x48
  18:	4807      	ldr	r0, [pc, #28]	@ (38 <GetObjectId+0x38>)
  1a:	9500      	str	r5, [sp, #0]
  1c:	e9cd 6301 	strd	r6, r3, [sp, #4]
  20:	2201      	movs	r2, #1
  22:	2300      	movs	r3, #0
  24:	a905      	add	r1, sp, #20
  26:	9709      	str	r7, [sp, #36]	@ 0x24
  28:	f7ff fffe 	bl	0 <GetObjectId>
  2c:	b908      	cbnz	r0, 32 <GetObjectId+0x32>
  2e:	9b0a      	ldr	r3, [sp, #40]	@ 0x28
  30:	6023      	str	r3, [r4, #0]
  32:	b00d      	add	sp, #52	@ 0x34
  34:	bdf0      	pop	{r4, r5, r6, r7, pc}
  36:	bf00      	nop
  38:	00000000 	.word	0x00000000

Disassembly of section .text.GetAlgoId:

00000000 <GetAlgoId>:
   0:	b5f0      	push	{r4, r5, r6, r7, lr}
   2:	b09b      	sub	sp, #108	@ 0x6c
   4:	4605      	mov	r5, r0
   6:	460e      	mov	r6, r1
   8:	4614      	mov	r4, r2
   a:	2100      	movs	r1, #0
   c:	2254      	movs	r2, #84	@ 0x54
   e:	a805      	add	r0, sp, #20
  10:	461f      	mov	r7, r3
  12:	f7ff fffe 	bl	0 <memset>
  16:	9b20      	ldr	r3, [sp, #128]	@ 0x80
  18:	4807      	ldr	r0, [pc, #28]	@ (38 <GetAlgoId+0x38>)
  1a:	9500      	str	r5, [sp, #0]
  1c:	e9cd 6301 	strd	r6, r3, [sp, #4]
  20:	2203      	movs	r2, #3
  22:	2300      	movs	r3, #0
  24:	a905      	add	r1, sp, #20
  26:	9710      	str	r7, [sp, #64]	@ 0x40
  28:	f7ff fffe 	bl	0 <GetAlgoId>
  2c:	b908      	cbnz	r0, 32 <GetAlgoId+0x32>
  2e:	9b11      	ldr	r3, [sp, #68]	@ 0x44
  30:	6023      	str	r3, [r4, #0]
  32:	b01b      	add	sp, #108	@ 0x6c
  34:	bdf0      	pop	{r4, r5, r6, r7, pc}
  36:	bf00      	nop
  38:	00000000 	.word	0x00000000

Disassembly of section .text.ToTraditionalInline_ex2:

00000000 <ToTraditionalInline_ex2>:
   0:	b5f0      	push	{r4, r5, r6, r7, lr}
   2:	b0c1      	sub	sp, #260	@ 0x104
   4:	460d      	mov	r5, r1
   6:	2100      	movs	r1, #0
   8:	4617      	mov	r7, r2
   a:	461e      	mov	r6, r3
   c:	f88d 1012 	strb.w	r1, [sp, #18]
  10:	4604      	mov	r4, r0
  12:	2800      	cmp	r0, #0
  14:	d055      	beq.n	c2 <ToTraditionalInline_ex2+0xc2>
  16:	2d00      	cmp	r5, #0
  18:	d053      	beq.n	c2 <ToTraditionalInline_ex2+0xc2>
  1a:	682b      	ldr	r3, [r5, #0]
  1c:	9305      	str	r3, [sp, #20]
  1e:	22e0      	movs	r2, #224	@ 0xe0
  20:	a808      	add	r0, sp, #32
  22:	f7ff fffe 	bl	0 <memset>
  26:	f10d 0212 	add.w	r2, sp, #18
  2a:	9211      	str	r2, [sp, #68]	@ 0x44
  2c:	2202      	movs	r2, #2
  2e:	9221      	str	r2, [sp, #132]	@ 0x84
  30:	2203      	movs	r2, #3
  32:	9228      	str	r2, [sp, #160]	@ 0xa0
  34:	aa05      	add	r2, sp, #20
  36:	e9cd 4200 	strd	r4, r2, [sp]
  3a:	2301      	movs	r3, #1
  3c:	4822      	ldr	r0, [pc, #136]	@ (c8 <ToTraditionalInline_ex2+0xc8>)
  3e:	9702      	str	r7, [sp, #8]
  40:	2208      	movs	r2, #8
  42:	a908      	add	r1, sp, #32
  44:	f88d 3054 	strb.w	r3, [sp, #84]	@ 0x54
  48:	f7ff fffe 	bl	0 <ToTraditionalInline_ex2>
  4c:	b9b8      	cbnz	r0, 7e <ToTraditionalInline_ex2+0x7e>
  4e:	f89d 3012 	ldrb.w	r3, [sp, #18]
  52:	9f22      	ldr	r7, [sp, #136]	@ 0x88
  54:	2b01      	cmp	r3, #1
  56:	d810      	bhi.n	7a <ToTraditionalInline_ex2+0x7a>
  58:	f240 2385 	movw	r3, #645	@ 0x285
  5c:	429f      	cmp	r7, r3
  5e:	d009      	beq.n	74 <ToTraditionalInline_ex2+0x74>
  60:	f240 238e 	movw	r3, #654	@ 0x28e
  64:	429f      	cmp	r7, r3
  66:	d011      	beq.n	8c <ToTraditionalInline_ex2+0x8c>
  68:	9b3b      	ldr	r3, [sp, #236]	@ 0xec
  6a:	6037      	str	r7, [r6, #0]
  6c:	1b1b      	subs	r3, r3, r4
  6e:	983c      	ldr	r0, [sp, #240]	@ 0xf0
  70:	602b      	str	r3, [r5, #0]
  72:	e004      	b.n	7e <ToTraditionalInline_ex2+0x7e>
  74:	f89d 30c5 	ldrb.w	r3, [sp, #197]	@ 0xc5
  78:	b91b      	cbnz	r3, 82 <ToTraditionalInline_ex2+0x82>
  7a:	f06f 008b 	mvn.w	r0, #139	@ 0x8b
  7e:	b041      	add	sp, #260	@ 0x104
  80:	bdf0      	pop	{r4, r5, r6, r7, pc}
  82:	f89d 30a9 	ldrb.w	r3, [sp, #169]	@ 0xa9
  86:	2b00      	cmp	r3, #0
  88:	d0ee      	beq.n	68 <ToTraditionalInline_ex2+0x68>
  8a:	e7f6      	b.n	7a <ToTraditionalInline_ex2+0x7a>
  8c:	f89d 30c5 	ldrb.w	r3, [sp, #197]	@ 0xc5
  90:	2b00      	cmp	r3, #0
  92:	f89d 30e1 	ldrb.w	r3, [sp, #225]	@ 0xe1
  96:	bf18      	it	ne
  98:	f06f 008b 	mvnne.w	r0, #139	@ 0x8b
  9c:	b173      	cbz	r3, bc <ToTraditionalInline_ex2+0xbc>
  9e:	9832      	ldr	r0, [sp, #200]	@ 0xc8
  a0:	9934      	ldr	r1, [sp, #208]	@ 0xd0
  a2:	9b33      	ldr	r3, [sp, #204]	@ 0xcc
  a4:	eba1 0c04 	sub.w	ip, r1, r4
  a8:	1a19      	subs	r1, r3, r0
  aa:	ab07      	add	r3, sp, #28
  ac:	9300      	str	r3, [sp, #0]
  ae:	f10d 0213 	add.w	r2, sp, #19
  b2:	ab06      	add	r3, sp, #24
  b4:	4461      	add	r1, ip
  b6:	4420      	add	r0, r4
  b8:	f7ff fffe 	bl	0 <ToTraditionalInline_ex2>
  bc:	2800      	cmp	r0, #0
  be:	d1dc      	bne.n	7a <ToTraditionalInline_ex2+0x7a>
  c0:	e7d2      	b.n	68 <ToTraditionalInline_ex2+0x68>
  c2:	f06f 00ac 	mvn.w	r0, #172	@ 0xac
  c6:	e7da      	b.n	7e <ToTraditionalInline_ex2+0x7e>
  c8:	00000000 	.word	0x00000000

Disassembly of section .text.ToTraditionalInline_ex:

00000000 <ToTraditionalInline_ex>:
   0:	b513      	push	{r0, r1, r4, lr}
   2:	2400      	movs	r4, #0
   4:	9400      	str	r4, [sp, #0]
   6:	f7ff fffe 	bl	0 <ToTraditionalInline_ex>
   a:	b002      	add	sp, #8
   c:	bd10      	pop	{r4, pc}

Disassembly of section .text._RsaPrivateKeyDecode:

00000000 <_RsaPrivateKeyDecode>:
   0:	e92d 43f0 	stmdb	sp!, {r4, r5, r6, r7, r8, r9, lr}
   4:	b0a3      	sub	sp, #140	@ 0x8c
   6:	461e      	mov	r6, r3
   8:	23ff      	movs	r3, #255	@ 0xff
   a:	f88d 3013 	strb.w	r3, [sp, #19]
   e:	2300      	movs	r3, #0
  10:	f8dd 90a8 	ldr.w	r9, [sp, #168]	@ 0xa8
  14:	9305      	str	r3, [sp, #20]
  16:	4605      	mov	r5, r0
  18:	4614      	mov	r4, r2
  1a:	460f      	mov	r7, r1
  1c:	2900      	cmp	r1, #0
  1e:	d03b      	beq.n	98 <_RsaPrivateKeyDecode+0x98>
  20:	2800      	cmp	r0, #0
  22:	d039      	beq.n	98 <_RsaPrivateKeyDecode+0x98>
  24:	b90a      	cbnz	r2, 2a <_RsaPrivateKeyDecode+0x2a>
  26:	2e00      	cmp	r6, #0
  28:	d036      	beq.n	98 <_RsaPrivateKeyDecode+0x98>
  2a:	ab05      	add	r3, sp, #20
  2c:	464a      	mov	r2, r9
  2e:	4639      	mov	r1, r7
  30:	4628      	mov	r0, r5
  32:	f7ff fffe 	bl	0 <_RsaPrivateKeyDecode>
  36:	f04f 0800 	mov.w	r8, #0
  3a:	2270      	movs	r2, #112	@ 0x70
  3c:	2100      	movs	r1, #0
  3e:	a806      	add	r0, sp, #24
  40:	f7ff fffe 	bl	0 <memset>
  44:	f1b8 0f00 	cmp.w	r8, #0
  48:	d133      	bne.n	b2 <_RsaPrivateKeyDecode+0xb2>
  4a:	2301      	movs	r3, #1
  4c:	f88d 304c 	strb.w	r3, [sp, #76]	@ 0x4c
  50:	f10d 0313 	add.w	r3, sp, #19
  54:	930f      	str	r3, [sp, #60]	@ 0x3c
  56:	b15c      	cbz	r4, 70 <_RsaPrivateKeyDecode+0x70>
  58:	4a19      	ldr	r2, [pc, #100]	@ (c0 <_RsaPrivateKeyDecode+0xc0>)
  5a:	6813      	ldr	r3, [r2, #0]
  5c:	4423      	add	r3, r4
  5e:	9316      	str	r3, [sp, #88]	@ 0x58
  60:	6853      	ldr	r3, [r2, #4]
  62:	2108      	movs	r1, #8
  64:	4423      	add	r3, r4
  66:	f88d 1068 	strb.w	r1, [sp, #104]	@ 0x68
  6a:	f88d 1084 	strb.w	r1, [sp, #132]	@ 0x84
  6e:	931d      	str	r3, [sp, #116]	@ 0x74
  70:	e9cd 7901 	strd	r7, r9, [sp, #4]
  74:	4813      	ldr	r0, [pc, #76]	@ (c4 <_RsaPrivateKeyDecode+0xc4>)
  76:	9500      	str	r5, [sp, #0]
  78:	2300      	movs	r3, #0
  7a:	2204      	movs	r2, #4
  7c:	a906      	add	r1, sp, #24
  7e:	f7ff fffe 	bl	0 <_RsaPrivateKeyDecode>
  82:	b930      	cbnz	r0, 92 <_RsaPrivateKeyDecode+0x92>
  84:	f89d 3013 	ldrb.w	r3, [sp, #19]
  88:	2b01      	cmp	r3, #1
  8a:	d815      	bhi.n	b8 <_RsaPrivateKeyDecode+0xb8>
  8c:	b13c      	cbz	r4, 9e <_RsaPrivateKeyDecode+0x9e>
  8e:	f8c4 0620 	str.w	r0, [r4, #1568]	@ 0x620
  92:	b023      	add	sp, #140	@ 0x8c
  94:	e8bd 83f0 	ldmia.w	sp!, {r4, r5, r6, r7, r8, r9, pc}
  98:	f06f 08ac 	mvn.w	r8, #172	@ 0xac
  9c:	e7cd      	b.n	3a <_RsaPrivateKeyDecode+0x3a>
  9e:	9b15      	ldr	r3, [sp, #84]	@ 0x54
  a0:	9a1b      	ldr	r2, [sp, #108]	@ 0x6c
  a2:	6033      	str	r3, [r6, #0]
  a4:	1ad2      	subs	r2, r2, r3
  a6:	5caa      	ldrb	r2, [r5, r2]
  a8:	2a00      	cmp	r2, #0
  aa:	d1f2      	bne.n	92 <_RsaPrivateKeyDecode+0x92>
  ac:	3b01      	subs	r3, #1
  ae:	6033      	str	r3, [r6, #0]
  b0:	e7ef      	b.n	92 <_RsaPrivateKeyDecode+0x92>
  b2:	f06f 00ac 	mvn.w	r0, #172	@ 0xac
  b6:	e7ec      	b.n	92 <_RsaPrivateKeyDecode+0x92>
  b8:	f06f 008b 	mvn.w	r0, #139	@ 0x8b
  bc:	e7e9      	b.n	92 <_RsaPrivateKeyDecode+0x92>
  be:	bf00      	nop
	...

Disassembly of section .text.wc_RsaPrivateKeyDecode:

00000000 <wc_RsaPrivateKeyDecode>:
   0:	b507      	push	{r0, r1, r2, lr}
   2:	b132      	cbz	r2, 12 <wc_RsaPrivateKeyDecode+0x12>
   4:	9300      	str	r3, [sp, #0]
   6:	2300      	movs	r3, #0
   8:	f7ff fffe 	bl	0 <wc_RsaPrivateKeyDecode>
   c:	b003      	add	sp, #12
   e:	f85d fb04 	ldr.w	pc, [sp], #4
  12:	f06f 00ac 	mvn.w	r0, #172	@ 0xac
  16:	e7f9      	b.n	c <wc_RsaPrivateKeyDecode+0xc>

Disassembly of section .text.wc_RsaPrivateKeyValidate:

00000000 <wc_RsaPrivateKeyValidate>:
   0:	b507      	push	{r0, r1, r2, lr}
   2:	9300      	str	r3, [sp, #0]
   4:	4613      	mov	r3, r2
   6:	2200      	movs	r2, #0
   8:	f7ff fffe 	bl	0 <wc_RsaPrivateKeyValidate>
   c:	b003      	add	sp, #12
   e:	f85d fb04 	ldr.w	pc, [sp], #4

Disassembly of section .text.ToTraditionalInline:

00000000 <ToTraditionalInline>:
   0:	b507      	push	{r0, r1, r2, lr}
   2:	ab01      	add	r3, sp, #4
   4:	f7ff fffe 	bl	0 <ToTraditionalInline>
   8:	b003      	add	sp, #12
   a:	f85d fb04 	ldr.w	pc, [sp], #4

Disassembly of section .text.ToTraditional_ex:

00000000 <ToTraditional_ex>:
   0:	b573      	push	{r0, r1, r4, r5, r6, lr}
   2:	4613      	mov	r3, r2
   4:	2200      	movs	r2, #0
   6:	460e      	mov	r6, r1
   8:	9201      	str	r2, [sp, #4]
   a:	4605      	mov	r5, r0
   c:	b188      	cbz	r0, 32 <ToTraditional_ex+0x32>
   e:	460a      	mov	r2, r1
  10:	a901      	add	r1, sp, #4
  12:	f7ff fffe 	bl	0 <ToTraditional_ex>
  16:	1e04      	subs	r4, r0, #0
  18:	db08      	blt.n	2c <ToTraditional_ex+0x2c>
  1a:	9901      	ldr	r1, [sp, #4]
  1c:	1863      	adds	r3, r4, r1
  1e:	42b3      	cmp	r3, r6
  20:	d80a      	bhi.n	38 <ToTraditional_ex+0x38>
  22:	4622      	mov	r2, r4
  24:	4429      	add	r1, r5
  26:	4628      	mov	r0, r5
  28:	f7ff fffe 	bl	0 <memmove>
  2c:	4620      	mov	r0, r4
  2e:	b002      	add	sp, #8
  30:	bd70      	pop	{r4, r5, r6, pc}
  32:	f06f 04ac 	mvn.w	r4, #172	@ 0xac
  36:	e7f9      	b.n	2c <ToTraditional_ex+0x2c>
  38:	f06f 0483 	mvn.w	r4, #131	@ 0x83
  3c:	e7f6      	b.n	2c <ToTraditional_ex+0x2c>

Disassembly of section .text.ToTraditional:

00000000 <ToTraditional>:
   0:	b507      	push	{r0, r1, r2, lr}
   2:	aa01      	add	r2, sp, #4
   4:	f7ff fffe 	bl	0 <ToTraditional>
   8:	b003      	add	sp, #12
   a:	f85d fb04 	ldr.w	pc, [sp], #4

Disassembly of section .text.wc_GetPkcs8TraditionalOffset:

00000000 <wc_GetPkcs8TraditionalOffset>:
   0:	b513      	push	{r0, r1, r4, lr}
   2:	b140      	cbz	r0, 16 <wc_GetPkcs8TraditionalOffset+0x16>
   4:	b139      	cbz	r1, 16 <wc_GetPkcs8TraditionalOffset+0x16>
   6:	680b      	ldr	r3, [r1, #0]
   8:	4293      	cmp	r3, r2
   a:	d804      	bhi.n	16 <wc_GetPkcs8TraditionalOffset+0x16>
   c:	ab01      	add	r3, sp, #4
   e:	f7ff fffe 	bl	0 <wc_GetPkcs8TraditionalOffset>
  12:	b002      	add	sp, #8
  14:	bd10      	pop	{r4, pc}
  16:	f06f 00ac 	mvn.w	r0, #172	@ 0xac
  1a:	e7fa      	b.n	12 <wc_GetPkcs8TraditionalOffset+0x12>

Disassembly of section .text.wc_CreatePKCS8Key:

00000000 <wc_CreatePKCS8Key>:
   0:	e92d 4ff0 	stmdb	sp!, {r4, r5, r6, r7, r8, r9, sl, fp, lr}
   4:	b0ad      	sub	sp, #180	@ 0xb4
   6:	4698      	mov	r8, r3
   8:	2300      	movs	r3, #0
   a:	e9cd 3301 	strd	r3, r3, [sp, #4]
   e:	f8dd 90d8 	ldr.w	r9, [sp, #216]	@ 0xd8
  12:	f8dd b0e0 	ldr.w	fp, [sp, #224]	@ 0xe0
  16:	9303      	str	r3, [sp, #12]
  18:	460f      	mov	r7, r1
  1a:	4616      	mov	r6, r2
  1c:	4605      	mov	r5, r0
  1e:	2800      	cmp	r0, #0
  20:	d14f      	bne.n	c2 <wc_CreatePKCS8Key+0xc2>
  22:	2f00      	cmp	r7, #0
  24:	bf14      	ite	ne
  26:	2400      	movne	r4, #0
  28:	f06f 04ac 	mvneq.w	r4, #172	@ 0xac
  2c:	4642      	mov	r2, r8
  2e:	a902      	add	r1, sp, #8
  30:	ab03      	add	r3, sp, #12
  32:	4630      	mov	r0, r6
  34:	f7ff fffe 	bl	0 <wc_CreatePKCS8Key>
  38:	2800      	cmp	r0, #0
  3a:	bfa8      	it	ge
  3c:	f06f 048b 	mvnge.w	r4, #139	@ 0x8b
  40:	22a0      	movs	r2, #160	@ 0xa0
  42:	2100      	movs	r1, #0
  44:	a804      	add	r0, sp, #16
  46:	f7ff fffe 	bl	0 <memset>
  4a:	bb84      	cbnz	r4, ae <wc_CreatePKCS8Key+0xae>
  4c:	f04f 0a01 	mov.w	sl, #1
  50:	aa16      	add	r2, sp, #88	@ 0x58
  52:	2102      	movs	r1, #2
  54:	4648      	mov	r0, r9
  56:	f88d a034 	strb.w	sl, [sp, #52]	@ 0x34
  5a:	f88d 402c 	strb.w	r4, [sp, #44]	@ 0x2c
  5e:	f7ff fffe 	bl	0 <wc_CreatePKCS8Key>
  62:	9b37      	ldr	r3, [sp, #220]	@ 0xdc
  64:	9015      	str	r0, [sp, #84]	@ 0x54
  66:	b333      	cbz	r3, b6 <wc_CreatePKCS8Key+0xb6>
  68:	f1bb 0f00 	cmp.w	fp, #0
  6c:	d023      	beq.n	b6 <wc_CreatePKCS8Key+0xb6>
  6e:	e9cd 3b1a 	strd	r3, fp, [sp, #104]	@ 0x68
  72:	f240 2085 	movw	r0, #645	@ 0x285
  76:	ebb9 0000 	subs.w	r0, r9, r0
  7a:	bf18      	it	ne
  7c:	2001      	movne	r0, #1
  7e:	2301      	movs	r3, #1
  80:	f88d 0085 	strb.w	r0, [sp, #133]	@ 0x85
  84:	f88d 3099 	strb.w	r3, [sp, #153]	@ 0x99
  88:	4810      	ldr	r0, [pc, #64]	@ (cc <wc_CreatePKCS8Key+0xcc>)
  8a:	ab01      	add	r3, sp, #4
  8c:	2208      	movs	r2, #8
  8e:	a904      	add	r1, sp, #16
  90:	e9cd 6829 	strd	r6, r8, [sp, #164]	@ 0xa4
  94:	f7ff fffe 	bl	0 <wc_CreatePKCS8Key>
  98:	4604      	mov	r4, r0
  9a:	b940      	cbnz	r0, ae <wc_CreatePKCS8Key+0xae>
  9c:	9c01      	ldr	r4, [sp, #4]
  9e:	603c      	str	r4, [r7, #0]
  a0:	b165      	cbz	r5, bc <wc_CreatePKCS8Key+0xbc>
  a2:	480a      	ldr	r0, [pc, #40]	@ (cc <wc_CreatePKCS8Key+0xcc>)
  a4:	462b      	mov	r3, r5
  a6:	2208      	movs	r2, #8
  a8:	a904      	add	r1, sp, #16
  aa:	f7ff fffe 	bl	0 <wc_CreatePKCS8Key>
  ae:	4620      	mov	r0, r4
  b0:	b02d      	add	sp, #180	@ 0xb4
  b2:	e8bd 8ff0 	ldmia.w	sp!, {r4, r5, r6, r7, r8, r9, sl, fp, pc}
  b6:	f88d a071 	strb.w	sl, [sp, #113]	@ 0x71
  ba:	e7da      	b.n	72 <wc_CreatePKCS8Key+0x72>
  bc:	f06f 04c9 	mvn.w	r4, #201	@ 0xc9
  c0:	e7f5      	b.n	ae <wc_CreatePKCS8Key+0xae>
  c2:	2a00      	cmp	r2, #0
  c4:	d1ad      	bne.n	22 <wc_CreatePKCS8Key+0x22>
  c6:	f06f 04ac 	mvn.w	r4, #172	@ 0xac
  ca:	e7af      	b.n	2c <wc_CreatePKCS8Key+0x2c>
  cc:	00000000 	.word	0x00000000

Disassembly of section .text.wc_RsaPublicKeyDecode_ex:

00000000 <wc_RsaPublicKeyDecode_ex>:
   0:	e92d 4ff0 	stmdb	sp!, {r4, r5, r6, r7, r8, r9, sl, fp, lr}
   4:	b0c7      	sub	sp, #284	@ 0x11c
   6:	e9dd 8750 	ldrd	r8, r7, [sp, #320]	@ 0x140
   a:	9e52      	ldr	r6, [sp, #328]	@ 0x148
   c:	4689      	mov	r9, r1
   e:	4692      	mov	sl, r2
  10:	461d      	mov	r5, r3
  12:	4604      	mov	r4, r0
  14:	b380      	cbz	r0, 78 <wc_RsaPublicKeyDecode_ex+0x78>
  16:	2900      	cmp	r1, #0
  18:	bf0c      	ite	eq
  1a:	f06f 0bac 	mvneq.w	fp, #172	@ 0xac
  1e:	f04f 0b00 	movne.w	fp, #0
  22:	22fc      	movs	r2, #252	@ 0xfc
  24:	2100      	movs	r1, #0
  26:	a807      	add	r0, sp, #28
  28:	f7ff fffe 	bl	0 <memset>
  2c:	f1bb 0f00 	cmp.w	fp, #0
  30:	d15c      	bne.n	ec <wc_RsaPublicKeyDecode_ex+0xec>
  32:	e9cd 9a01 	strd	r9, sl, [sp, #4]
  36:	482f      	ldr	r0, [pc, #188]	@ (f4 <wc_RsaPublicKeyDecode_ex+0xf4>)
  38:	9400      	str	r4, [sp, #0]
  3a:	465b      	mov	r3, fp
  3c:	2203      	movs	r2, #3
  3e:	a931      	add	r1, sp, #196	@ 0xc4
  40:	f7ff fffe 	bl	0 <wc_RsaPublicKeyDecode_ex>
  44:	b9d8      	cbnz	r0, 7e <wc_RsaPublicKeyDecode_ex+0x7e>
  46:	f89d 306d 	ldrb.w	r3, [sp, #109]	@ 0x6d
  4a:	f240 2285 	movw	r2, #645	@ 0x285
  4e:	bb33      	cbnz	r3, 9e <wc_RsaPublicKeyDecode_ex+0x9e>
  50:	4613      	mov	r3, r2
  52:	f89d 20a5 	ldrb.w	r2, [sp, #165]	@ 0xa5
  56:	bb62      	cbnz	r2, b2 <wc_RsaPublicKeyDecode_ex+0xb2>
  58:	2d00      	cmp	r5, #0
  5a:	d144      	bne.n	e6 <wc_RsaPublicKeyDecode_ex+0xe6>
  5c:	f1b8 0f00 	cmp.w	r8, #0
  60:	d002      	beq.n	68 <wc_RsaPublicKeyDecode_ex+0x68>
  62:	9b3b      	ldr	r3, [sp, #236]	@ 0xec
  64:	f8c8 3000 	str.w	r3, [r8]
  68:	b10f      	cbz	r7, 6e <wc_RsaPublicKeyDecode_ex+0x6e>
  6a:	9b41      	ldr	r3, [sp, #260]	@ 0x104
  6c:	603b      	str	r3, [r7, #0]
  6e:	b10e      	cbz	r6, 74 <wc_RsaPublicKeyDecode_ex+0x74>
  70:	9b42      	ldr	r3, [sp, #264]	@ 0x108
  72:	6033      	str	r3, [r6, #0]
  74:	2000      	movs	r0, #0
  76:	e00f      	b.n	98 <wc_RsaPublicKeyDecode_ex+0x98>
  78:	f06f 0bac 	mvn.w	fp, #172	@ 0xac
  7c:	e7d1      	b.n	22 <wc_RsaPublicKeyDecode_ex+0x22>
  7e:	2302      	movs	r3, #2
  80:	9319      	str	r3, [sp, #100]	@ 0x64
  82:	e9cd 9a01 	strd	r9, sl, [sp, #4]
  86:	481c      	ldr	r0, [pc, #112]	@ (f8 <wc_RsaPublicKeyDecode_ex+0xf8>)
  88:	9400      	str	r4, [sp, #0]
  8a:	2301      	movs	r3, #1
  8c:	2209      	movs	r2, #9
  8e:	a907      	add	r1, sp, #28
  90:	f7ff fffe 	bl	0 <wc_RsaPublicKeyDecode_ex>
  94:	2800      	cmp	r0, #0
  96:	d0d6      	beq.n	46 <wc_RsaPublicKeyDecode_ex+0x46>
  98:	b047      	add	sp, #284	@ 0x11c
  9a:	e8bd 8ff0 	ldmia.w	sp!, {r4, r5, r6, r7, r8, r9, sl, fp, pc}
  9e:	9b1a      	ldr	r3, [sp, #104]	@ 0x68
  a0:	4293      	cmp	r3, r2
  a2:	d0d6      	beq.n	52 <wc_RsaPublicKeyDecode_ex+0x52>
  a4:	f240 228e 	movw	r2, #654	@ 0x28e
  a8:	4293      	cmp	r3, r2
  aa:	d0d2      	beq.n	52 <wc_RsaPublicKeyDecode_ex+0x52>
  ac:	f06f 008b 	mvn.w	r0, #139	@ 0x8b
  b0:	e7f2      	b.n	98 <wc_RsaPublicKeyDecode_ex+0x98>
  b2:	f89d 2089 	ldrb.w	r2, [sp, #137]	@ 0x89
  b6:	2a00      	cmp	r2, #0
  b8:	d1f8      	bne.n	ac <wc_RsaPublicKeyDecode_ex+0xac>
  ba:	f240 228e 	movw	r2, #654	@ 0x28e
  be:	4293      	cmp	r3, r2
  c0:	d1f4      	bne.n	ac <wc_RsaPublicKeyDecode_ex+0xac>
  c2:	9823      	ldr	r0, [sp, #140]	@ 0x8c
  c4:	9925      	ldr	r1, [sp, #148]	@ 0x94
  c6:	9b24      	ldr	r3, [sp, #144]	@ 0x90
  c8:	eba1 0c04 	sub.w	ip, r1, r4
  cc:	1a19      	subs	r1, r3, r0
  ce:	ab06      	add	r3, sp, #24
  d0:	9300      	str	r3, [sp, #0]
  d2:	f10d 0213 	add.w	r2, sp, #19
  d6:	ab05      	add	r3, sp, #20
  d8:	4461      	add	r1, ip
  da:	4420      	add	r0, r4
  dc:	f7ff fffe 	bl	0 <wc_RsaPublicKeyDecode_ex>
  e0:	2800      	cmp	r0, #0
  e2:	d1d9      	bne.n	98 <wc_RsaPublicKeyDecode_ex+0x98>
  e4:	e7b8      	b.n	58 <wc_RsaPublicKeyDecode_ex+0x58>
  e6:	9b3a      	ldr	r3, [sp, #232]	@ 0xe8
  e8:	602b      	str	r3, [r5, #0]
  ea:	e7b7      	b.n	5c <wc_RsaPublicKeyDecode_ex+0x5c>
  ec:	f06f 00ac 	mvn.w	r0, #172	@ 0xac
  f0:	e7d2      	b.n	98 <wc_RsaPublicKeyDecode_ex+0x98>
  f2:	bf00      	nop
  f4:	00000018 	.word	0x00000018
  f8:	00000000 	.word	0x00000000

Disassembly of section .text.wc_DhKeyDecode:

00000000 <wc_DhKeyDecode>:
   0:	b5f0      	push	{r4, r5, r6, r7, lr}
   2:	460e      	mov	r6, r1
   4:	b0a1      	sub	sp, #132	@ 0x84
   6:	4614      	mov	r4, r2
   8:	461f      	mov	r7, r3
   a:	4605      	mov	r5, r0
   c:	b1d0      	cbz	r0, 44 <wc_DhKeyDecode+0x44>
   e:	b1c9      	cbz	r1, 44 <wc_DhKeyDecode+0x44>
  10:	b1c2      	cbz	r2, 44 <wc_DhKeyDecode+0x44>
  12:	2270      	movs	r2, #112	@ 0x70
  14:	2100      	movs	r1, #0
  16:	a804      	add	r0, sp, #16
  18:	f7ff fffe 	bl	0 <memset>
  1c:	2308      	movs	r3, #8
  1e:	f88d 3044 	strb.w	r3, [sp, #68]	@ 0x44
  22:	940d      	str	r4, [sp, #52]	@ 0x34
  24:	f88d 3060 	strb.w	r3, [sp, #96]	@ 0x60
  28:	f504 7443 	add.w	r4, r4, #780	@ 0x30c
  2c:	e9cd 6701 	strd	r6, r7, [sp, #4]
  30:	4806      	ldr	r0, [pc, #24]	@ (4c <wc_DhKeyDecode+0x4c>)
  32:	9500      	str	r5, [sp, #0]
  34:	2301      	movs	r3, #1
  36:	2204      	movs	r2, #4
  38:	a904      	add	r1, sp, #16
  3a:	9414      	str	r4, [sp, #80]	@ 0x50
  3c:	f7ff fffe 	bl	0 <wc_DhKeyDecode>
  40:	b021      	add	sp, #132	@ 0x84
  42:	bdf0      	pop	{r4, r5, r6, r7, pc}
  44:	f06f 00ac 	mvn.w	r0, #172	@ 0xac
  48:	e7fa      	b.n	40 <wc_DhKeyDecode+0x40>
  4a:	bf00      	nop
  4c:	00000000 	.word	0x00000000

Disassembly of section .text.wc_DhParamsLoad:

00000000 <wc_DhParamsLoad>:
   0:	e92d 47f0 	stmdb	sp!, {r4, r5, r6, r7, r8, r9, sl, lr}
   4:	b0a2      	sub	sp, #136	@ 0x88
   6:	461e      	mov	r6, r3
   8:	2300      	movs	r3, #0
   a:	e9dd a92a 	ldrd	sl, r9, [sp, #168]	@ 0xa8
   e:	4688      	mov	r8, r1
  10:	4617      	mov	r7, r2
  12:	9305      	str	r3, [sp, #20]
  14:	4605      	mov	r5, r0
  16:	b330      	cbz	r0, 66 <wc_DhParamsLoad+0x66>
  18:	b32a      	cbz	r2, 66 <wc_DhParamsLoad+0x66>
  1a:	b326      	cbz	r6, 66 <wc_DhParamsLoad+0x66>
  1c:	f1ba 0f00 	cmp.w	sl, #0
  20:	d021      	beq.n	66 <wc_DhParamsLoad+0x66>
  22:	4599      	cmp	r9, r3
  24:	bf0c      	ite	eq
  26:	f06f 04ac 	mvneq.w	r4, #172	@ 0xac
  2a:	461c      	movne	r4, r3
  2c:	2270      	movs	r2, #112	@ 0x70
  2e:	2100      	movs	r1, #0
  30:	a806      	add	r0, sp, #24
  32:	f7ff fffe 	bl	0 <memset>
  36:	b9cc      	cbnz	r4, 6c <wc_DhParamsLoad+0x6c>
  38:	2305      	movs	r3, #5
  3a:	f88d 304c 	strb.w	r3, [sp, #76]	@ 0x4c
  3e:	f88d 3068 	strb.w	r3, [sp, #104]	@ 0x68
  42:	ab05      	add	r3, sp, #20
  44:	e9cd 5300 	strd	r5, r3, [sp]
  48:	480a      	ldr	r0, [pc, #40]	@ (74 <wc_DhParamsLoad+0x74>)
  4a:	f8cd 8008 	str.w	r8, [sp, #8]
  4e:	2301      	movs	r3, #1
  50:	2204      	movs	r2, #4
  52:	a906      	add	r1, sp, #24
  54:	e9cd 760f 	strd	r7, r6, [sp, #60]	@ 0x3c
  58:	e9cd a916 	strd	sl, r9, [sp, #88]	@ 0x58
  5c:	f7ff fffe 	bl	0 <wc_DhParamsLoad>
  60:	b022      	add	sp, #136	@ 0x88
  62:	e8bd 87f0 	ldmia.w	sp!, {r4, r5, r6, r7, r8, r9, sl, pc}
  66:	f06f 04ac 	mvn.w	r4, #172	@ 0xac
  6a:	e7df      	b.n	2c <wc_DhParamsLoad+0x2c>
  6c:	f06f 00ac 	mvn.w	r0, #172	@ 0xac
  70:	e7f6      	b.n	60 <wc_DhParamsLoad+0x60>
  72:	bf00      	nop
  74:	00000000 	.word	0x00000000

Disassembly of section .text.HashIdAlg:

00000000 <HashIdAlg>:
   0:	2004      	movs	r0, #4
   2:	4770      	bx	lr

Disassembly of section .text.CalcHashId:

00000000 <CalcHashId>:
   0:	f7ff bffe 	b.w	0 <wc_ShaHash>

Disassembly of section .text.CalcHashId_ex:

00000000 <CalcHashId_ex>:
   0:	2b04      	cmp	r3, #4
   2:	d101      	bne.n	8 <CalcHashId_ex+0x8>
   4:	f7ff bffe 	b.w	0 <wc_ShaHash>
   8:	f06f 00ad 	mvn.w	r0, #173	@ 0xad
   c:	4770      	bx	lr

Disassembly of section .text.GetName:

00000000 <GetName>:
   0:	e92d 4ff0 	stmdb	sp!, {r4, r5, r6, r7, r8, r9, sl, fp, lr}
   4:	b0b5      	sub	sp, #212	@ 0xd4
   6:	f8d0 3280 	ldr.w	r3, [r0, #640]	@ 0x280
   a:	9306      	str	r3, [sp, #24]
   c:	4604      	mov	r4, r0
   e:	4615      	mov	r5, r2
  10:	4688      	mov	r8, r1
  12:	2238      	movs	r2, #56	@ 0x38
  14:	2100      	movs	r1, #0
  16:	a80a      	add	r0, sp, #40	@ 0x28
  18:	f7ff fffe 	bl	0 <memset>
  1c:	2315      	movs	r3, #21
  1e:	930e      	str	r3, [sp, #56]	@ 0x38
  20:	ab06      	add	r3, sp, #24
  22:	9502      	str	r5, [sp, #8]
  24:	9301      	str	r3, [sp, #4]
  26:	f8d4 327c 	ldr.w	r3, [r4, #636]	@ 0x27c
  2a:	9300      	str	r3, [sp, #0]
  2c:	4887      	ldr	r0, [pc, #540]	@ (24c <GetName+0x24c>)
  2e:	2300      	movs	r3, #0
  30:	2202      	movs	r2, #2
  32:	a90a      	add	r1, sp, #40	@ 0x28
  34:	f7ff fffe 	bl	0 <GetName>
  38:	bb38      	cbnz	r0, 8a <GetName+0x8a>
  3a:	f8dd 9044 	ldr.w	r9, [sp, #68]	@ 0x44
  3e:	f8c4 9280 	str.w	r9, [r4, #640]	@ 0x280
  42:	f1b8 0f00 	cmp.w	r8, #0
  46:	d123      	bne.n	90 <GetName+0x90>
  48:	f104 0a75 	add.w	sl, r4, #117	@ 0x75
  4c:	f104 0254 	add.w	r2, r4, #84	@ 0x54
  50:	f8d4 727c 	ldr.w	r7, [r4, #636]	@ 0x27c
  54:	9d06      	ldr	r5, [sp, #24]
  56:	f04f 0b00 	mov.w	fp, #0
  5a:	eba5 0109 	sub.w	r1, r5, r9
  5e:	eb07 0009 	add.w	r0, r7, r9
  62:	e9cd b907 	strd	fp, r9, [sp, #28]
  66:	f7ff fffe 	bl	0 <wc_ShaHash>
  6a:	1e06      	subs	r6, r0, #0
  6c:	bf18      	it	ne
  6e:	f06f 068b 	mvnne.w	r6, #139	@ 0x8b
  72:	2270      	movs	r2, #112	@ 0x70
  74:	4659      	mov	r1, fp
  76:	a818      	add	r0, sp, #96	@ 0x60
  78:	f7ff fffe 	bl	0 <memset>
  7c:	b996      	cbnz	r6, a4 <GetName+0xa4>
  7e:	f109 0301 	add.w	r3, r9, #1
  82:	429d      	cmp	r5, r3
  84:	d209      	bcs.n	9a <GetName+0x9a>
  86:	f06f 0083 	mvn.w	r0, #131	@ 0x83
  8a:	b035      	add	sp, #212	@ 0xd4
  8c:	e8bd 8ff0 	ldmia.w	sp!, {r4, r5, r6, r7, r8, r9, sl, fp, pc}
  90:	f204 1a75 	addw	sl, r4, #373	@ 0x175
  94:	f104 0240 	add.w	r2, r4, #64	@ 0x40
  98:	e7da      	b.n	50 <GetName+0x50>
  9a:	9309      	str	r3, [sp, #36]	@ 0x24
  9c:	f817 3009 	ldrb.w	r3, [r7, r9]
  a0:	2b30      	cmp	r3, #48	@ 0x30
  a2:	d002      	beq.n	aa <GetName+0xaa>
  a4:	f06f 008b 	mvn.w	r0, #139	@ 0x8b
  a8:	e7ef      	b.n	8a <GetName+0x8a>
  aa:	2301      	movs	r3, #1
  ac:	9300      	str	r3, [sp, #0]
  ae:	aa07      	add	r2, sp, #28
  b0:	462b      	mov	r3, r5
  b2:	a909      	add	r1, sp, #36	@ 0x24
  b4:	4638      	mov	r0, r7
  b6:	f7ff fffe 	bl	0 <GetName>
  ba:	2800      	cmp	r0, #0
  bc:	dbf2      	blt.n	a4 <GetName+0xa4>
  be:	9a07      	ldr	r2, [sp, #28]
  c0:	9b09      	ldr	r3, [sp, #36]	@ 0x24
  c2:	18d1      	adds	r1, r2, r3
  c4:	428d      	cmp	r5, r1
  c6:	d1ed      	bne.n	a4 <GetName+0xa4>
  c8:	f1b8 0f01 	cmp.w	r8, #1
  cc:	9308      	str	r3, [sp, #32]
  ce:	bf04      	itt	eq
  d0:	19db      	addeq	r3, r3, r7
  d2:	e9c4 32c5 	strdeq	r3, r2, [r4, #788]	@ 0x314
  d6:	2600      	movs	r6, #0
  d8:	9b08      	ldr	r3, [sp, #32]
  da:	429d      	cmp	r5, r3
  dc:	d805      	bhi.n	ea <GetName+0xea>
  de:	2000      	movs	r0, #0
  e0:	f80a 0006 	strb.w	r0, [sl, r6]
  e4:	f8c4 3280 	str.w	r3, [r4, #640]	@ 0x280
  e8:	e7cf      	b.n	8a <GetName+0x8a>
  ea:	f04f 030b 	mov.w	r3, #11
  ee:	f88d 30cc 	strb.w	r3, [sp, #204]	@ 0xcc
  f2:	4b57      	ldr	r3, [pc, #348]	@ (250 <GetName+0x250>)
  f4:	932f      	str	r3, [sp, #188]	@ 0xbc
  f6:	2315      	movs	r3, #21
  f8:	932a      	str	r3, [sp, #168]	@ 0xa8
  fa:	ab08      	add	r3, sp, #32
  fc:	e9cd 7300 	strd	r7, r3, [sp]
 100:	4854      	ldr	r0, [pc, #336]	@ (254 <GetName+0x254>)
 102:	9502      	str	r5, [sp, #8]
 104:	2301      	movs	r3, #1
 106:	2204      	movs	r2, #4
 108:	a918      	add	r1, sp, #96	@ 0x60
 10a:	f7ff fffe 	bl	0 <GetName>
 10e:	2800      	cmp	r0, #0
 110:	d1bb      	bne.n	8a <GetName+0x8a>
 112:	e9dd 9b28 	ldrd	r9, fp, [sp, #160]	@ 0xa0
 116:	f1bb 0f03 	cmp.w	fp, #3
 11a:	d13a      	bne.n	192 <GetName+0x192>
 11c:	f899 3000 	ldrb.w	r3, [r9]
 120:	2b55      	cmp	r3, #85	@ 0x55
 122:	d1d9      	bne.n	d8 <GetName+0xd8>
 124:	f899 3001 	ldrb.w	r3, [r9, #1]
 128:	2b04      	cmp	r3, #4
 12a:	d1d5      	bne.n	d8 <GetName+0xd8>
 12c:	f899 0002 	ldrb.w	r0, [r9, #2]
 130:	1ec3      	subs	r3, r0, #3
 132:	2b0f      	cmp	r3, #15
 134:	d8d0      	bhi.n	d8 <GetName+0xd8>
 136:	4948      	ldr	r1, [pc, #288]	@ (258 <GetName+0x258>)
 138:	eb01 02c3 	add.w	r2, r1, r3, lsl #3
 13c:	7912      	ldrb	r2, [r2, #4]
 13e:	2a00      	cmp	r2, #0
 140:	d0ca      	beq.n	d8 <GetName+0xd8>
 142:	f851 1033 	ldr.w	r1, [r1, r3, lsl #3]
 146:	2900      	cmp	r1, #0
 148:	d0c6      	beq.n	d8 <GetName+0xd8>
 14a:	f1b8 0f01 	cmp.w	r8, #1
 14e:	e9dd 392f 	ldrd	r3, r9, [sp, #188]	@ 0xbc
 152:	d107      	bne.n	164 <GetName+0x164>
 154:	2803      	cmp	r0, #3
 156:	f89d c0cd 	ldrb.w	ip, [sp, #205]	@ 0xcd
 15a:	d15f      	bne.n	21c <GetName+0x21c>
 15c:	e9c4 391b 	strd	r3, r9, [r4, #108]	@ 0x6c
 160:	f884 c074 	strb.w	ip, [r4, #116]	@ 0x74
 164:	eb09 0002 	add.w	r0, r9, r2
 168:	f5c6 7c80 	rsb	ip, r6, #256	@ 0x100
 16c:	4560      	cmp	r0, ip
 16e:	d2b3      	bcs.n	d8 <GetName+0xd8>
 170:	eb0a 0006 	add.w	r0, sl, r6
 174:	e9cd 2304 	strd	r2, r3, [sp, #16]
 178:	f7ff fffe 	bl	0 <memcpy>
 17c:	9a04      	ldr	r2, [sp, #16]
 17e:	9b05      	ldr	r3, [sp, #20]
 180:	4416      	add	r6, r2
 182:	eb0a 0006 	add.w	r0, sl, r6
 186:	464a      	mov	r2, r9
 188:	4619      	mov	r1, r3
 18a:	f7ff fffe 	bl	0 <memcpy>
 18e:	444e      	add	r6, r9
 190:	e7a2      	b.n	d8 <GetName+0xd8>
 192:	f1bb 0f09 	cmp.w	fp, #9
 196:	d10b      	bne.n	1b0 <GetName+0x1b0>
 198:	4930      	ldr	r1, [pc, #192]	@ (25c <GetName+0x25c>)
 19a:	465a      	mov	r2, fp
 19c:	4648      	mov	r0, r9
 19e:	f7ff fffe 	bl	0 <memcmp>
 1a2:	2800      	cmp	r0, #0
 1a4:	d198      	bne.n	d8 <GetName+0xd8>
 1a6:	492e      	ldr	r1, [pc, #184]	@ (260 <GetName+0x260>)
 1a8:	f44f 7080 	mov.w	r0, #256	@ 0x100
 1ac:	220e      	movs	r2, #14
 1ae:	e7cc      	b.n	14a <GetName+0x14a>
 1b0:	f1bb 0f0a 	cmp.w	fp, #10
 1b4:	d11a      	bne.n	1ec <GetName+0x1ec>
 1b6:	492b      	ldr	r1, [pc, #172]	@ (264 <GetName+0x264>)
 1b8:	465a      	mov	r2, fp
 1ba:	4648      	mov	r0, r9
 1bc:	f7ff fffe 	bl	0 <memcmp>
 1c0:	b390      	cbz	r0, 228 <GetName+0x228>
 1c2:	4929      	ldr	r1, [pc, #164]	@ (268 <GetName+0x268>)
 1c4:	465a      	mov	r2, fp
 1c6:	4648      	mov	r0, r9
 1c8:	f7ff fffe 	bl	0 <memcmp>
 1cc:	b380      	cbz	r0, 230 <GetName+0x230>
 1ce:	4927      	ldr	r1, [pc, #156]	@ (26c <GetName+0x26c>)
 1d0:	465a      	mov	r2, fp
 1d2:	4648      	mov	r0, r9
 1d4:	f7ff fffe 	bl	0 <memcmp>
 1d8:	b378      	cbz	r0, 23a <GetName+0x23a>
 1da:	4923      	ldr	r1, [pc, #140]	@ (268 <GetName+0x268>)
 1dc:	2209      	movs	r2, #9
 1de:	4648      	mov	r0, r9
 1e0:	f7ff fffe 	bl	0 <memcmp>
 1e4:	2800      	cmp	r0, #0
 1e6:	f47f af77 	bne.w	d8 <GetName+0xd8>
 1ea:	e75b      	b.n	a4 <GetName+0xa4>
 1ec:	f1bb 0f0b 	cmp.w	fp, #11
 1f0:	f47f af72 	bne.w	d8 <GetName+0xd8>
 1f4:	491e      	ldr	r1, [pc, #120]	@ (270 <GetName+0x270>)
 1f6:	220a      	movs	r2, #10
 1f8:	4648      	mov	r0, r9
 1fa:	f7ff fffe 	bl	0 <memcmp>
 1fe:	2800      	cmp	r0, #0
 200:	f47f af6a 	bne.w	d8 <GetName+0xd8>
 204:	f899 300a 	ldrb.w	r3, [r9, #10]
 208:	2b03      	cmp	r3, #3
 20a:	d01a      	beq.n	242 <GetName+0x242>
 20c:	2b02      	cmp	r3, #2
 20e:	f47f af63 	bne.w	d8 <GetName+0xd8>
 212:	4918      	ldr	r1, [pc, #96]	@ (274 <GetName+0x274>)
 214:	f240 2002 	movw	r0, #514	@ 0x202
 218:	2210      	movs	r2, #16
 21a:	e796      	b.n	14a <GetName+0x14a>
 21c:	f5b0 7f80 	cmp.w	r0, #256	@ 0x100
 220:	bf08      	it	eq
 222:	e9c4 39c7 	strdeq	r3, r9, [r4, #796]	@ 0x31c
 226:	e79d      	b.n	164 <GetName+0x164>
 228:	4913      	ldr	r1, [pc, #76]	@ (278 <GetName+0x278>)
 22a:	2012      	movs	r0, #18
 22c:	2205      	movs	r2, #5
 22e:	e78c      	b.n	14a <GetName+0x14a>
 230:	4912      	ldr	r1, [pc, #72]	@ (27c <GetName+0x27c>)
 232:	f44f 7081 	mov.w	r0, #258	@ 0x102
 236:	2204      	movs	r2, #4
 238:	e787      	b.n	14a <GetName+0x14a>
 23a:	4911      	ldr	r1, [pc, #68]	@ (280 <GetName+0x280>)
 23c:	2013      	movs	r0, #19
 23e:	2210      	movs	r2, #16
 240:	e783      	b.n	14a <GetName+0x14a>
 242:	4910      	ldr	r1, [pc, #64]	@ (284 <GetName+0x284>)
 244:	f240 2003 	movw	r0, #515	@ 0x203
 248:	220f      	movs	r2, #15
 24a:	e77e      	b.n	14a <GetName+0x14a>
	...
 260:	0000003d 	.word	0x0000003d
	...
 270:	0000004c 	.word	0x0000004c
 274:	00000000 	.word	0x00000000
 278:	00000037 	.word	0x00000037
 27c:	00000032 	.word	0x00000032
 280:	00000021 	.word	0x00000021
 284:	00000011 	.word	0x00000011

Disassembly of section .text.ExtractDate:

00000000 <ExtractDate>:
   0:	b5f8      	push	{r3, r4, r5, r6, r7, lr}
   2:	4614      	mov	r4, r2
   4:	460f      	mov	r7, r1
   6:	4605      	mov	r5, r0
   8:	2224      	movs	r2, #36	@ 0x24
   a:	2100      	movs	r1, #0
   c:	4620      	mov	r0, r4
   e:	461e      	mov	r6, r3
  10:	f7ff fffe 	bl	0 <memset>
  14:	2f17      	cmp	r7, #23
  16:	f104 0714 	add.w	r7, r4, #20
  1a:	d135      	bne.n	88 <ExtractDate+0x88>
  1c:	6833      	ldr	r3, [r6, #0]
  1e:	5ceb      	ldrb	r3, [r5, r3]
  20:	3b30      	subs	r3, #48	@ 0x30
  22:	2b04      	cmp	r3, #4
  24:	f240 716c 	movw	r1, #1900	@ 0x76c
  28:	bf98      	it	ls
  2a:	f44f 61fa 	movls.w	r1, #2000	@ 0x7d0
  2e:	6161      	str	r1, [r4, #20]
  30:	4632      	mov	r2, r6
  32:	4629      	mov	r1, r5
  34:	4638      	mov	r0, r7
  36:	f7ff fffe 	bl	0 <ExtractDate>
  3a:	bb58      	cbnz	r0, 94 <ExtractDate+0x94>
  3c:	6963      	ldr	r3, [r4, #20]
  3e:	f2a3 736c 	subw	r3, r3, #1900	@ 0x76c
  42:	6163      	str	r3, [r4, #20]
  44:	4629      	mov	r1, r5
  46:	f104 0010 	add.w	r0, r4, #16
  4a:	f7ff fffe 	bl	0 <ExtractDate>
  4e:	bb08      	cbnz	r0, 94 <ExtractDate+0x94>
  50:	6923      	ldr	r3, [r4, #16]
  52:	3b01      	subs	r3, #1
  54:	6123      	str	r3, [r4, #16]
  56:	4629      	mov	r1, r5
  58:	f104 000c 	add.w	r0, r4, #12
  5c:	f7ff fffe 	bl	0 <ExtractDate>
  60:	b9c0      	cbnz	r0, 94 <ExtractDate+0x94>
  62:	4629      	mov	r1, r5
  64:	f104 0008 	add.w	r0, r4, #8
  68:	f7ff fffe 	bl	0 <ExtractDate>
  6c:	b990      	cbnz	r0, 94 <ExtractDate+0x94>
  6e:	4629      	mov	r1, r5
  70:	1d20      	adds	r0, r4, #4
  72:	f7ff fffe 	bl	0 <ExtractDate>
  76:	b968      	cbnz	r0, 94 <ExtractDate+0x94>
  78:	4629      	mov	r1, r5
  7a:	4620      	mov	r0, r4
  7c:	f7ff fffe 	bl	0 <ExtractDate>
  80:	fab0 f080 	clz	r0, r0
  84:	0940      	lsrs	r0, r0, #5
  86:	e006      	b.n	96 <ExtractDate+0x96>
  88:	4632      	mov	r2, r6
  8a:	4629      	mov	r1, r5
  8c:	4638      	mov	r0, r7
  8e:	f7ff fffe 	bl	0 <ExtractDate>
  92:	b108      	cbz	r0, 98 <ExtractDate+0x98>
  94:	2000      	movs	r0, #0
  96:	bdf8      	pop	{r3, r4, r5, r6, r7, pc}
  98:	6961      	ldr	r1, [r4, #20]
  9a:	2364      	movs	r3, #100	@ 0x64
  9c:	4359      	muls	r1, r3
  9e:	e7c6      	b.n	2e <ExtractDate+0x2e>

Disassembly of section .text.DateGreaterThan:

00000000 <DateGreaterThan>:
   0:	6942      	ldr	r2, [r0, #20]
   2:	694b      	ldr	r3, [r1, #20]
   4:	429a      	cmp	r2, r3
   6:	b530      	push	{r4, r5, lr}
   8:	dc29      	bgt.n	5e <DateGreaterThan+0x5e>
   a:	d12a      	bne.n	62 <DateGreaterThan+0x62>
   c:	6902      	ldr	r2, [r0, #16]
   e:	690b      	ldr	r3, [r1, #16]
  10:	429a      	cmp	r2, r3
  12:	dc24      	bgt.n	5e <DateGreaterThan+0x5e>
  14:	d125      	bne.n	62 <DateGreaterThan+0x62>
  16:	68c2      	ldr	r2, [r0, #12]
  18:	68cb      	ldr	r3, [r1, #12]
  1a:	429a      	cmp	r2, r3
  1c:	dc1f      	bgt.n	5e <DateGreaterThan+0x5e>
  1e:	d103      	bne.n	28 <DateGreaterThan+0x28>
  20:	6885      	ldr	r5, [r0, #8]
  22:	688c      	ldr	r4, [r1, #8]
  24:	42a5      	cmp	r5, r4
  26:	dc1a      	bgt.n	5e <DateGreaterThan+0x5e>
  28:	429a      	cmp	r2, r3
  2a:	d11a      	bne.n	62 <DateGreaterThan+0x62>
  2c:	6885      	ldr	r5, [r0, #8]
  2e:	688c      	ldr	r4, [r1, #8]
  30:	42a5      	cmp	r5, r4
  32:	d103      	bne.n	3c <DateGreaterThan+0x3c>
  34:	6845      	ldr	r5, [r0, #4]
  36:	684c      	ldr	r4, [r1, #4]
  38:	42a5      	cmp	r5, r4
  3a:	dc10      	bgt.n	5e <DateGreaterThan+0x5e>
  3c:	429a      	cmp	r2, r3
  3e:	d110      	bne.n	62 <DateGreaterThan+0x62>
  40:	6882      	ldr	r2, [r0, #8]
  42:	688b      	ldr	r3, [r1, #8]
  44:	429a      	cmp	r2, r3
  46:	d10c      	bne.n	62 <DateGreaterThan+0x62>
  48:	6842      	ldr	r2, [r0, #4]
  4a:	684b      	ldr	r3, [r1, #4]
  4c:	429a      	cmp	r2, r3
  4e:	d108      	bne.n	62 <DateGreaterThan+0x62>
  50:	6800      	ldr	r0, [r0, #0]
  52:	680b      	ldr	r3, [r1, #0]
  54:	4298      	cmp	r0, r3
  56:	bfd4      	ite	le
  58:	2000      	movle	r0, #0
  5a:	2001      	movgt	r0, #1
  5c:	bd30      	pop	{r4, r5, pc}
  5e:	2001      	movs	r0, #1
  60:	e7fc      	b.n	5c <DateGreaterThan+0x5c>
  62:	2000      	movs	r0, #0
  64:	e7fa      	b.n	5c <DateGreaterThan+0x5c>

Disassembly of section .text.wc_SetTimeCb:

00000000 <wc_SetTimeCb>:
   0:	4b01      	ldr	r3, [pc, #4]	@ (8 <wc_SetTimeCb+0x8>)
   2:	6018      	str	r0, [r3, #0]
   4:	2000      	movs	r0, #0
   6:	4770      	bx	lr
   8:	00000000 	.word	0x00000000

Disassembly of section .text.wc_Time:

00000000 <wc_Time>:
   0:	4b05      	ldr	r3, [pc, #20]	@ (18 <wc_Time+0x18>)
   2:	b510      	push	{r4, lr}
   4:	681c      	ldr	r4, [r3, #0]
   6:	b11c      	cbz	r4, 10 <wc_Time+0x10>
   8:	4623      	mov	r3, r4
   a:	e8bd 4010 	ldmia.w	sp!, {r4, lr}
   e:	4718      	bx	r3
  10:	f7ff fffe 	bl	0 <my_time>
  14:	4621      	mov	r1, r4
  16:	bd10      	pop	{r4, pc}
  18:	00000000 	.word	0x00000000

Disassembly of section .text.wc_ValidateDate:

00000000 <wc_ValidateDate>:
   0:	b5f0      	push	{r4, r5, r6, r7, lr}
   2:	2400      	movs	r4, #0
   4:	b099      	sub	sp, #100	@ 0x64
   6:	4606      	mov	r6, r0
   8:	4620      	mov	r0, r4
   a:	460f      	mov	r7, r1
   c:	4615      	mov	r5, r2
   e:	e9cd 4401 	strd	r4, r4, [sp, #4]
  12:	9403      	str	r4, [sp, #12]
  14:	f7ff fffe 	bl	0 <wc_ValidateDate>
  18:	ab01      	add	r3, sp, #4
  1a:	e9cd 0104 	strd	r0, r1, [sp, #16]
  1e:	aa06      	add	r2, sp, #24
  20:	4639      	mov	r1, r7
  22:	4630      	mov	r0, r6
  24:	f7ff fffe 	bl	0 <wc_ValidateDate>
  28:	b910      	cbnz	r0, 30 <wc_ValidateDate+0x30>
  2a:	2000      	movs	r0, #0
  2c:	b019      	add	sp, #100	@ 0x64
  2e:	bdf0      	pop	{r4, r5, r6, r7, pc}
  30:	9a01      	ldr	r2, [sp, #4]
  32:	5cb3      	ldrb	r3, [r6, r2]
  34:	2b2b      	cmp	r3, #43	@ 0x2b
  36:	d001      	beq.n	3c <wc_ValidateDate+0x3c>
  38:	2b2d      	cmp	r3, #45	@ 0x2d
  3a:	d147      	bne.n	cc <wc_ValidateDate+0xcc>
  3c:	3201      	adds	r2, #1
  3e:	2b2b      	cmp	r3, #43	@ 0x2b
  40:	9201      	str	r2, [sp, #4]
  42:	4631      	mov	r1, r6
  44:	aa01      	add	r2, sp, #4
  46:	a802      	add	r0, sp, #8
  48:	bf14      	ite	ne
  4a:	f04f 37ff 	movne.w	r7, #4294967295	@ 0xffffffff
  4e:	2701      	moveq	r7, #1
  50:	f7ff fffe 	bl	0 <wc_ValidateDate>
  54:	2800      	cmp	r0, #0
  56:	d1e8      	bne.n	2a <wc_ValidateDate+0x2a>
  58:	4631      	mov	r1, r6
  5a:	a803      	add	r0, sp, #12
  5c:	f7ff fffe 	bl	0 <wc_ValidateDate>
  60:	2800      	cmp	r0, #0
  62:	d1e2      	bne.n	2a <wc_ValidateDate+0x2a>
  64:	e9dd 2402 	ldrd	r2, r4, [sp, #8]
  68:	233c      	movs	r3, #60	@ 0x3c
  6a:	fb03 4402 	mla	r4, r3, r2, r4
  6e:	437c      	muls	r4, r7
  70:	435c      	muls	r4, r3
  72:	9b04      	ldr	r3, [sp, #16]
  74:	9a05      	ldr	r2, [sp, #20]
  76:	1b1b      	subs	r3, r3, r4
  78:	eb62 72e4 	sbc.w	r2, r2, r4, asr #31
  7c:	a90f      	add	r1, sp, #60	@ 0x3c
  7e:	a804      	add	r0, sp, #16
  80:	e9cd 3204 	strd	r3, r2, [sp, #16]
  84:	f7ff fffe 	bl	0 <gmtime_r>
  88:	4601      	mov	r1, r0
  8a:	2800      	cmp	r0, #0
  8c:	d0cd      	beq.n	2a <wc_ValidateDate+0x2a>
  8e:	6803      	ldr	r3, [r0, #0]
  90:	2b3d      	cmp	r3, #61	@ 0x3d
  92:	d8ca      	bhi.n	2a <wc_ValidateDate+0x2a>
  94:	6843      	ldr	r3, [r0, #4]
  96:	2b3b      	cmp	r3, #59	@ 0x3b
  98:	d8c7      	bhi.n	2a <wc_ValidateDate+0x2a>
  9a:	6883      	ldr	r3, [r0, #8]
  9c:	2b17      	cmp	r3, #23
  9e:	d8c4      	bhi.n	2a <wc_ValidateDate+0x2a>
  a0:	68c3      	ldr	r3, [r0, #12]
  a2:	3b01      	subs	r3, #1
  a4:	2b1e      	cmp	r3, #30
  a6:	d8c0      	bhi.n	2a <wc_ValidateDate+0x2a>
  a8:	6903      	ldr	r3, [r0, #16]
  aa:	2b0b      	cmp	r3, #11
  ac:	d8bd      	bhi.n	2a <wc_ValidateDate+0x2a>
  ae:	6983      	ldr	r3, [r0, #24]
  b0:	2b06      	cmp	r3, #6
  b2:	d8ba      	bhi.n	2a <wc_ValidateDate+0x2a>
  b4:	69c3      	ldr	r3, [r0, #28]
  b6:	f5b3 7fb7 	cmp.w	r3, #366	@ 0x16e
  ba:	d2b6      	bcs.n	2a <wc_ValidateDate+0x2a>
  bc:	b94d      	cbnz	r5, d2 <wc_ValidateDate+0xd2>
  be:	a806      	add	r0, sp, #24
  c0:	f7ff fffe 	bl	0 <wc_ValidateDate>
  c4:	fab0 f080 	clz	r0, r0
  c8:	0940      	lsrs	r0, r0, #5
  ca:	e7af      	b.n	2c <wc_ValidateDate+0x2c>
  cc:	2b5a      	cmp	r3, #90	@ 0x5a
  ce:	d1ac      	bne.n	2a <wc_ValidateDate+0x2a>
  d0:	e7cf      	b.n	72 <wc_ValidateDate+0x72>
  d2:	a906      	add	r1, sp, #24
  d4:	e7f4      	b.n	c0 <wc_ValidateDate+0xc0>

Disassembly of section .text.wc_GetTime:

00000000 <wc_GetTime>:
   0:	b510      	push	{r4, lr}
   2:	4604      	mov	r4, r0
   4:	b140      	cbz	r0, 18 <wc_GetTime+0x18>
   6:	2907      	cmp	r1, #7
   8:	d909      	bls.n	1e <wc_GetTime+0x1e>
   a:	2000      	movs	r0, #0
   c:	f7ff fffe 	bl	0 <wc_GetTime>
  10:	e9c4 0100 	strd	r0, r1, [r4]
  14:	2000      	movs	r0, #0
  16:	bd10      	pop	{r4, pc}
  18:	f06f 00ac 	mvn.w	r0, #172	@ 0xac
  1c:	e7fb      	b.n	16 <wc_GetTime+0x16>
  1e:	f06f 0083 	mvn.w	r0, #131	@ 0x83
  22:	e7f8      	b.n	16 <wc_GetTime+0x16>

Disassembly of section .text.wc_GetDateInfo:

00000000 <wc_GetDateInfo>:
   0:	e92d 43f0 	stmdb	sp!, {r4, r5, r6, r7, r8, r9, lr}
   4:	b095      	sub	sp, #84	@ 0x54
   6:	f04f 0800 	mov.w	r8, #0
   a:	9f1c      	ldr	r7, [sp, #112]	@ 0x70
   c:	f8cd 8014 	str.w	r8, [sp, #20]
  10:	4689      	mov	r9, r1
  12:	4614      	mov	r4, r2
  14:	461d      	mov	r5, r3
  16:	4606      	mov	r6, r0
  18:	b380      	cbz	r0, 7c <wc_GetDateInfo+0x7c>
  1a:	2238      	movs	r2, #56	@ 0x38
  1c:	4641      	mov	r1, r8
  1e:	a806      	add	r0, sp, #24
  20:	f7ff fffe 	bl	0 <memset>
  24:	ab05      	add	r3, sp, #20
  26:	e9cd 6300 	strd	r6, r3, [sp]
  2a:	4816      	ldr	r0, [pc, #88]	@ (84 <wc_GetDateInfo+0x84>)
  2c:	f8cd 9008 	str.w	r9, [sp, #8]
  30:	4643      	mov	r3, r8
  32:	2202      	movs	r2, #2
  34:	a906      	add	r1, sp, #24
  36:	f7ff fffe 	bl	0 <wc_GetDateInfo>
  3a:	b9e0      	cbnz	r0, 76 <wc_GetDateInfo+0x76>
  3c:	f89d 1031 	ldrb.w	r1, [sp, #49]	@ 0x31
  40:	fab1 f181 	clz	r1, r1
  44:	0949      	lsrs	r1, r1, #5
  46:	b135      	cbz	r5, 56 <wc_GetDateInfo+0x56>
  48:	231c      	movs	r3, #28
  4a:	aa14      	add	r2, sp, #80	@ 0x50
  4c:	fb03 2301 	mla	r3, r3, r1, r2
  50:	f813 3c1f 	ldrb.w	r3, [r3, #-31]
  54:	702b      	strb	r3, [r5, #0]
  56:	b134      	cbz	r4, 66 <wc_GetDateInfo+0x66>
  58:	231c      	movs	r3, #28
  5a:	aa14      	add	r2, sp, #80	@ 0x50
  5c:	fb03 2301 	mla	r3, r3, r1, r2
  60:	f853 3c30 	ldr.w	r3, [r3, #-48]
  64:	6023      	str	r3, [r4, #0]
  66:	b137      	cbz	r7, 76 <wc_GetDateInfo+0x76>
  68:	231c      	movs	r3, #28
  6a:	aa14      	add	r2, sp, #80	@ 0x50
  6c:	fb03 2101 	mla	r1, r3, r1, r2
  70:	f851 3c2c 	ldr.w	r3, [r1, #-44]
  74:	603b      	str	r3, [r7, #0]
  76:	b015      	add	sp, #84	@ 0x54
  78:	e8bd 83f0 	ldmia.w	sp!, {r4, r5, r6, r7, r8, r9, pc}
  7c:	f06f 00ac 	mvn.w	r0, #172	@ 0xac
  80:	e7f9      	b.n	76 <wc_GetDateInfo+0x76>
  82:	bf00      	nop
  84:	00000000 	.word	0x00000000

Disassembly of section .text.wc_GetDateAsCalendarTime:

00000000 <wc_GetDateAsCalendarTime>:
   0:	b507      	push	{r0, r1, r2, lr}
   2:	4611      	mov	r1, r2
   4:	461a      	mov	r2, r3
   6:	2300      	movs	r3, #0
   8:	9301      	str	r3, [sp, #4]
   a:	ab01      	add	r3, sp, #4
   c:	f7ff fffe 	bl	0 <wc_GetDateAsCalendarTime>
  10:	2800      	cmp	r0, #0
  12:	bf0c      	ite	eq
  14:	f06f 0098 	mvneq.w	r0, #152	@ 0x98
  18:	2000      	movne	r0, #0
  1a:	b003      	add	sp, #12
  1c:	f85d fb04 	ldr.w	pc, [sp], #4

Disassembly of section .text.SetLength:

00000000 <SetLength>:
   0:	287f      	cmp	r0, #127	@ 0x7f
   2:	b538      	push	{r3, r4, r5, lr}
   4:	4602      	mov	r2, r0
   6:	d804      	bhi.n	12 <SetLength+0x12>
   8:	b909      	cbnz	r1, e <SetLength+0xe>
   a:	2001      	movs	r0, #1
   c:	bd38      	pop	{r3, r4, r5, pc}
   e:	7008      	strb	r0, [r1, #0]
  10:	e7fb      	b.n	a <SetLength+0xa>
  12:	f7ff fffe 	bl	0 <SetLength>
  16:	b111      	cbz	r1, 1e <SetLength+0x1e>
  18:	f060 037f 	orn	r3, r0, #127	@ 0x7f
  1c:	700b      	strb	r3, [r1, #0]
  1e:	b2c0      	uxtb	r0, r0
  20:	1e43      	subs	r3, r0, #1
  22:	00db      	lsls	r3, r3, #3
  24:	1c4c      	adds	r4, r1, #1
  26:	f113 0f08 	cmn.w	r3, #8
  2a:	d101      	bne.n	30 <SetLength+0x30>
  2c:	3001      	adds	r0, #1
  2e:	e7ed      	b.n	c <SetLength+0xc>
  30:	b111      	cbz	r1, 38 <SetLength+0x38>
  32:	fa22 f503 	lsr.w	r5, r2, r3
  36:	7025      	strb	r5, [r4, #0]
  38:	3b08      	subs	r3, #8
  3a:	3401      	adds	r4, #1
  3c:	e7f3      	b.n	26 <SetLength+0x26>

Disassembly of section .text.SetObjectId:

00000000 <SetObjectId>:
   0:	b508      	push	{r3, lr}
   2:	b111      	cbz	r1, a <SetObjectId+0xa>
   4:	2306      	movs	r3, #6
   6:	f801 3b01 	strb.w	r3, [r1], #1
   a:	f7ff fffe 	bl	0 <SetObjectId>
   e:	3001      	adds	r0, #1
  10:	bd08      	pop	{r3, pc}

Disassembly of section .text.SetLengthEx:

00000000 <SetLengthEx>:
   0:	b122      	cbz	r2, c <SetLengthEx+0xc>
   2:	b109      	cbz	r1, 8 <SetLengthEx+0x8>
   4:	2280      	movs	r2, #128	@ 0x80
   6:	700a      	strb	r2, [r1, #0]
   8:	2001      	movs	r0, #1
   a:	4770      	bx	lr
   c:	f7ff bffe 	b.w	0 <SetLengthEx>

Disassembly of section .text.SetHeader:

00000000 <SetHeader>:
   0:	b510      	push	{r4, lr}
   2:	4604      	mov	r4, r0
   4:	4608      	mov	r0, r1
   6:	4611      	mov	r1, r2
   8:	461a      	mov	r2, r3
   a:	b109      	cbz	r1, 10 <SetHeader+0x10>
   c:	f801 4b01 	strb.w	r4, [r1], #1
  10:	f7ff fffe 	bl	0 <SetHeader>
  14:	3001      	adds	r0, #1
  16:	bd10      	pop	{r4, pc}

Disassembly of section .text.SetSequence:

00000000 <SetSequence>:
   0:	460a      	mov	r2, r1
   2:	2300      	movs	r3, #0
   4:	4601      	mov	r1, r0
   6:	2030      	movs	r0, #48	@ 0x30
   8:	f7ff bffe 	b.w	0 <SetSequence>

Disassembly of section .text.SetSequenceEx:

00000000 <SetSequenceEx>:
   0:	4613      	mov	r3, r2
   2:	460a      	mov	r2, r1
   4:	4601      	mov	r1, r0
   6:	2030      	movs	r0, #48	@ 0x30
   8:	f7ff bffe 	b.w	0 <SetSequenceEx>

Disassembly of section .text.SetOctetString:

00000000 <SetOctetString>:
   0:	460a      	mov	r2, r1
   2:	2300      	movs	r3, #0
   4:	4601      	mov	r1, r0
   6:	2004      	movs	r0, #4
   8:	f7ff bffe 	b.w	0 <SetOctetString>

Disassembly of section .text.SetOctetStringEx:

00000000 <SetOctetStringEx>:
   0:	b430      	push	{r4, r5}
   2:	4613      	mov	r3, r2
   4:	b12a      	cbz	r2, 12 <SetOctetStringEx+0x12>
   6:	460a      	mov	r2, r1
   8:	bc30      	pop	{r4, r5}
   a:	4601      	mov	r1, r0
   c:	2024      	movs	r0, #36	@ 0x24
   e:	f7ff bffe 	b.w	0 <SetOctetStringEx>
  12:	bc30      	pop	{r4, r5}
  14:	f7ff bffe 	b.w	0 <SetOctetStringEx>

Disassembly of section .text.SetSet:

00000000 <SetSet>:
   0:	460a      	mov	r2, r1
   2:	2300      	movs	r3, #0
   4:	4601      	mov	r1, r0
   6:	2031      	movs	r0, #49	@ 0x31
   8:	f7ff bffe 	b.w	0 <SetSet>

Disassembly of section .text.SetImplicit:

00000000 <SetImplicit>:
   0:	b410      	push	{r4}
   2:	2804      	cmp	r0, #4
   4:	460c      	mov	r4, r1
   6:	4611      	mov	r1, r2
   8:	461a      	mov	r2, r3
   a:	f89d 3004 	ldrb.w	r3, [sp, #4]
   e:	d105      	bne.n	1c <SetImplicit+0x1c>
  10:	b19b      	cbz	r3, 3a <SetImplicit+0x3a>
  12:	f044 00a0 	orr.w	r0, r4, #160	@ 0xa0
  16:	f3c0 1340 	ubfx	r3, r0, #5, #1
  1a:	e00a      	b.n	32 <SetImplicit+0x32>
  1c:	3810      	subs	r0, #16
  1e:	2801      	cmp	r0, #1
  20:	bf94      	ite	ls
  22:	f06f 005f 	mvnls.w	r0, #95	@ 0x5f
  26:	f06f 007f 	mvnhi.w	r0, #127	@ 0x7f
  2a:	4320      	orrs	r0, r4
  2c:	b2c0      	uxtb	r0, r0
  2e:	2b00      	cmp	r3, #0
  30:	d1f1      	bne.n	16 <SetImplicit+0x16>
  32:	f85d 4b04 	ldr.w	r4, [sp], #4
  36:	f7ff bffe 	b.w	0 <SetImplicit>
  3a:	f06f 007f 	mvn.w	r0, #127	@ 0x7f
  3e:	e7f4      	b.n	2a <SetImplicit+0x2a>

Disassembly of section .text.SetExplicit:

00000000 <SetExplicit>:
   0:	f040 00a0 	orr.w	r0, r0, #160	@ 0xa0
   4:	f7ff bffe 	b.w	0 <SetExplicit>

Disassembly of section .text.SetAlgoID:

00000000 <SetAlgoID>:
   0:	e92d 43f0 	stmdb	sp!, {r4, r5, r6, r7, r8, r9, lr}
   4:	b093      	sub	sp, #76	@ 0x4c
   6:	4604      	mov	r4, r0
   8:	4616      	mov	r6, r2
   a:	460f      	mov	r7, r1
   c:	223c      	movs	r2, #60	@ 0x3c
   e:	2100      	movs	r1, #0
  10:	a803      	add	r0, sp, #12
  12:	461d      	mov	r5, r3
  14:	f7ff fffe 	bl	0 <memset>
  18:	aa01      	add	r2, sp, #4
  1a:	4631      	mov	r1, r6
  1c:	4620      	mov	r0, r4
  1e:	f7ff fffe 	bl	0 <SetAlgoID>
  22:	b398      	cbz	r0, 8c <SetAlgoID+0x8c>
  24:	aa0b      	add	r2, sp, #44	@ 0x2c
  26:	4620      	mov	r0, r4
  28:	f7ff fffe 	bl	0 <SetAlgoID>
  2c:	2e01      	cmp	r6, #1
  2e:	900a      	str	r0, [sp, #40]	@ 0x28
  30:	d932      	bls.n	98 <SetAlgoID+0x98>
  32:	2e02      	cmp	r6, #2
  34:	d12d      	bne.n	92 <SetAlgoID+0x92>
  36:	f240 2385 	movw	r3, #645	@ 0x285
  3a:	429c      	cmp	r4, r3
  3c:	d129      	bne.n	92 <SetAlgoID+0x92>
  3e:	2d00      	cmp	r5, #0
  40:	dc30      	bgt.n	a4 <SetAlgoID+0xa4>
  42:	2400      	movs	r4, #0
  44:	4b1c      	ldr	r3, [pc, #112]	@ (b8 <SetAlgoID+0xb8>)
  46:	eb03 0884 	add.w	r8, r3, r4, lsl #2
  4a:	4263      	negs	r3, r4
  4c:	f003 0314 	and.w	r3, r3, #20
  50:	aa03      	add	r2, sp, #12
  52:	18d6      	adds	r6, r2, r3
  54:	f1c4 0903 	rsb	r9, r4, #3
  58:	ab02      	add	r3, sp, #8
  5a:	464a      	mov	r2, r9
  5c:	4631      	mov	r1, r6
  5e:	4640      	mov	r0, r8
  60:	f7ff fffe 	bl	0 <SetAlgoID>
  64:	bb28      	cbnz	r0, b2 <SetAlgoID+0xb2>
  66:	b187      	cbz	r7, 8a <SetAlgoID+0x8a>
  68:	463b      	mov	r3, r7
  6a:	464a      	mov	r2, r9
  6c:	4631      	mov	r1, r6
  6e:	4640      	mov	r0, r8
  70:	f7ff fffe 	bl	0 <SetAlgoID>
  74:	2d00      	cmp	r5, #0
  76:	dd08      	ble.n	8a <SetAlgoID+0x8a>
  78:	2314      	movs	r3, #20
  7a:	aa12      	add	r2, sp, #72	@ 0x48
  7c:	fb03 2404 	mla	r4, r3, r4, r2
  80:	9a0d      	ldr	r2, [sp, #52]	@ 0x34
  82:	f854 3c3c 	ldr.w	r3, [r4, #-60]
  86:	1a9b      	subs	r3, r3, r2
  88:	9302      	str	r3, [sp, #8]
  8a:	9802      	ldr	r0, [sp, #8]
  8c:	b013      	add	sp, #76	@ 0x4c
  8e:	e8bd 83f0 	ldmia.w	sp!, {r4, r5, r6, r7, r8, r9, pc}
  92:	2301      	movs	r3, #1
  94:	f88d 3045 	strb.w	r3, [sp, #69]	@ 0x45
  98:	f240 2303 	movw	r3, #515	@ 0x203
  9c:	429c      	cmp	r4, r3
  9e:	d1ce      	bne.n	3e <SetAlgoID+0x3e>
  a0:	2401      	movs	r4, #1
  a2:	e7cf      	b.n	44 <SetAlgoID+0x44>
  a4:	2300      	movs	r3, #0
  a6:	f88d 3045 	strb.w	r3, [sp, #69]	@ 0x45
  aa:	930f      	str	r3, [sp, #60]	@ 0x3c
  ac:	1eab      	subs	r3, r5, #2
  ae:	9310      	str	r3, [sp, #64]	@ 0x40
  b0:	e7c7      	b.n	42 <SetAlgoID+0x42>
  b2:	2000      	movs	r0, #0
  b4:	e7ea      	b.n	8c <SetAlgoID+0x8c>
  b6:	bf00      	nop
  b8:	00000000 	.word	0x00000000

Disassembly of section .text.wc_EncodeSignature:

00000000 <wc_EncodeSignature>:
   0:	b5f0      	push	{r4, r5, r6, r7, lr}
   2:	b0a3      	sub	sp, #140	@ 0x8c
   4:	461f      	mov	r7, r3
   6:	4605      	mov	r5, r0
   8:	460c      	mov	r4, r1
   a:	4616      	mov	r6, r2
   c:	2100      	movs	r1, #0
   e:	2264      	movs	r2, #100	@ 0x64
  10:	a809      	add	r0, sp, #36	@ 0x24
  12:	f7ff fffe 	bl	0 <memset>
  16:	aa16      	add	r2, sp, #88	@ 0x58
  18:	2100      	movs	r1, #0
  1a:	4638      	mov	r0, r7
  1c:	f7ff fffe 	bl	0 <wc_EncodeSignature>
  20:	42ac      	cmp	r4, r5
  22:	9015      	str	r0, [sp, #84]	@ 0x54
  24:	d105      	bne.n	32 <wc_EncodeSignature+0x32>
  26:	4621      	mov	r1, r4
  28:	4632      	mov	r2, r6
  2a:	a801      	add	r0, sp, #4
  2c:	f7ff fffe 	bl	0 <memcpy>
  30:	ac01      	add	r4, sp, #4
  32:	480a      	ldr	r0, [pc, #40]	@ (5c <wc_EncodeSignature+0x5c>)
  34:	466b      	mov	r3, sp
  36:	2205      	movs	r2, #5
  38:	a909      	add	r1, sp, #36	@ 0x24
  3a:	e9cd 461f 	strd	r4, r6, [sp, #124]	@ 0x7c
  3e:	f7ff fffe 	bl	0 <wc_EncodeSignature>
  42:	b940      	cbnz	r0, 56 <wc_EncodeSignature+0x56>
  44:	4805      	ldr	r0, [pc, #20]	@ (5c <wc_EncodeSignature+0x5c>)
  46:	462b      	mov	r3, r5
  48:	2205      	movs	r2, #5
  4a:	a909      	add	r1, sp, #36	@ 0x24
  4c:	f7ff fffe 	bl	0 <wc_EncodeSignature>
  50:	9800      	ldr	r0, [sp, #0]
  52:	b023      	add	sp, #140	@ 0x8c
  54:	bdf0      	pop	{r4, r5, r6, r7, pc}
  56:	2000      	movs	r0, #0
  58:	e7fb      	b.n	52 <wc_EncodeSignature+0x52>
  5a:	bf00      	nop
  5c:	00000000 	.word	0x00000000

Disassembly of section .text.SetMyVersion:

00000000 <SetMyVersion>:
   0:	4603      	mov	r3, r0
   2:	b169      	cbz	r1, 20 <SetMyVersion+0x20>
   4:	b122      	cbz	r2, 10 <SetMyVersion+0x10>
   6:	22a0      	movs	r2, #160	@ 0xa0
   8:	700a      	strb	r2, [r1, #0]
   a:	2203      	movs	r2, #3
   c:	704a      	strb	r2, [r1, #1]
   e:	2202      	movs	r2, #2
  10:	2002      	movs	r0, #2
  12:	5488      	strb	r0, [r1, r2]
  14:	4411      	add	r1, r2
  16:	2001      	movs	r0, #1
  18:	7048      	strb	r0, [r1, #1]
  1a:	708b      	strb	r3, [r1, #2]
  1c:	1cd0      	adds	r0, r2, #3
  1e:	4770      	bx	lr
  20:	f06f 00ac 	mvn.w	r0, #172	@ 0xac
  24:	4770      	bx	lr

Disassembly of section .text.GetNameHash_ex:

00000000 <GetNameHash_ex>:
   0:	b5f0      	push	{r4, r5, r6, r7, lr}
   2:	b093      	sub	sp, #76	@ 0x4c
   4:	4604      	mov	r4, r0
   6:	460e      	mov	r6, r1
   8:	4615      	mov	r5, r2
   a:	2100      	movs	r1, #0
   c:	2238      	movs	r2, #56	@ 0x38
   e:	a804      	add	r0, sp, #16
  10:	461f      	mov	r7, r3
  12:	f7ff fffe 	bl	0 <memset>
  16:	2315      	movs	r3, #21
  18:	9308      	str	r3, [sp, #32]
  1a:	e9cd 6701 	strd	r6, r7, [sp, #4]
  1e:	480a      	ldr	r0, [pc, #40]	@ (48 <GetNameHash_ex+0x48>)
  20:	9400      	str	r4, [sp, #0]
  22:	2300      	movs	r3, #0
  24:	2202      	movs	r2, #2
  26:	a904      	add	r1, sp, #16
  28:	f7ff fffe 	bl	0 <GetNameHash_ex>
  2c:	b948      	cbnz	r0, 42 <GetNameHash_ex+0x42>
  2e:	980b      	ldr	r0, [sp, #44]	@ 0x2c
  30:	990d      	ldr	r1, [sp, #52]	@ 0x34
  32:	9b0c      	ldr	r3, [sp, #48]	@ 0x30
  34:	1b09      	subs	r1, r1, r4
  36:	1a1b      	subs	r3, r3, r0
  38:	462a      	mov	r2, r5
  3a:	4419      	add	r1, r3
  3c:	4420      	add	r0, r4
  3e:	f7ff fffe 	bl	0 <wc_ShaHash>
  42:	b013      	add	sp, #76	@ 0x4c
  44:	bdf0      	pop	{r4, r5, r6, r7, pc}
  46:	bf00      	nop
  48:	00000000 	.word	0x00000000

Disassembly of section .text.GetNameHash:

00000000 <GetNameHash>:
   0:	b513      	push	{r0, r1, r4, lr}
   2:	2400      	movs	r4, #0
   4:	9400      	str	r4, [sp, #0]
   6:	f7ff fffe 	bl	0 <GetNameHash>
   a:	b002      	add	sp, #8
   c:	bd10      	pop	{r4, pc}

Disassembly of section .text.wc_RsaPublicKeyDecodeRaw:

00000000 <wc_RsaPublicKeyDecodeRaw>:
   0:	e92d 41f0 	stmdb	sp!, {r4, r5, r6, r7, r8, lr}
   4:	9c06      	ldr	r4, [sp, #24]
   6:	4688      	mov	r8, r1
   8:	4615      	mov	r5, r2
   a:	461f      	mov	r7, r3
   c:	4606      	mov	r6, r0
   e:	b368      	cbz	r0, 6c <wc_RsaPublicKeyDecodeRaw+0x6c>
  10:	b362      	cbz	r2, 6c <wc_RsaPublicKeyDecodeRaw+0x6c>
  12:	b35c      	cbz	r4, 6c <wc_RsaPublicKeyDecodeRaw+0x6c>
  14:	2300      	movs	r3, #0
  16:	f8c4 3620 	str.w	r3, [r4, #1568]	@ 0x620
  1a:	4620      	mov	r0, r4
  1c:	f7ff fffe 	bl	0 <sp_init>
  20:	b9a8      	cbnz	r0, 4e <wc_RsaPublicKeyDecodeRaw+0x4e>
  22:	4642      	mov	r2, r8
  24:	4631      	mov	r1, r6
  26:	4620      	mov	r0, r4
  28:	f7ff fffe 	bl	0 <sp_read_unsigned_bin>
  2c:	b130      	cbz	r0, 3c <wc_RsaPublicKeyDecodeRaw+0x3c>
  2e:	4620      	mov	r0, r4
  30:	f7ff fffe 	bl	0 <sp_clear>
  34:	f06f 008d 	mvn.w	r0, #141	@ 0x8d
  38:	e8bd 81f0 	ldmia.w	sp!, {r4, r5, r6, r7, r8, pc}
  3c:	f504 7643 	add.w	r6, r4, #780	@ 0x30c
  40:	4630      	mov	r0, r6
  42:	f7ff fffe 	bl	0 <sp_init>
  46:	b128      	cbz	r0, 54 <wc_RsaPublicKeyDecodeRaw+0x54>
  48:	4620      	mov	r0, r4
  4a:	f7ff fffe 	bl	0 <sp_clear>
  4e:	f06f 006d 	mvn.w	r0, #109	@ 0x6d
  52:	e7f1      	b.n	38 <wc_RsaPublicKeyDecodeRaw+0x38>
  54:	463a      	mov	r2, r7
  56:	4629      	mov	r1, r5
  58:	4630      	mov	r0, r6
  5a:	f7ff fffe 	bl	0 <sp_read_unsigned_bin>
  5e:	2800      	cmp	r0, #0
  60:	d0ea      	beq.n	38 <wc_RsaPublicKeyDecodeRaw+0x38>
  62:	4620      	mov	r0, r4
  64:	f7ff fffe 	bl	0 <sp_clear>
  68:	4630      	mov	r0, r6
  6a:	e7e1      	b.n	30 <wc_RsaPublicKeyDecodeRaw+0x30>
  6c:	f06f 00ac 	mvn.w	r0, #172	@ 0xac
  70:	e7e2      	b.n	38 <wc_RsaPublicKeyDecodeRaw+0x38>

Disassembly of section .text.wc_RsaPublicKeyDecode:

00000000 <wc_RsaPublicKeyDecode>:
   0:	b530      	push	{r4, r5, lr}
   2:	2500      	movs	r5, #0
   4:	b089      	sub	sp, #36	@ 0x24
   6:	4614      	mov	r4, r2
   8:	e9cd 5504 	strd	r5, r5, [sp, #16]
   c:	e9cd 5506 	strd	r5, r5, [sp, #24]
  10:	461a      	mov	r2, r3
  12:	b194      	cbz	r4, 3a <wc_RsaPublicKeyDecode+0x3a>
  14:	ab07      	add	r3, sp, #28
  16:	9302      	str	r3, [sp, #8]
  18:	ab05      	add	r3, sp, #20
  1a:	9301      	str	r3, [sp, #4]
  1c:	ab06      	add	r3, sp, #24
  1e:	9300      	str	r3, [sp, #0]
  20:	ab04      	add	r3, sp, #16
  22:	f7ff fffe 	bl	0 <wc_RsaPublicKeyDecode>
  26:	b930      	cbnz	r0, 36 <wc_RsaPublicKeyDecode+0x36>
  28:	e9dd 2105 	ldrd	r2, r1, [sp, #20]
  2c:	9b07      	ldr	r3, [sp, #28]
  2e:	9804      	ldr	r0, [sp, #16]
  30:	9400      	str	r4, [sp, #0]
  32:	f7ff fffe 	bl	0 <wc_RsaPublicKeyDecode>
  36:	b009      	add	sp, #36	@ 0x24
  38:	bd30      	pop	{r4, r5, pc}
  3a:	f06f 00ac 	mvn.w	r0, #172	@ 0xac
  3e:	e7fa      	b.n	36 <wc_RsaPublicKeyDecode+0x36>

Disassembly of section .text.wc_CheckPrivateKey.part.0:

00000000 <wc_CheckPrivateKey.part.0>:
   0:	e92d 43f0 	stmdb	sp!, {r4, r5, r6, r7, r8, r9, lr}
   4:	f04f 0900 	mov.w	r9, #0
   8:	f6ad 4d6c 	subw	sp, sp, #3180	@ 0xc6c
   c:	4607      	mov	r7, r0
   e:	4688      	mov	r8, r1
  10:	a802      	add	r0, sp, #8
  12:	4649      	mov	r1, r9
  14:	4615      	mov	r5, r2
  16:	461e      	mov	r6, r3
  18:	f8cd 9004 	str.w	r9, [sp, #4]
  1c:	f7ff fffe 	bl	0 <wc_InitRsaKey>
  20:	1e04      	subs	r4, r0, #0
  22:	db09      	blt.n	38 <wc_CheckPrivateKey.part.0+0x38>
  24:	4649      	mov	r1, r9
  26:	f50d 60c7 	add.w	r0, sp, #1592	@ 0x638
  2a:	f7ff fffe 	bl	0 <wc_InitRsaKey>
  2e:	1e04      	subs	r4, r0, #0
  30:	da07      	bge.n	42 <wc_CheckPrivateKey.part.0+0x42>
  32:	a802      	add	r0, sp, #8
  34:	f7ff fffe 	bl	0 <wc_FreeRsaKey>
  38:	4620      	mov	r0, r4
  3a:	f60d 4d6c 	addw	sp, sp, #3180	@ 0xc6c
  3e:	e8bd 83f0 	ldmia.w	sp!, {r4, r5, r6, r7, r8, r9, pc}
  42:	4643      	mov	r3, r8
  44:	aa02      	add	r2, sp, #8
  46:	a901      	add	r1, sp, #4
  48:	4638      	mov	r0, r7
  4a:	f7ff fffe 	bl	0 <wc_CheckPrivateKey.part.0>
  4e:	4604      	mov	r4, r0
  50:	b9b8      	cbnz	r0, 82 <wc_CheckPrivateKey.part.0+0x82>
  52:	9001      	str	r0, [sp, #4]
  54:	4633      	mov	r3, r6
  56:	f50d 62c7 	add.w	r2, sp, #1592	@ 0x638
  5a:	a901      	add	r1, sp, #4
  5c:	4628      	mov	r0, r5
  5e:	f7ff fffe 	bl	0 <wc_CheckPrivateKey.part.0>
  62:	4604      	mov	r4, r0
  64:	b968      	cbnz	r0, 82 <wc_CheckPrivateKey.part.0+0x82>
  66:	f50d 61c7 	add.w	r1, sp, #1592	@ 0x638
  6a:	a802      	add	r0, sp, #8
  6c:	f7ff fffe 	bl	0 <sp_cmp>
  70:	b928      	cbnz	r0, 7e <wc_CheckPrivateKey.part.0+0x7e>
  72:	f60d 1144 	addw	r1, sp, #2372	@ 0x944
  76:	a8c5      	add	r0, sp, #788	@ 0x314
  78:	f7ff fffe 	bl	0 <sp_cmp>
  7c:	b130      	cbz	r0, 8c <wc_CheckPrivateKey.part.0+0x8c>
  7e:	f06f 0477 	mvn.w	r4, #119	@ 0x77
  82:	f50d 60c7 	add.w	r0, sp, #1592	@ 0x638
  86:	f7ff fffe 	bl	0 <wc_FreeRsaKey>
  8a:	e7d2      	b.n	32 <wc_CheckPrivateKey.part.0+0x32>
  8c:	2401      	movs	r4, #1
  8e:	e7f8      	b.n	82 <wc_CheckPrivateKey.part.0+0x82>

Disassembly of section .text.wc_CheckPrivateKey:

00000000 <wc_CheckPrivateKey>:
   0:	b430      	push	{r4, r5}
   2:	f8bd 4008 	ldrh.w	r4, [sp, #8]
   6:	b158      	cbz	r0, 20 <wc_CheckPrivateKey+0x20>
   8:	b152      	cbz	r2, 20 <wc_CheckPrivateKey+0x20>
   a:	f240 2585 	movw	r5, #645	@ 0x285
   e:	42ac      	cmp	r4, r5
  10:	d003      	beq.n	1a <wc_CheckPrivateKey+0x1a>
  12:	f240 258e 	movw	r5, #654	@ 0x28e
  16:	42ac      	cmp	r4, r5
  18:	d106      	bne.n	28 <wc_CheckPrivateKey+0x28>
  1a:	bc30      	pop	{r4, r5}
  1c:	f7ff bffe 	b.w	0 <wc_CheckPrivateKey>
  20:	f06f 00ac 	mvn.w	r0, #172	@ 0xac
  24:	bc30      	pop	{r4, r5}
  26:	4770      	bx	lr
  28:	2000      	movs	r0, #0
  2a:	e7fb      	b.n	24 <wc_CheckPrivateKey+0x24>

Disassembly of section .text.wc_CheckPrivateKeyCert:

00000000 <wc_CheckPrivateKeyCert>:
   0:	b507      	push	{r0, r1, r2, lr}
   2:	b148      	cbz	r0, 18 <wc_CheckPrivateKeyCert+0x18>
   4:	b142      	cbz	r2, 18 <wc_CheckPrivateKeyCert+0x18>
   6:	8b93      	ldrh	r3, [r2, #28]
   8:	9300      	str	r3, [sp, #0]
   a:	e9d2 2300 	ldrd	r2, r3, [r2]
   e:	f7ff fffe 	bl	0 <wc_CheckPrivateKeyCert>
  12:	b003      	add	sp, #12
  14:	f85d fb04 	ldr.w	pc, [sp], #4
  18:	f06f 00ac 	mvn.w	r0, #172	@ 0xac
  1c:	e7f9      	b.n	12 <wc_CheckPrivateKeyCert+0x12>

blake2s.o:     file format elf32-littlearm


chacha.o:     file format elf32-littlearm


chacha20_poly1305.o:     file format elf32-littlearm


coding.o:     file format elf32-littlearm


Disassembly of section .text.Base64_Char2Val:

00000000 <Base64_Char2Val>:
   0:	f1a0 032b 	sub.w	r3, r0, #43	@ 0x2b
   4:	b2db      	uxtb	r3, r3
   6:	f1c3 023f 	rsb	r2, r3, #63	@ 0x3f
   a:	f003 003f 	and.w	r0, r3, #63	@ 0x3f
   e:	f003 030f 	and.w	r3, r3, #15
  12:	b510      	push	{r4, lr}
  14:	f043 0340 	orr.w	r3, r3, #64	@ 0x40
  18:	4c05      	ldr	r4, [pc, #20]	@ (30 <Base64_Char2Val+0x30>)
  1a:	f3c2 11c0 	ubfx	r1, r2, #7, #1
  1e:	5c20      	ldrb	r0, [r4, r0]
  20:	5ce3      	ldrb	r3, [r4, r3]
  22:	3901      	subs	r1, #1
  24:	f342 12c0 	sbfx	r2, r2, #7, #1
  28:	4013      	ands	r3, r2
  2a:	4008      	ands	r0, r1
  2c:	4318      	orrs	r0, r3
  2e:	bd10      	pop	{r4, pc}
  30:	00000000 	.word	0x00000000

Disassembly of section .text.CEscape:

00000000 <CEscape>:
   0:	e92d 41f0 	stmdb	sp!, {r4, r5, r6, r7, r8, lr}
   4:	469c      	mov	ip, r3
   6:	e9dd 3e07 	ldrd	r3, lr, [sp, #28]
   a:	f8dc 4000 	ldr.w	r4, [ip]
   e:	b90b      	cbnz	r3, 14 <CEscape+0x14>
  10:	4b2e      	ldr	r3, [pc, #184]	@ (cc <CEscape+0xcc>)
  12:	5c59      	ldrb	r1, [r3, r1]
  14:	2801      	cmp	r0, #1
  16:	d113      	bne.n	40 <CEscape+0x40>
  18:	292b      	cmp	r1, #43	@ 0x2b
  1a:	d017      	beq.n	4c <CEscape+0x4c>
  1c:	293d      	cmp	r1, #61	@ 0x3d
  1e:	d019      	beq.n	54 <CEscape+0x54>
  20:	290a      	cmp	r1, #10
  22:	d11b      	bne.n	5c <CEscape+0x5c>
  24:	2700      	movs	r7, #0
  26:	4605      	mov	r5, r0
  28:	46b8      	mov	r8, r7
  2a:	2603      	movs	r6, #3
  2c:	9b06      	ldr	r3, [sp, #24]
  2e:	4426      	add	r6, r4
  30:	429e      	cmp	r6, r3
  32:	d918      	bls.n	66 <CEscape+0x66>
  34:	f1be 0f00 	cmp.w	lr, #0
  38:	d144      	bne.n	c4 <CEscape+0xc4>
  3a:	f06f 0083 	mvn.w	r0, #131	@ 0x83
  3e:	e01b      	b.n	78 <CEscape+0x78>
  40:	2500      	movs	r5, #0
  42:	462f      	mov	r7, r5
  44:	46a8      	mov	r8, r5
  46:	2601      	movs	r6, #1
  48:	4628      	mov	r0, r5
  4a:	e7ef      	b.n	2c <CEscape+0x2c>
  4c:	2500      	movs	r5, #0
  4e:	462f      	mov	r7, r5
  50:	4680      	mov	r8, r0
  52:	e7ea      	b.n	2a <CEscape+0x2a>
  54:	2500      	movs	r5, #0
  56:	4607      	mov	r7, r0
  58:	46a8      	mov	r8, r5
  5a:	e7e6      	b.n	2a <CEscape+0x2a>
  5c:	2500      	movs	r5, #0
  5e:	462f      	mov	r7, r5
  60:	46a8      	mov	r8, r5
  62:	4606      	mov	r6, r0
  64:	e7f0      	b.n	48 <CEscape+0x48>
  66:	b958      	cbnz	r0, 80 <CEscape+0x80>
  68:	1c60      	adds	r0, r4, #1
  6a:	f1be 0f00 	cmp.w	lr, #0
  6e:	d005      	beq.n	7c <CEscape+0x7c>
  70:	1c60      	adds	r0, r4, #1
  72:	f8cc 0000 	str.w	r0, [ip]
  76:	2000      	movs	r0, #0
  78:	e8bd 81f0 	ldmia.w	sp!, {r4, r5, r6, r7, r8, pc}
  7c:	5511      	strb	r1, [r2, r4]
  7e:	e7f8      	b.n	72 <CEscape+0x72>
  80:	f1be 0f00 	cmp.w	lr, #0
  84:	d001      	beq.n	8a <CEscape+0x8a>
  86:	1ce0      	adds	r0, r4, #3
  88:	e7f3      	b.n	72 <CEscape+0x72>
  8a:	2125      	movs	r1, #37	@ 0x25
  8c:	5511      	strb	r1, [r2, r4]
  8e:	1c60      	adds	r0, r4, #1
  90:	f1b8 0f00 	cmp.w	r8, #0
  94:	d006      	beq.n	a4 <CEscape+0xa4>
  96:	2332      	movs	r3, #50	@ 0x32
  98:	5413      	strb	r3, [r2, r0]
  9a:	1ce0      	adds	r0, r4, #3
  9c:	2342      	movs	r3, #66	@ 0x42
  9e:	4414      	add	r4, r2
  a0:	70a3      	strb	r3, [r4, #2]
  a2:	e7e6      	b.n	72 <CEscape+0x72>
  a4:	b12f      	cbz	r7, b2 <CEscape+0xb2>
  a6:	2333      	movs	r3, #51	@ 0x33
  a8:	5413      	strb	r3, [r2, r0]
  aa:	1ce0      	adds	r0, r4, #3
  ac:	2344      	movs	r3, #68	@ 0x44
  ae:	4414      	add	r4, r2
  b0:	e7f6      	b.n	a0 <CEscape+0xa0>
  b2:	2d00      	cmp	r5, #0
  b4:	d0dd      	beq.n	72 <CEscape+0x72>
  b6:	2330      	movs	r3, #48	@ 0x30
  b8:	5413      	strb	r3, [r2, r0]
  ba:	4422      	add	r2, r4
  bc:	2341      	movs	r3, #65	@ 0x41
  be:	1ce0      	adds	r0, r4, #3
  c0:	7093      	strb	r3, [r2, #2]
  c2:	e7d6      	b.n	72 <CEscape+0x72>
  c4:	2800      	cmp	r0, #0
  c6:	d0d3      	beq.n	70 <CEscape+0x70>
  c8:	e7dd      	b.n	86 <CEscape+0x86>
  ca:	bf00      	nop
  cc:	00000000 	.word	0x00000000

Disassembly of section .text.DoBase64_Encode:

00000000 <DoBase64_Encode>:
   0:	e92d 4ff0 	stmdb	sp!, {r4, r5, r6, r7, r8, r9, sl, fp, lr}
   4:	b08d      	sub	sp, #52	@ 0x34
   6:	461d      	mov	r5, r3
   8:	9e16      	ldr	r6, [sp, #88]	@ 0x58
   a:	9005      	str	r0, [sp, #20]
   c:	2300      	movs	r3, #0
   e:	fab2 f482 	clz	r4, r2
  12:	930b      	str	r3, [sp, #44]	@ 0x2c
  14:	4617      	mov	r7, r2
  16:	2303      	movs	r3, #3
  18:	1c8a      	adds	r2, r1, #2
  1a:	fbb2 f2f3 	udiv	r2, r2, r3
  1e:	0092      	lsls	r2, r2, #2
  20:	f102 033f 	add.w	r3, r2, #63	@ 0x3f
  24:	2e01      	cmp	r6, #1
  26:	4688      	mov	r8, r1
  28:	ea4f 1454 	mov.w	r4, r4, lsr #5
  2c:	ea4f 1393 	mov.w	r3, r3, lsr #6
  30:	f040 808a 	bne.w	148 <DoBase64_Encode+0x148>
  34:	eb03 0343 	add.w	r3, r3, r3, lsl #1
  38:	4413      	add	r3, r2
  3a:	9306      	str	r3, [sp, #24]
  3c:	2d00      	cmp	r5, #0
  3e:	f000 80f5 	beq.w	22c <DoBase64_Encode+0x22c>
  42:	682b      	ldr	r3, [r5, #0]
  44:	9a06      	ldr	r2, [sp, #24]
  46:	4293      	cmp	r3, r2
  48:	d202      	bcs.n	50 <DoBase64_Encode+0x50>
  4a:	2f00      	cmp	r7, #0
  4c:	f040 80ee 	bne.w	22c <DoBase64_Encode+0x22c>
  50:	f04f 0a00 	mov.w	sl, #0
  54:	f8dd b014 	ldr.w	fp, [sp, #20]
  58:	46d1      	mov	r9, sl
  5a:	f1b8 0f02 	cmp.w	r8, #2
  5e:	d877      	bhi.n	150 <DoBase64_Encode+0x150>
  60:	f1b8 0f00 	cmp.w	r8, #0
  64:	d04a      	beq.n	fc <DoBase64_Encode+0xfc>
  66:	9b05      	ldr	r3, [sp, #20]
  68:	f1b8 0f02 	cmp.w	r8, #2
  6c:	f813 a009 	ldrb.w	sl, [r3, r9]
  70:	bf04      	itt	eq
  72:	444b      	addeq	r3, r9
  74:	4699      	moveq	r9, r3
  76:	f04f 0300 	mov.w	r3, #0
  7a:	bf08      	it	eq
  7c:	f899 9001 	ldrbeq.w	r9, [r9, #1]
  80:	9402      	str	r4, [sp, #8]
  82:	9301      	str	r3, [sp, #4]
  84:	682b      	ldr	r3, [r5, #0]
  86:	9300      	str	r3, [sp, #0]
  88:	463a      	mov	r2, r7
  8a:	ab0b      	add	r3, sp, #44	@ 0x2c
  8c:	ea4f 019a 	mov.w	r1, sl, lsr #2
  90:	4630      	mov	r0, r6
  92:	bf18      	it	ne
  94:	f04f 0900 	movne.w	r9, #0
  98:	f7ff fffe 	bl	0 <DoBase64_Encode>
  9c:	2800      	cmp	r0, #0
  9e:	d13b      	bne.n	118 <DoBase64_Encode+0x118>
  a0:	e9cd 0401 	strd	r0, r4, [sp, #4]
  a4:	ea4f 110a 	mov.w	r1, sl, lsl #4
  a8:	682b      	ldr	r3, [r5, #0]
  aa:	9300      	str	r3, [sp, #0]
  ac:	f001 0130 	and.w	r1, r1, #48	@ 0x30
  b0:	ab0b      	add	r3, sp, #44	@ 0x2c
  b2:	463a      	mov	r2, r7
  b4:	ea41 1119 	orr.w	r1, r1, r9, lsr #4
  b8:	4630      	mov	r0, r6
  ba:	f7ff fffe 	bl	0 <DoBase64_Encode>
  be:	bb58      	cbnz	r0, 118 <DoBase64_Encode+0x118>
  c0:	f1b8 0f02 	cmp.w	r8, #2
  c4:	682b      	ldr	r3, [r5, #0]
  c6:	f040 80a7 	bne.w	218 <DoBase64_Encode+0x218>
  ca:	e9cd 0401 	strd	r0, r4, [sp, #4]
  ce:	ea4f 0189 	mov.w	r1, r9, lsl #2
  d2:	9300      	str	r3, [sp, #0]
  d4:	463a      	mov	r2, r7
  d6:	ab0b      	add	r3, sp, #44	@ 0x2c
  d8:	f001 013c 	and.w	r1, r1, #60	@ 0x3c
  dc:	4630      	mov	r0, r6
  de:	f7ff fffe 	bl	0 <DoBase64_Encode>
  e2:	b9c8      	cbnz	r0, 118 <DoBase64_Encode+0x118>
  e4:	2301      	movs	r3, #1
  e6:	9402      	str	r4, [sp, #8]
  e8:	9301      	str	r3, [sp, #4]
  ea:	682b      	ldr	r3, [r5, #0]
  ec:	9300      	str	r3, [sp, #0]
  ee:	463a      	mov	r2, r7
  f0:	ab0b      	add	r3, sp, #44	@ 0x2c
  f2:	213d      	movs	r1, #61	@ 0x3d
  f4:	4630      	mov	r0, r6
  f6:	f7ff fffe 	bl	0 <DoBase64_Encode>
  fa:	b968      	cbnz	r0, 118 <DoBase64_Encode+0x118>
  fc:	2e02      	cmp	r6, #2
  fe:	f000 8093 	beq.w	228 <DoBase64_Encode+0x228>
 102:	2301      	movs	r3, #1
 104:	9402      	str	r4, [sp, #8]
 106:	9301      	str	r3, [sp, #4]
 108:	682b      	ldr	r3, [r5, #0]
 10a:	9300      	str	r3, [sp, #0]
 10c:	463a      	mov	r2, r7
 10e:	ab0b      	add	r3, sp, #44	@ 0x2c
 110:	210a      	movs	r1, #10
 112:	4630      	mov	r0, r6
 114:	f7ff fffe 	bl	0 <DoBase64_Encode>
 118:	9b0b      	ldr	r3, [sp, #44]	@ 0x2c
 11a:	9a06      	ldr	r2, [sp, #24]
 11c:	4293      	cmp	r3, r2
 11e:	d004      	beq.n	12a <DoBase64_Encode+0x12a>
 120:	2e01      	cmp	r6, #1
 122:	d002      	beq.n	12a <DoBase64_Encode+0x12a>
 124:	2800      	cmp	r0, #0
 126:	f000 8084 	beq.w	232 <DoBase64_Encode+0x232>
 12a:	b127      	cbz	r7, 136 <DoBase64_Encode+0x136>
 12c:	682a      	ldr	r2, [r5, #0]
 12e:	4293      	cmp	r3, r2
 130:	bf3c      	itt	cc
 132:	2200      	movcc	r2, #0
 134:	54fa      	strbcc	r2, [r7, r3]
 136:	602b      	str	r3, [r5, #0]
 138:	b918      	cbnz	r0, 142 <DoBase64_Encode+0x142>
 13a:	2f00      	cmp	r7, #0
 13c:	bf08      	it	eq
 13e:	f06f 00c9 	mvneq.w	r0, #201	@ 0xc9
 142:	b00d      	add	sp, #52	@ 0x34
 144:	e8bd 8ff0 	ldmia.w	sp!, {r4, r5, r6, r7, r8, r9, sl, fp, pc}
 148:	2e02      	cmp	r6, #2
 14a:	bf08      	it	eq
 14c:	2300      	moveq	r3, #0
 14e:	e773      	b.n	38 <DoBase64_Encode+0x38>
 150:	f89b 1000 	ldrb.w	r1, [fp]
 154:	f89b 3001 	ldrb.w	r3, [fp, #1]
 158:	f89b 0002 	ldrb.w	r0, [fp, #2]
 15c:	9402      	str	r4, [sp, #8]
 15e:	010a      	lsls	r2, r1, #4
 160:	f002 0230 	and.w	r2, r2, #48	@ 0x30
 164:	ea42 1213 	orr.w	r2, r2, r3, lsr #4
 168:	009b      	lsls	r3, r3, #2
 16a:	f003 033c 	and.w	r3, r3, #60	@ 0x3c
 16e:	ea43 1390 	orr.w	r3, r3, r0, lsr #6
 172:	9308      	str	r3, [sp, #32]
 174:	f000 033f 	and.w	r3, r0, #63	@ 0x3f
 178:	9309      	str	r3, [sp, #36]	@ 0x24
 17a:	2300      	movs	r3, #0
 17c:	9301      	str	r3, [sp, #4]
 17e:	682b      	ldr	r3, [r5, #0]
 180:	9207      	str	r2, [sp, #28]
 182:	9300      	str	r3, [sp, #0]
 184:	463a      	mov	r2, r7
 186:	ab0b      	add	r3, sp, #44	@ 0x2c
 188:	0889      	lsrs	r1, r1, #2
 18a:	4630      	mov	r0, r6
 18c:	f109 0903 	add.w	r9, r9, #3
 190:	f7ff fffe 	bl	0 <DoBase64_Encode>
 194:	2800      	cmp	r0, #0
 196:	d1bf      	bne.n	118 <DoBase64_Encode+0x118>
 198:	e9cd 0401 	strd	r0, r4, [sp, #4]
 19c:	682b      	ldr	r3, [r5, #0]
 19e:	9300      	str	r3, [sp, #0]
 1a0:	9907      	ldr	r1, [sp, #28]
 1a2:	ab0b      	add	r3, sp, #44	@ 0x2c
 1a4:	463a      	mov	r2, r7
 1a6:	4630      	mov	r0, r6
 1a8:	f7ff fffe 	bl	0 <DoBase64_Encode>
 1ac:	2800      	cmp	r0, #0
 1ae:	d1b3      	bne.n	118 <DoBase64_Encode+0x118>
 1b0:	e9cd 0401 	strd	r0, r4, [sp, #4]
 1b4:	682b      	ldr	r3, [r5, #0]
 1b6:	9300      	str	r3, [sp, #0]
 1b8:	9908      	ldr	r1, [sp, #32]
 1ba:	ab0b      	add	r3, sp, #44	@ 0x2c
 1bc:	463a      	mov	r2, r7
 1be:	4630      	mov	r0, r6
 1c0:	f7ff fffe 	bl	0 <DoBase64_Encode>
 1c4:	2800      	cmp	r0, #0
 1c6:	d1a7      	bne.n	118 <DoBase64_Encode+0x118>
 1c8:	e9cd 0401 	strd	r0, r4, [sp, #4]
 1cc:	682b      	ldr	r3, [r5, #0]
 1ce:	9300      	str	r3, [sp, #0]
 1d0:	9909      	ldr	r1, [sp, #36]	@ 0x24
 1d2:	ab0b      	add	r3, sp, #44	@ 0x2c
 1d4:	463a      	mov	r2, r7
 1d6:	4630      	mov	r0, r6
 1d8:	f7ff fffe 	bl	0 <DoBase64_Encode>
 1dc:	2800      	cmp	r0, #0
 1de:	d19b      	bne.n	118 <DoBase64_Encode+0x118>
 1e0:	2e02      	cmp	r6, #2
 1e2:	f1a8 0803 	sub.w	r8, r8, #3
 1e6:	d014      	beq.n	212 <DoBase64_Encode+0x212>
 1e8:	f10a 0a01 	add.w	sl, sl, #1
 1ec:	f01a 0f0f 	tst.w	sl, #15
 1f0:	d10f      	bne.n	212 <DoBase64_Encode+0x212>
 1f2:	f1b8 0f00 	cmp.w	r8, #0
 1f6:	d00c      	beq.n	212 <DoBase64_Encode+0x212>
 1f8:	2301      	movs	r3, #1
 1fa:	9402      	str	r4, [sp, #8]
 1fc:	9301      	str	r3, [sp, #4]
 1fe:	682b      	ldr	r3, [r5, #0]
 200:	9300      	str	r3, [sp, #0]
 202:	463a      	mov	r2, r7
 204:	ab0b      	add	r3, sp, #44	@ 0x2c
 206:	210a      	movs	r1, #10
 208:	4630      	mov	r0, r6
 20a:	f7ff fffe 	bl	0 <DoBase64_Encode>
 20e:	2800      	cmp	r0, #0
 210:	d182      	bne.n	118 <DoBase64_Encode+0x118>
 212:	f10b 0b03 	add.w	fp, fp, #3
 216:	e720      	b.n	5a <DoBase64_Encode+0x5a>
 218:	2201      	movs	r2, #1
 21a:	e9cd 3200 	strd	r3, r2, [sp]
 21e:	9402      	str	r4, [sp, #8]
 220:	ab0b      	add	r3, sp, #44	@ 0x2c
 222:	463a      	mov	r2, r7
 224:	213d      	movs	r1, #61	@ 0x3d
 226:	e759      	b.n	dc <DoBase64_Encode+0xdc>
 228:	2000      	movs	r0, #0
 22a:	e775      	b.n	118 <DoBase64_Encode+0x118>
 22c:	f06f 00ac 	mvn.w	r0, #172	@ 0xac
 230:	e787      	b.n	142 <DoBase64_Encode+0x142>
 232:	f06f 0099 	mvn.w	r0, #153	@ 0x99
 236:	e784      	b.n	142 <DoBase64_Encode+0x142>

Disassembly of section .text.Base64_SkipNewline:

00000000 <Base64_SkipNewline>:
   0:	b5f0      	push	{r4, r5, r6, r7, lr}
   2:	680c      	ldr	r4, [r1, #0]
   4:	6813      	ldr	r3, [r2, #0]
   6:	b35c      	cbz	r4, 60 <Base64_SkipNewline+0x60>
   8:	5cc5      	ldrb	r5, [r0, r3]
   a:	2c01      	cmp	r4, #1
   c:	d001      	beq.n	12 <Base64_SkipNewline+0x12>
   e:	2d20      	cmp	r5, #32
  10:	d013      	beq.n	3a <Base64_SkipNewline+0x3a>
  12:	2d0d      	cmp	r5, #13
  14:	d001      	beq.n	1a <Base64_SkipNewline+0x1a>
  16:	2d0a      	cmp	r5, #10
  18:	d117      	bne.n	4a <Base64_SkipNewline+0x4a>
  1a:	2d0d      	cmp	r5, #13
  1c:	f103 0701 	add.w	r7, r3, #1
  20:	f104 36ff 	add.w	r6, r4, #4294967295	@ 0xffffffff
  24:	d10d      	bne.n	42 <Base64_SkipNewline+0x42>
  26:	b12e      	cbz	r6, 34 <Base64_SkipNewline+0x34>
  28:	1ea6      	subs	r6, r4, #2
  2a:	5dc4      	ldrb	r4, [r0, r7]
  2c:	2c0a      	cmp	r4, #10
  2e:	f103 0302 	add.w	r3, r3, #2
  32:	d007      	beq.n	44 <Base64_SkipNewline+0x44>
  34:	f06f 0099 	mvn.w	r0, #153	@ 0x99
  38:	bdf0      	pop	{r4, r5, r6, r7, pc}
  3a:	3301      	adds	r3, #1
  3c:	3c01      	subs	r4, #1
  3e:	5cc5      	ldrb	r5, [r0, r3]
  40:	e7e3      	b.n	a <Base64_SkipNewline+0xa>
  42:	463b      	mov	r3, r7
  44:	b166      	cbz	r6, 60 <Base64_SkipNewline+0x60>
  46:	5cc5      	ldrb	r5, [r0, r3]
  48:	4634      	mov	r4, r6
  4a:	2d20      	cmp	r5, #32
  4c:	d003      	beq.n	56 <Base64_SkipNewline+0x56>
  4e:	600c      	str	r4, [r1, #0]
  50:	2000      	movs	r0, #0
  52:	6013      	str	r3, [r2, #0]
  54:	e7f0      	b.n	38 <Base64_SkipNewline+0x38>
  56:	3c01      	subs	r4, #1
  58:	d002      	beq.n	60 <Base64_SkipNewline+0x60>
  5a:	3301      	adds	r3, #1
  5c:	5cc5      	ldrb	r5, [r0, r3]
  5e:	e7f4      	b.n	4a <Base64_SkipNewline+0x4a>
  60:	f06f 0083 	mvn.w	r0, #131	@ 0x83
  64:	e7e8      	b.n	38 <Base64_SkipNewline+0x38>

Disassembly of section .text.Base64_Decode:

00000000 <Base64_Decode>:
   0:	e92d 4ff0 	stmdb	sp!, {r4, r5, r6, r7, r8, r9, sl, fp, lr}
   4:	b085      	sub	sp, #20
   6:	461f      	mov	r7, r3
   8:	9101      	str	r1, [sp, #4]
   a:	1c4b      	adds	r3, r1, #1
   c:	313f      	adds	r1, #63	@ 0x3f
   e:	4616      	mov	r6, r2
  10:	eba3 1391 	sub.w	r3, r3, r1, lsr #6
  14:	683a      	ldr	r2, [r7, #0]
  16:	eb03 0343 	add.w	r3, r3, r3, lsl #1
  1a:	2500      	movs	r5, #0
  1c:	ebb2 0f93 	cmp.w	r2, r3, lsr #2
  20:	4604      	mov	r4, r0
  22:	9503      	str	r5, [sp, #12]
  24:	f080 8099 	bcs.w	15a <Base64_Decode+0x15a>
  28:	f06f 00ac 	mvn.w	r0, #172	@ 0xac
  2c:	b005      	add	sp, #20
  2e:	e8bd 8ff0 	ldmia.w	sp!, {r4, r5, r6, r7, r8, r9, sl, fp, pc}
  32:	9b03      	ldr	r3, [sp, #12]
  34:	f814 8003 	ldrb.w	r8, [r4, r3]
  38:	1c58      	adds	r0, r3, #1
  3a:	9003      	str	r0, [sp, #12]
  3c:	f1b8 0f00 	cmp.w	r8, #0
  40:	f000 809a 	beq.w	178 <Base64_Decode+0x178>
  44:	9b01      	ldr	r3, [sp, #4]
  46:	4620      	mov	r0, r4
  48:	3b01      	subs	r3, #1
  4a:	9301      	str	r3, [sp, #4]
  4c:	f7ff fffe 	bl	0 <Base64_Decode>
  50:	2800      	cmp	r0, #0
  52:	d1eb      	bne.n	2c <Base64_Decode+0x2c>
  54:	9b03      	ldr	r3, [sp, #12]
  56:	1c58      	adds	r0, r3, #1
  58:	f814 9003 	ldrb.w	r9, [r4, r3]
  5c:	9b01      	ldr	r3, [sp, #4]
  5e:	9003      	str	r0, [sp, #12]
  60:	3b01      	subs	r3, #1
  62:	4620      	mov	r0, r4
  64:	9301      	str	r3, [sp, #4]
  66:	f7ff fffe 	bl	0 <Base64_Decode>
  6a:	2800      	cmp	r0, #0
  6c:	d1de      	bne.n	2c <Base64_Decode+0x2c>
  6e:	9b03      	ldr	r3, [sp, #12]
  70:	1c58      	adds	r0, r3, #1
  72:	f814 a003 	ldrb.w	sl, [r4, r3]
  76:	9b01      	ldr	r3, [sp, #4]
  78:	9003      	str	r0, [sp, #12]
  7a:	3b01      	subs	r3, #1
  7c:	4620      	mov	r0, r4
  7e:	9301      	str	r3, [sp, #4]
  80:	f7ff fffe 	bl	0 <Base64_Decode>
  84:	2800      	cmp	r0, #0
  86:	d1d1      	bne.n	2c <Base64_Decode+0x2c>
  88:	9b03      	ldr	r3, [sp, #12]
  8a:	1c5a      	adds	r2, r3, #1
  8c:	f814 b003 	ldrb.w	fp, [r4, r3]
  90:	9b01      	ldr	r3, [sp, #4]
  92:	9203      	str	r2, [sp, #12]
  94:	3b01      	subs	r3, #1
  96:	f1ba 0f3d 	cmp.w	sl, #61	@ 0x3d
  9a:	9301      	str	r3, [sp, #4]
  9c:	d102      	bne.n	a4 <Base64_Decode+0xa4>
  9e:	f1bb 0f3d 	cmp.w	fp, #61	@ 0x3d
  a2:	d178      	bne.n	196 <Base64_Decode+0x196>
  a4:	f1a8 032b 	sub.w	r3, r8, #43	@ 0x2b
  a8:	2b4f      	cmp	r3, #79	@ 0x4f
  aa:	d874      	bhi.n	196 <Base64_Decode+0x196>
  ac:	f1a9 032b 	sub.w	r3, r9, #43	@ 0x2b
  b0:	2b4f      	cmp	r3, #79	@ 0x4f
  b2:	d870      	bhi.n	196 <Base64_Decode+0x196>
  b4:	f1aa 032b 	sub.w	r3, sl, #43	@ 0x2b
  b8:	2b4f      	cmp	r3, #79	@ 0x4f
  ba:	d86c      	bhi.n	196 <Base64_Decode+0x196>
  bc:	f1ab 032b 	sub.w	r3, fp, #43	@ 0x2b
  c0:	2b4f      	cmp	r3, #79	@ 0x4f
  c2:	d868      	bhi.n	196 <Base64_Decode+0x196>
  c4:	f1bb 033d 	subs.w	r3, fp, #61	@ 0x3d
  c8:	bf18      	it	ne
  ca:	2301      	movne	r3, #1
  cc:	f1ba 0f3d 	cmp.w	sl, #61	@ 0x3d
  d0:	bf18      	it	ne
  d2:	3301      	addne	r3, #1
  d4:	683a      	ldr	r2, [r7, #0]
  d6:	3301      	adds	r3, #1
  d8:	442b      	add	r3, r5
  da:	4293      	cmp	r3, r2
  dc:	d8a4      	bhi.n	28 <Base64_Decode+0x28>
  de:	4640      	mov	r0, r8
  e0:	f7ff fffe 	bl	0 <Base64_Decode>
  e4:	4680      	mov	r8, r0
  e6:	4648      	mov	r0, r9
  e8:	f7ff fffe 	bl	0 <Base64_Decode>
  ec:	f1ba 0f3d 	cmp.w	sl, #61	@ 0x3d
  f0:	4602      	mov	r2, r0
  f2:	d04b      	beq.n	18c <Base64_Decode+0x18c>
  f4:	9000      	str	r0, [sp, #0]
  f6:	4650      	mov	r0, sl
  f8:	f7ff fffe 	bl	0 <Base64_Decode>
  fc:	9a00      	ldr	r2, [sp, #0]
  fe:	4681      	mov	r9, r0
 100:	f1bb 0f3d 	cmp.w	fp, #61	@ 0x3d
 104:	d045      	beq.n	192 <Base64_Decode+0x192>
 106:	4658      	mov	r0, fp
 108:	9200      	str	r2, [sp, #0]
 10a:	f7ff fffe 	bl	0 <Base64_Decode>
 10e:	9a00      	ldr	r2, [sp, #0]
 110:	4603      	mov	r3, r0
 112:	f1b8 0fff 	cmp.w	r8, #255	@ 0xff
 116:	d03e      	beq.n	196 <Base64_Decode+0x196>
 118:	2aff      	cmp	r2, #255	@ 0xff
 11a:	d03c      	beq.n	196 <Base64_Decode+0x196>
 11c:	f1b9 0fff 	cmp.w	r9, #255	@ 0xff
 120:	d039      	beq.n	196 <Base64_Decode+0x196>
 122:	2bff      	cmp	r3, #255	@ 0xff
 124:	d037      	beq.n	196 <Base64_Decode+0x196>
 126:	f1ba 0f3d 	cmp.w	sl, #61	@ 0x3d
 12a:	ea43 1389 	orr.w	r3, r3, r9, lsl #6
 12e:	ea4f 0888 	mov.w	r8, r8, lsl #2
 132:	ea48 1812 	orr.w	r8, r8, r2, lsr #4
 136:	b2d9      	uxtb	r1, r3
 138:	bf18      	it	ne
 13a:	0112      	lslne	r2, r2, #4
 13c:	f105 0301 	add.w	r3, r5, #1
 140:	bf18      	it	ne
 142:	ea42 0099 	orrne.w	r0, r2, r9, lsr #2
 146:	f806 8005 	strb.w	r8, [r6, r5]
 14a:	bf1c      	itt	ne
 14c:	54f0      	strbne	r0, [r6, r3]
 14e:	1cab      	addne	r3, r5, #2
 150:	f1bb 0f3d 	cmp.w	fp, #61	@ 0x3d
 154:	d011      	beq.n	17a <Base64_Decode+0x17a>
 156:	54f1      	strb	r1, [r6, r3]
 158:	1c5d      	adds	r5, r3, #1
 15a:	9b01      	ldr	r3, [sp, #4]
 15c:	2b03      	cmp	r3, #3
 15e:	d90b      	bls.n	178 <Base64_Decode+0x178>
 160:	aa03      	add	r2, sp, #12
 162:	a901      	add	r1, sp, #4
 164:	4620      	mov	r0, r4
 166:	f7ff fffe 	bl	0 <Base64_Decode>
 16a:	2800      	cmp	r0, #0
 16c:	f43f af61 	beq.w	32 <Base64_Decode+0x32>
 170:	f110 0f84 	cmn.w	r0, #132	@ 0x84
 174:	f47f af5a 	bne.w	2c <Base64_Decode+0x2c>
 178:	462b      	mov	r3, r5
 17a:	b126      	cbz	r6, 186 <Base64_Decode+0x186>
 17c:	683a      	ldr	r2, [r7, #0]
 17e:	429a      	cmp	r2, r3
 180:	bf84      	itt	hi
 182:	2200      	movhi	r2, #0
 184:	54f2      	strbhi	r2, [r6, r3]
 186:	603b      	str	r3, [r7, #0]
 188:	2000      	movs	r0, #0
 18a:	e74f      	b.n	2c <Base64_Decode+0x2c>
 18c:	f04f 0900 	mov.w	r9, #0
 190:	e7b6      	b.n	100 <Base64_Decode+0x100>
 192:	2300      	movs	r3, #0
 194:	e7bd      	b.n	112 <Base64_Decode+0x112>
 196:	f06f 0099 	mvn.w	r0, #153	@ 0x99
 19a:	e747      	b.n	2c <Base64_Decode+0x2c>

Disassembly of section .text.Base64_Encode:

00000000 <Base64_Encode>:
   0:	b513      	push	{r0, r1, r4, lr}
   2:	2400      	movs	r4, #0
   4:	9400      	str	r4, [sp, #0]
   6:	f7ff fffe 	bl	0 <Base64_Encode>
   a:	b002      	add	sp, #8
   c:	bd10      	pop	{r4, pc}

Disassembly of section .text.Base64_EncodeEsc:

00000000 <Base64_EncodeEsc>:
   0:	b513      	push	{r0, r1, r4, lr}
   2:	2401      	movs	r4, #1
   4:	9400      	str	r4, [sp, #0]
   6:	f7ff fffe 	bl	0 <Base64_EncodeEsc>
   a:	b002      	add	sp, #8
   c:	bd10      	pop	{r4, pc}

Disassembly of section .text.Base64_Encode_NoNl:

00000000 <Base64_Encode_NoNl>:
   0:	b513      	push	{r0, r1, r4, lr}
   2:	2402      	movs	r4, #2
   4:	9400      	str	r4, [sp, #0]
   6:	f7ff fffe 	bl	0 <Base64_Encode_NoNl>
   a:	b002      	add	sp, #8
   c:	bd10      	pop	{r4, pc}

compress.o:     file format elf32-littlearm


cpuid.o:     file format elf32-littlearm


cryptocb.o:     file format elf32-littlearm


curve25519.o:     file format elf32-littlearm


curve448.o:     file format elf32-littlearm


ecc_fp.o:     file format elf32-littlearm


eccsi.o:     file format elf32-littlearm


ed25519.o:     file format elf32-littlearm


ed448.o:     file format elf32-littlearm


error.o:     file format elf32-littlearm


Disassembly of section .text.wc_GetErrorString:

00000000 <wc_GetErrorString>:
   0:	f200 102b 	addw	r0, r0, #299	@ 0x12b
   4:	28c6      	cmp	r0, #198	@ 0xc6
   6:	bf9a      	itte	ls
   8:	4b02      	ldrls	r3, [pc, #8]	@ (14 <wc_GetErrorString+0x14>)
   a:	f853 0020 	ldrls.w	r0, [r3, r0, lsl #2]
   e:	4802      	ldrhi	r0, [pc, #8]	@ (18 <wc_GetErrorString+0x18>)
  10:	4770      	bx	lr
  12:	bf00      	nop
	...

Disassembly of section .text.wc_ErrorString:

00000000 <wc_ErrorString>:
   0:	b510      	push	{r4, lr}
   2:	f7ff fffe 	bl	0 <wc_ErrorString>
   6:	460c      	mov	r4, r1
   8:	2250      	movs	r2, #80	@ 0x50
   a:	4601      	mov	r1, r0
   c:	4620      	mov	r0, r4
   e:	f7ff fffe 	bl	0 <strncpy>
  12:	2300      	movs	r3, #0
  14:	f884 304f 	strb.w	r3, [r4, #79]	@ 0x4f
  18:	bd10      	pop	{r4, pc}

fe_448.o:     file format elf32-littlearm


fe_low_mem.o:     file format elf32-littlearm


fe_operations.o:     file format elf32-littlearm


ge_448.o:     file format elf32-littlearm


ge_low_mem.o:     file format elf32-littlearm


ge_operations.o:     file format elf32-littlearm


hash.o:     file format elf32-littlearm


Disassembly of section .text.wc_HashTypeConvert:

00000000 <wc_HashTypeConvert>:
   0:	1e43      	subs	r3, r0, #1
   2:	2b11      	cmp	r3, #17
   4:	bf28      	it	cs
   6:	2000      	movcs	r0, #0
   8:	b2c0      	uxtb	r0, r0
   a:	4770      	bx	lr

Disassembly of section .text.wc_HashGetOID:

00000000 <wc_HashGetOID>:
   0:	2811      	cmp	r0, #17
   2:	d80d      	bhi.n	20 <wc_HashGetOID+0x20>
   4:	4a0a      	ldr	r2, [pc, #40]	@ (30 <wc_HashGetOID+0x30>)
   6:	2301      	movs	r3, #1
   8:	4083      	lsls	r3, r0
   a:	4213      	tst	r3, r2
   c:	d10b      	bne.n	26 <wc_HashGetOID+0x26>
   e:	2804      	cmp	r0, #4
  10:	d00c      	beq.n	2c <wc_HashGetOID+0x2c>
  12:	2806      	cmp	r0, #6
  14:	bf14      	ite	ne
  16:	f06f 00ac 	mvnne.w	r0, #172	@ 0xac
  1a:	f44f 70cf 	moveq.w	r0, #414	@ 0x19e
  1e:	4770      	bx	lr
  20:	f06f 00ac 	mvn.w	r0, #172	@ 0xac
  24:	4770      	bx	lr
  26:	f06f 00e7 	mvn.w	r0, #231	@ 0xe7
  2a:	4770      	bx	lr
  2c:	2058      	movs	r0, #88	@ 0x58
  2e:	4770      	bx	lr
  30:	00033faa 	.word	0x00033faa

Disassembly of section .text.wc_OidGetHash:

00000000 <wc_OidGetHash>:
   0:	2858      	cmp	r0, #88	@ 0x58
   2:	d005      	beq.n	10 <wc_OidGetHash+0x10>
   4:	f5b0 7fcf 	cmp.w	r0, #414	@ 0x19e
   8:	bf0c      	ite	eq
   a:	2006      	moveq	r0, #6
   c:	2000      	movne	r0, #0
   e:	4770      	bx	lr
  10:	2004      	movs	r0, #4
  12:	4770      	bx	lr

Disassembly of section .text.wc_HashGetDigestSize:

00000000 <wc_HashGetDigestSize>:
   0:	3801      	subs	r0, #1
   2:	2810      	cmp	r0, #16
   4:	d80f      	bhi.n	26 <wc_HashGetDigestSize+0x26>
   6:	e8df f000 	tbb	[pc, r0]
   a:	0909      	.short	0x0909
   c:	0c091109 	.word	0x0c091109
  10:	09090909 	.word	0x09090909
  14:	09090909 	.word	0x09090909
  18:	0909      	.short	0x0909
  1a:	09          	.byte	0x09
  1b:	00          	.byte	0x00
  1c:	f06f 00e7 	mvn.w	r0, #231	@ 0xe7
  20:	4770      	bx	lr
  22:	2020      	movs	r0, #32
  24:	4770      	bx	lr
  26:	f06f 00ac 	mvn.w	r0, #172	@ 0xac
  2a:	4770      	bx	lr
  2c:	2014      	movs	r0, #20
  2e:	4770      	bx	lr

Disassembly of section .text.wc_HashGetBlockSize:

00000000 <wc_HashGetBlockSize>:
   0:	2811      	cmp	r0, #17
   2:	d80c      	bhi.n	1e <wc_HashGetBlockSize+0x1e>
   4:	2301      	movs	r3, #1
   6:	fa03 f000 	lsl.w	r0, r3, r0
   a:	4b08      	ldr	r3, [pc, #32]	@ (2c <wc_HashGetBlockSize+0x2c>)
   c:	4003      	ands	r3, r0
   e:	b94b      	cbnz	r3, 24 <wc_HashGetBlockSize+0x24>
  10:	f010 0f50 	tst.w	r0, #80	@ 0x50
  14:	bf0c      	ite	eq
  16:	f06f 00ac 	mvneq.w	r0, #172	@ 0xac
  1a:	2040      	movne	r0, #64	@ 0x40
  1c:	4770      	bx	lr
  1e:	f06f 00ac 	mvn.w	r0, #172	@ 0xac
  22:	4770      	bx	lr
  24:	f06f 00e7 	mvn.w	r0, #231	@ 0xe7
  28:	4770      	bx	lr
  2a:	bf00      	nop
  2c:	0003ffae 	.word	0x0003ffae

Disassembly of section .text.wc_HashInit_ex:

00000000 <wc_HashInit_ex>:
   0:	b430      	push	{r4, r5}
   2:	460c      	mov	r4, r1
   4:	4611      	mov	r1, r2
   6:	461a      	mov	r2, r3
   8:	b1a0      	cbz	r0, 34 <wc_HashInit_ex+0x34>
   a:	2c11      	cmp	r4, #17
   c:	d812      	bhi.n	34 <wc_HashInit_ex+0x34>
   e:	4d0b      	ldr	r5, [pc, #44]	@ (3c <wc_HashInit_ex+0x3c>)
  10:	2301      	movs	r3, #1
  12:	40a3      	lsls	r3, r4
  14:	422b      	tst	r3, r5
  16:	d109      	bne.n	2c <wc_HashInit_ex+0x2c>
  18:	2c06      	cmp	r4, #6
  1a:	d004      	beq.n	26 <wc_HashInit_ex+0x26>
  1c:	2c04      	cmp	r4, #4
  1e:	d109      	bne.n	34 <wc_HashInit_ex+0x34>
  20:	bc30      	pop	{r4, r5}
  22:	f7ff bffe 	b.w	0 <wc_InitSha_ex>
  26:	bc30      	pop	{r4, r5}
  28:	f7ff bffe 	b.w	0 <wc_InitSha256_ex>
  2c:	f06f 00e7 	mvn.w	r0, #231	@ 0xe7
  30:	bc30      	pop	{r4, r5}
  32:	4770      	bx	lr
  34:	f06f 00ac 	mvn.w	r0, #172	@ 0xac
  38:	e7fa      	b.n	30 <wc_HashInit_ex+0x30>
  3a:	bf00      	nop
  3c:	00033da8 	.word	0x00033da8

Disassembly of section .text.wc_HashInit:

00000000 <wc_HashInit>:
   0:	f06f 0301 	mvn.w	r3, #1
   4:	2200      	movs	r2, #0
   6:	f7ff bffe 	b.w	0 <wc_HashInit>

Disassembly of section .text.wc_HashUpdate:

00000000 <wc_HashUpdate>:
   0:	b430      	push	{r4, r5}
   2:	460c      	mov	r4, r1
   4:	4611      	mov	r1, r2
   6:	461a      	mov	r2, r3
   8:	b1b0      	cbz	r0, 38 <wc_HashUpdate+0x38>
   a:	b901      	cbnz	r1, e <wc_HashUpdate+0xe>
   c:	b9a3      	cbnz	r3, 38 <wc_HashUpdate+0x38>
   e:	2c11      	cmp	r4, #17
  10:	d812      	bhi.n	38 <wc_HashUpdate+0x38>
  12:	4d0b      	ldr	r5, [pc, #44]	@ (40 <wc_HashUpdate+0x40>)
  14:	2301      	movs	r3, #1
  16:	40a3      	lsls	r3, r4
  18:	422b      	tst	r3, r5
  1a:	d109      	bne.n	30 <wc_HashUpdate+0x30>
  1c:	2c06      	cmp	r4, #6
  1e:	d004      	beq.n	2a <wc_HashUpdate+0x2a>
  20:	2c04      	cmp	r4, #4
  22:	d109      	bne.n	38 <wc_HashUpdate+0x38>
  24:	bc30      	pop	{r4, r5}
  26:	f7ff bffe 	b.w	0 <wc_ShaUpdate>
  2a:	bc30      	pop	{r4, r5}
  2c:	f7ff bffe 	b.w	0 <wc_Sha256Update>
  30:	f06f 00e7 	mvn.w	r0, #231	@ 0xe7
  34:	bc30      	pop	{r4, r5}
  36:	4770      	bx	lr
  38:	f06f 00ac 	mvn.w	r0, #172	@ 0xac
  3c:	e7fa      	b.n	34 <wc_HashUpdate+0x34>
  3e:	bf00      	nop
  40:	00033da8 	.word	0x00033da8

Disassembly of section .text.wc_HashFinal:

00000000 <wc_HashFinal>:
   0:	460b      	mov	r3, r1
   2:	b410      	push	{r4}
   4:	4611      	mov	r1, r2
   6:	b1c0      	cbz	r0, 3a <wc_HashFinal+0x3a>
   8:	b1ba      	cbz	r2, 3a <wc_HashFinal+0x3a>
   a:	2b11      	cmp	r3, #17
   c:	d815      	bhi.n	3a <wc_HashFinal+0x3a>
   e:	4c0c      	ldr	r4, [pc, #48]	@ (40 <wc_HashFinal+0x40>)
  10:	2201      	movs	r2, #1
  12:	409a      	lsls	r2, r3
  14:	4222      	tst	r2, r4
  16:	d10b      	bne.n	30 <wc_HashFinal+0x30>
  18:	2b06      	cmp	r3, #6
  1a:	d005      	beq.n	28 <wc_HashFinal+0x28>
  1c:	2b04      	cmp	r3, #4
  1e:	d10c      	bne.n	3a <wc_HashFinal+0x3a>
  20:	f85d 4b04 	ldr.w	r4, [sp], #4
  24:	f7ff bffe 	b.w	0 <wc_ShaFinal>
  28:	f85d 4b04 	ldr.w	r4, [sp], #4
  2c:	f7ff bffe 	b.w	0 <wc_Sha256Final>
  30:	f06f 00e7 	mvn.w	r0, #231	@ 0xe7
  34:	f85d 4b04 	ldr.w	r4, [sp], #4
  38:	4770      	bx	lr
  3a:	f06f 00ac 	mvn.w	r0, #172	@ 0xac
  3e:	e7f9      	b.n	34 <wc_HashFinal+0x34>
  40:	00033da8 	.word	0x00033da8

Disassembly of section .text.wc_HashFree:

00000000 <wc_HashFree>:
   0:	b508      	push	{r3, lr}
   2:	b1a0      	cbz	r0, 2e <wc_HashFree+0x2e>
   4:	2911      	cmp	r1, #17
   6:	d812      	bhi.n	2e <wc_HashFree+0x2e>
   8:	4a0a      	ldr	r2, [pc, #40]	@ (34 <wc_HashFree+0x34>)
   a:	2301      	movs	r3, #1
   c:	408b      	lsls	r3, r1
   e:	4213      	tst	r3, r2
  10:	d10a      	bne.n	28 <wc_HashFree+0x28>
  12:	2906      	cmp	r1, #6
  14:	d005      	beq.n	22 <wc_HashFree+0x22>
  16:	2904      	cmp	r1, #4
  18:	d109      	bne.n	2e <wc_HashFree+0x2e>
  1a:	f7ff fffe 	bl	0 <wc_ShaFree>
  1e:	2000      	movs	r0, #0
  20:	bd08      	pop	{r3, pc}
  22:	f7ff fffe 	bl	0 <wc_Sha256Free>
  26:	e7fa      	b.n	1e <wc_HashFree+0x1e>
  28:	f06f 00e7 	mvn.w	r0, #231	@ 0xe7
  2c:	e7f8      	b.n	20 <wc_HashFree+0x20>
  2e:	f06f 00ac 	mvn.w	r0, #172	@ 0xac
  32:	e7f5      	b.n	20 <wc_HashFree+0x20>
  34:	00033da8 	.word	0x00033da8

Disassembly of section .text.wc_ShaHash_ex:

00000000 <wc_ShaHash_ex>:
   0:	b5f0      	push	{r4, r5, r6, r7, lr}
   2:	b09b      	sub	sp, #108	@ 0x6c
   4:	4606      	mov	r6, r0
   6:	460f      	mov	r7, r1
   8:	4615      	mov	r5, r2
   a:	4619      	mov	r1, r3
   c:	9a20      	ldr	r2, [sp, #128]	@ 0x80
   e:	a801      	add	r0, sp, #4
  10:	f7ff fffe 	bl	0 <wc_InitSha_ex>
  14:	4604      	mov	r4, r0
  16:	b970      	cbnz	r0, 36 <wc_ShaHash_ex+0x36>
  18:	463a      	mov	r2, r7
  1a:	4631      	mov	r1, r6
  1c:	a801      	add	r0, sp, #4
  1e:	f7ff fffe 	bl	0 <wc_ShaUpdate>
  22:	4604      	mov	r4, r0
  24:	b920      	cbnz	r0, 30 <wc_ShaHash_ex+0x30>
  26:	4629      	mov	r1, r5
  28:	a801      	add	r0, sp, #4
  2a:	f7ff fffe 	bl	0 <wc_ShaFinal>
  2e:	4604      	mov	r4, r0
  30:	a801      	add	r0, sp, #4
  32:	f7ff fffe 	bl	0 <wc_ShaFree>
  36:	4620      	mov	r0, r4
  38:	b01b      	add	sp, #108	@ 0x6c
  3a:	bdf0      	pop	{r4, r5, r6, r7, pc}

Disassembly of section .text.wc_ShaHash:

00000000 <wc_ShaHash>:
   0:	b507      	push	{r0, r1, r2, lr}
   2:	f06f 0301 	mvn.w	r3, #1
   6:	9300      	str	r3, [sp, #0]
   8:	2300      	movs	r3, #0
   a:	f7ff fffe 	bl	0 <wc_ShaHash>
   e:	b003      	add	sp, #12
  10:	f85d fb04 	ldr.w	pc, [sp], #4

Disassembly of section .text.wc_Sha256Hash_ex:

00000000 <wc_Sha256Hash_ex>:
   0:	b5f0      	push	{r4, r5, r6, r7, lr}
   2:	b09d      	sub	sp, #116	@ 0x74
   4:	4606      	mov	r6, r0
   6:	460f      	mov	r7, r1
   8:	4615      	mov	r5, r2
   a:	4619      	mov	r1, r3
   c:	9a22      	ldr	r2, [sp, #136]	@ 0x88
   e:	4668      	mov	r0, sp
  10:	f7ff fffe 	bl	0 <wc_InitSha256_ex>
  14:	4604      	mov	r4, r0
  16:	b970      	cbnz	r0, 36 <wc_Sha256Hash_ex+0x36>
  18:	463a      	mov	r2, r7
  1a:	4631      	mov	r1, r6
  1c:	4668      	mov	r0, sp
  1e:	f7ff fffe 	bl	0 <wc_Sha256Update>
  22:	4604      	mov	r4, r0
  24:	b920      	cbnz	r0, 30 <wc_Sha256Hash_ex+0x30>
  26:	4629      	mov	r1, r5
  28:	4668      	mov	r0, sp
  2a:	f7ff fffe 	bl	0 <wc_Sha256Final>
  2e:	4604      	mov	r4, r0
  30:	4668      	mov	r0, sp
  32:	f7ff fffe 	bl	0 <wc_Sha256Free>
  36:	4620      	mov	r0, r4
  38:	b01d      	add	sp, #116	@ 0x74
  3a:	bdf0      	pop	{r4, r5, r6, r7, pc}

Disassembly of section .text.wc_Hash_ex:

00000000 <wc_Hash_ex>:
   0:	e92d 41f0 	stmdb	sp!, {r4, r5, r6, r7, r8, lr}
   4:	4604      	mov	r4, r0
   6:	460d      	mov	r5, r1
   8:	4611      	mov	r1, r2
   a:	461a      	mov	r2, r3
   c:	f7ff fffe 	bl	0 <wc_Hash_ex>
  10:	2800      	cmp	r0, #0
  12:	e9dd 8606 	ldrd	r8, r6, [sp, #24]
  16:	9f08      	ldr	r7, [sp, #32]
  18:	db1c      	blt.n	54 <wc_Hash_ex+0x54>
  1a:	4540      	cmp	r0, r8
  1c:	d818      	bhi.n	50 <wc_Hash_ex+0x50>
  1e:	2c11      	cmp	r4, #17
  20:	d81d      	bhi.n	5e <wc_Hash_ex+0x5e>
  22:	4b10      	ldr	r3, [pc, #64]	@ (64 <wc_Hash_ex+0x64>)
  24:	2001      	movs	r0, #1
  26:	40a0      	lsls	r0, r4
  28:	4218      	tst	r0, r3
  2a:	d115      	bne.n	58 <wc_Hash_ex+0x58>
  2c:	2c06      	cmp	r4, #6
  2e:	d008      	beq.n	42 <wc_Hash_ex+0x42>
  30:	2c04      	cmp	r4, #4
  32:	d114      	bne.n	5e <wc_Hash_ex+0x5e>
  34:	9706      	str	r7, [sp, #24]
  36:	4633      	mov	r3, r6
  38:	4628      	mov	r0, r5
  3a:	e8bd 41f0 	ldmia.w	sp!, {r4, r5, r6, r7, r8, lr}
  3e:	f7ff bffe 	b.w	0 <wc_Hash_ex>
  42:	9706      	str	r7, [sp, #24]
  44:	4633      	mov	r3, r6
  46:	4628      	mov	r0, r5
  48:	e8bd 41f0 	ldmia.w	sp!, {r4, r5, r6, r7, r8, lr}
  4c:	f7ff bffe 	b.w	0 <wc_Hash_ex>
  50:	f06f 0083 	mvn.w	r0, #131	@ 0x83
  54:	e8bd 81f0 	ldmia.w	sp!, {r4, r5, r6, r7, r8, pc}
  58:	f06f 00e7 	mvn.w	r0, #231	@ 0xe7
  5c:	e7fa      	b.n	54 <wc_Hash_ex+0x54>
  5e:	f06f 00ac 	mvn.w	r0, #172	@ 0xac
  62:	e7f7      	b.n	54 <wc_Hash_ex+0x54>
  64:	00033fa8 	.word	0x00033fa8

Disassembly of section .text.wc_Hash:

00000000 <wc_Hash>:
   0:	b51f      	push	{r0, r1, r2, r3, r4, lr}
   2:	f06f 0c01 	mvn.w	ip, #1
   6:	2400      	movs	r4, #0
   8:	e9cd 4c01 	strd	r4, ip, [sp, #4]
   c:	9c06      	ldr	r4, [sp, #24]
   e:	9400      	str	r4, [sp, #0]
  10:	f7ff fffe 	bl	0 <wc_Hash>
  14:	b004      	add	sp, #16
  16:	bd10      	pop	{r4, pc}

Disassembly of section .text.wc_Sha256Hash:

00000000 <wc_Sha256Hash>:
   0:	b507      	push	{r0, r1, r2, lr}
   2:	f06f 0301 	mvn.w	r3, #1
   6:	9300      	str	r3, [sp, #0]
   8:	2300      	movs	r3, #0
   a:	f7ff fffe 	bl	0 <wc_Sha256Hash>
   e:	b003      	add	sp, #12
  10:	f85d fb04 	ldr.w	pc, [sp], #4

integer.o:     file format elf32-littlearm


logging.o:     file format elf32-littlearm


Disassembly of section .text.wolfSSL_SetLoggingCb:

00000000 <wolfSSL_SetLoggingCb>:
   0:	f06f 00ad 	mvn.w	r0, #173	@ 0xad
   4:	4770      	bx	lr

Disassembly of section .text.wolfSSL_GetLoggingCb:

00000000 <wolfSSL_GetLoggingCb>:
   0:	2000      	movs	r0, #0
   2:	4770      	bx	lr

Disassembly of section .text.wolfSSL_Debugging_ON:

00000000 <wolfSSL_Debugging_ON>:
   0:	f06f 00ad 	mvn.w	r0, #173	@ 0xad
   4:	4770      	bx	lr

Disassembly of section .text.wolfSSL_Debugging_OFF:

00000000 <wolfSSL_Debugging_OFF>:
   0:	4770      	bx	lr

Disassembly of section .text.wolfSSL_SetLoggingPrefix:

00000000 <wolfSSL_SetLoggingPrefix>:
   0:	4770      	bx	lr

md5.o:     file format elf32-littlearm


memory.o:     file format elf32-littlearm


misc.o:     file format elf32-littlearm


pkcs12.o:     file format elf32-littlearm


pkcs7.o:     file format elf32-littlearm


poly1305.o:     file format elf32-littlearm


pwdbased.o:     file format elf32-littlearm


rc2.o:     file format elf32-littlearm


sakke.o:     file format elf32-littlearm


signature.o:     file format elf32-littlearm


Disassembly of section .text.wc_SignatureGetSize:

00000000 <wc_SignatureGetSize>:
   0:	4603      	mov	r3, r0
   2:	2b01      	cmp	r3, #1
   4:	4608      	mov	r0, r1
   6:	d007      	beq.n	18 <wc_SignatureGetSize+0x18>
   8:	3b02      	subs	r3, #2
   a:	2b01      	cmp	r3, #1
   c:	d807      	bhi.n	1e <wc_SignatureGetSize+0x1e>
   e:	f5b2 6fc6 	cmp.w	r2, #1584	@ 0x630
  12:	d304      	bcc.n	1e <wc_SignatureGetSize+0x1e>
  14:	f7ff bffe 	b.w	0 <wc_RsaEncryptSize>
  18:	f06f 00e6 	mvn.w	r0, #230	@ 0xe6
  1c:	4770      	bx	lr
  1e:	f06f 00ac 	mvn.w	r0, #172	@ 0xac
  22:	4770      	bx	lr

Disassembly of section .text.wc_SignatureVerifyHash:

00000000 <wc_SignatureVerifyHash>:
   0:	e92d 47f0 	stmdb	sp!, {r4, r5, r6, r7, r8, r9, sl, lr}
   4:	f5ad 7d02 	sub.w	sp, sp, #520	@ 0x208
   8:	461d      	mov	r5, r3
   a:	e9dd 968a 	ldrd	r9, r6, [sp, #552]	@ 0x228
   e:	e9dd 838c 	ldrd	r8, r3, [sp, #560]	@ 0x230
  12:	4682      	mov	sl, r0
  14:	460c      	mov	r4, r1
  16:	4617      	mov	r7, r2
  18:	b932      	cbnz	r2, 28 <wc_SignatureVerifyHash+0x28>
  1a:	f06f 02ac 	mvn.w	r2, #172	@ 0xac
  1e:	4610      	mov	r0, r2
  20:	f50d 7d02 	add.w	sp, sp, #520	@ 0x208
  24:	e8bd 87f0 	ldmia.w	sp!, {r4, r5, r6, r7, r8, r9, sl, pc}
  28:	2d00      	cmp	r5, #0
  2a:	d0f6      	beq.n	1a <wc_SignatureVerifyHash+0x1a>
  2c:	f1b9 0f00 	cmp.w	r9, #0
  30:	d0f3      	beq.n	1a <wc_SignatureVerifyHash+0x1a>
  32:	2e00      	cmp	r6, #0
  34:	d0f1      	beq.n	1a <wc_SignatureVerifyHash+0x1a>
  36:	f1b8 0f00 	cmp.w	r8, #0
  3a:	d0ee      	beq.n	1a <wc_SignatureVerifyHash+0x1a>
  3c:	2b00      	cmp	r3, #0
  3e:	d0ec      	beq.n	1a <wc_SignatureVerifyHash+0x1a>
  40:	461a      	mov	r2, r3
  42:	4641      	mov	r1, r8
  44:	4620      	mov	r0, r4
  46:	f7ff fffe 	bl	0 <wc_SignatureVerifyHash>
  4a:	42b0      	cmp	r0, r6
  4c:	dbe5      	blt.n	1a <wc_SignatureVerifyHash+0x1a>
  4e:	4650      	mov	r0, sl
  50:	f7ff fffe 	bl	0 <wc_HashGetDigestSize>
  54:	1e02      	subs	r2, r0, #0
  56:	dbe2      	blt.n	1e <wc_SignatureVerifyHash+0x1e>
  58:	2c01      	cmp	r4, #1
  5a:	d031      	beq.n	c0 <wc_SignatureVerifyHash+0xc0>
  5c:	3c02      	subs	r4, #2
  5e:	2c01      	cmp	r4, #1
  60:	d8db      	bhi.n	1a <wc_SignatureVerifyHash+0x1a>
  62:	42b5      	cmp	r5, r6
  64:	462a      	mov	r2, r5
  66:	bf38      	it	cc
  68:	4632      	movcc	r2, r6
  6a:	f5b2 7f00 	cmp.w	r2, #512	@ 0x200
  6e:	d824      	bhi.n	ba <wc_SignatureVerifyHash+0xba>
  70:	2100      	movs	r1, #0
  72:	a802      	add	r0, sp, #8
  74:	9101      	str	r1, [sp, #4]
  76:	f7ff fffe 	bl	0 <memset>
  7a:	4632      	mov	r2, r6
  7c:	4649      	mov	r1, r9
  7e:	a802      	add	r0, sp, #8
  80:	f7ff fffe 	bl	0 <memcpy>
  84:	aa01      	add	r2, sp, #4
  86:	4643      	mov	r3, r8
  88:	4631      	mov	r1, r6
  8a:	a802      	add	r0, sp, #8
  8c:	f7ff fffe 	bl	0 <wc_RsaSSL_VerifyInline>
  90:	f110 0f6c 	cmn.w	r0, #108	@ 0x6c
  94:	4602      	mov	r2, r0
  96:	d100      	bne.n	9a <wc_SignatureVerifyHash+0x9a>
  98:	e7fe      	b.n	98 <wc_SignatureVerifyHash+0x98>
  9a:	2800      	cmp	r0, #0
  9c:	dbbf      	blt.n	1e <wc_SignatureVerifyHash+0x1e>
  9e:	9801      	ldr	r0, [sp, #4]
  a0:	2800      	cmp	r0, #0
  a2:	d0bc      	beq.n	1e <wc_SignatureVerifyHash+0x1e>
  a4:	4295      	cmp	r5, r2
  a6:	d105      	bne.n	b4 <wc_SignatureVerifyHash+0xb4>
  a8:	4639      	mov	r1, r7
  aa:	f7ff fffe 	bl	0 <memcmp>
  ae:	4602      	mov	r2, r0
  b0:	2800      	cmp	r0, #0
  b2:	d0b4      	beq.n	1e <wc_SignatureVerifyHash+0x1e>
  b4:	f06f 02e4 	mvn.w	r2, #228	@ 0xe4
  b8:	e7b1      	b.n	1e <wc_SignatureVerifyHash+0x1e>
  ba:	f06f 027c 	mvn.w	r2, #124	@ 0x7c
  be:	e7ae      	b.n	1e <wc_SignatureVerifyHash+0x1e>
  c0:	f06f 02e6 	mvn.w	r2, #230	@ 0xe6
  c4:	e7ab      	b.n	1e <wc_SignatureVerifyHash+0x1e>

Disassembly of section .text.wc_SignatureVerify:

00000000 <wc_SignatureVerify>:
   0:	e92d 4ff0 	stmdb	sp!, {r4, r5, r6, r7, r8, r9, sl, fp, lr}
   4:	b09f      	sub	sp, #124	@ 0x7c
   6:	4604      	mov	r4, r0
   8:	f8dd 80a4 	ldr.w	r8, [sp, #164]	@ 0xa4
   c:	f8dd 90ac 	ldr.w	r9, [sp, #172]	@ 0xac
  10:	460d      	mov	r5, r1
  12:	461f      	mov	r7, r3
  14:	4616      	mov	r6, r2
  16:	b922      	cbnz	r2, 22 <wc_SignatureVerify+0x22>
  18:	f06f 00ac 	mvn.w	r0, #172	@ 0xac
  1c:	b01f      	add	sp, #124	@ 0x7c
  1e:	e8bd 8ff0 	ldmia.w	sp!, {r4, r5, r6, r7, r8, r9, sl, fp, pc}
  22:	2b00      	cmp	r3, #0
  24:	d0f8      	beq.n	18 <wc_SignatureVerify+0x18>
  26:	9b28      	ldr	r3, [sp, #160]	@ 0xa0
  28:	2b00      	cmp	r3, #0
  2a:	d0f5      	beq.n	18 <wc_SignatureVerify+0x18>
  2c:	f1b8 0f00 	cmp.w	r8, #0
  30:	d0f2      	beq.n	18 <wc_SignatureVerify+0x18>
  32:	9b2a      	ldr	r3, [sp, #168]	@ 0xa8
  34:	2b00      	cmp	r3, #0
  36:	d0ef      	beq.n	18 <wc_SignatureVerify+0x18>
  38:	f1b9 0f00 	cmp.w	r9, #0
  3c:	d0ec      	beq.n	18 <wc_SignatureVerify+0x18>
  3e:	464a      	mov	r2, r9
  40:	4619      	mov	r1, r3
  42:	4628      	mov	r0, r5
  44:	f7ff fffe 	bl	0 <wc_SignatureVerify>
  48:	4540      	cmp	r0, r8
  4a:	dbe5      	blt.n	18 <wc_SignatureVerify+0x18>
  4c:	4620      	mov	r0, r4
  4e:	f7ff fffe 	bl	0 <wc_HashGetDigestSize>
  52:	2800      	cmp	r0, #0
  54:	dbe2      	blt.n	1c <wc_SignatureVerify+0x1c>
  56:	2d03      	cmp	r5, #3
  58:	bf0c      	ite	eq
  5a:	f100 0a24 	addeq.w	sl, r0, #36	@ 0x24
  5e:	4682      	movne	sl, r0
  60:	4683      	mov	fp, r0
  62:	9000      	str	r0, [sp, #0]
  64:	ab05      	add	r3, sp, #20
  66:	463a      	mov	r2, r7
  68:	4631      	mov	r1, r6
  6a:	4620      	mov	r0, r4
  6c:	f7ff fffe 	bl	0 <wc_Hash>
  70:	2800      	cmp	r0, #0
  72:	d1d3      	bne.n	1c <wc_SignatureVerify+0x1c>
  74:	2d03      	cmp	r5, #3
  76:	d10e      	bne.n	96 <wc_SignatureVerify+0x96>
  78:	4620      	mov	r0, r4
  7a:	f7ff fffe 	bl	0 <wc_HashGetOID>
  7e:	2800      	cmp	r0, #0
  80:	dbcc      	blt.n	1c <wc_SignatureVerify+0x1c>
  82:	a905      	add	r1, sp, #20
  84:	4603      	mov	r3, r0
  86:	465a      	mov	r2, fp
  88:	4608      	mov	r0, r1
  8a:	f7ff fffe 	bl	0 <wc_EncodeSignature>
  8e:	2800      	cmp	r0, #0
  90:	4603      	mov	r3, r0
  92:	dc01      	bgt.n	98 <wc_SignatureVerify+0x98>
  94:	d1c2      	bne.n	1c <wc_SignatureVerify+0x1c>
  96:	4653      	mov	r3, sl
  98:	9a2a      	ldr	r2, [sp, #168]	@ 0xa8
  9a:	f8cd 900c 	str.w	r9, [sp, #12]
  9e:	e9cd 8201 	strd	r8, r2, [sp, #4]
  a2:	9a28      	ldr	r2, [sp, #160]	@ 0xa0
  a4:	9200      	str	r2, [sp, #0]
  a6:	4629      	mov	r1, r5
  a8:	aa05      	add	r2, sp, #20
  aa:	4620      	mov	r0, r4
  ac:	f7ff fffe 	bl	0 <wc_SignatureVerify>
  b0:	e7b4      	b.n	1c <wc_SignatureVerify+0x1c>

Disassembly of section .text.wc_SignatureGenerateHash_ex:

00000000 <wc_SignatureGenerateHash_ex>:
   0:	b5f8      	push	{r3, r4, r5, r6, r7, lr}
   2:	4617      	mov	r7, r2
   4:	4605      	mov	r5, r0
   6:	460c      	mov	r4, r1
   8:	e9dd 6006 	ldrd	r6, r0, [sp, #24]
   c:	e9dd 1208 	ldrd	r1, r2, [sp, #32]
  10:	b137      	cbz	r7, 20 <wc_SignatureGenerateHash_ex+0x20>
  12:	b12b      	cbz	r3, 20 <wc_SignatureGenerateHash_ex+0x20>
  14:	b126      	cbz	r6, 20 <wc_SignatureGenerateHash_ex+0x20>
  16:	b118      	cbz	r0, 20 <wc_SignatureGenerateHash_ex+0x20>
  18:	6806      	ldr	r6, [r0, #0]
  1a:	b10e      	cbz	r6, 20 <wc_SignatureGenerateHash_ex+0x20>
  1c:	b101      	cbz	r1, 20 <wc_SignatureGenerateHash_ex+0x20>
  1e:	b912      	cbnz	r2, 26 <wc_SignatureGenerateHash_ex+0x26>
  20:	f06f 00ac 	mvn.w	r0, #172	@ 0xac
  24:	bdf8      	pop	{r3, r4, r5, r6, r7, pc}
  26:	4620      	mov	r0, r4
  28:	f7ff fffe 	bl	0 <wc_SignatureGenerateHash_ex>
  2c:	4286      	cmp	r6, r0
  2e:	dbf7      	blt.n	20 <wc_SignatureGenerateHash_ex+0x20>
  30:	4628      	mov	r0, r5
  32:	f7ff fffe 	bl	0 <wc_HashGetDigestSize>
  36:	2800      	cmp	r0, #0
  38:	dbf4      	blt.n	24 <wc_SignatureGenerateHash_ex+0x24>
  3a:	3c01      	subs	r4, #1
  3c:	2c02      	cmp	r4, #2
  3e:	d8ef      	bhi.n	20 <wc_SignatureGenerateHash_ex+0x20>
  40:	f06f 00e6 	mvn.w	r0, #230	@ 0xe6
  44:	e7ee      	b.n	24 <wc_SignatureGenerateHash_ex+0x24>

Disassembly of section .text.wc_SignatureGenerateHash:

00000000 <wc_SignatureGenerateHash>:
   0:	b510      	push	{r4, lr}
   2:	b086      	sub	sp, #24
   4:	2401      	movs	r4, #1
   6:	9405      	str	r4, [sp, #20]
   8:	9c0c      	ldr	r4, [sp, #48]	@ 0x30
   a:	9404      	str	r4, [sp, #16]
   c:	9c0b      	ldr	r4, [sp, #44]	@ 0x2c
   e:	9403      	str	r4, [sp, #12]
  10:	9c0a      	ldr	r4, [sp, #40]	@ 0x28
  12:	9402      	str	r4, [sp, #8]
  14:	9c09      	ldr	r4, [sp, #36]	@ 0x24
  16:	9401      	str	r4, [sp, #4]
  18:	9c08      	ldr	r4, [sp, #32]
  1a:	9400      	str	r4, [sp, #0]
  1c:	f7ff fffe 	bl	0 <wc_SignatureGenerateHash>
  20:	b006      	add	sp, #24
  22:	bd10      	pop	{r4, pc}

Disassembly of section .text.wc_SignatureGenerate_ex:

00000000 <wc_SignatureGenerate_ex>:
   0:	e92d 4ff0 	stmdb	sp!, {r4, r5, r6, r7, r8, r9, sl, fp, lr}
   4:	b0a1      	sub	sp, #132	@ 0x84
   6:	e9dd 892b 	ldrd	r8, r9, [sp, #172]	@ 0xac
   a:	f8dd a0b4 	ldr.w	sl, [sp, #180]	@ 0xb4
   e:	4604      	mov	r4, r0
  10:	460d      	mov	r5, r1
  12:	461f      	mov	r7, r3
  14:	4616      	mov	r6, r2
  16:	b922      	cbnz	r2, 22 <wc_SignatureGenerate_ex+0x22>
  18:	f06f 00ac 	mvn.w	r0, #172	@ 0xac
  1c:	b021      	add	sp, #132	@ 0x84
  1e:	e8bd 8ff0 	ldmia.w	sp!, {r4, r5, r6, r7, r8, r9, sl, fp, pc}
  22:	2b00      	cmp	r3, #0
  24:	d0f8      	beq.n	18 <wc_SignatureGenerate_ex+0x18>
  26:	9b2a      	ldr	r3, [sp, #168]	@ 0xa8
  28:	2b00      	cmp	r3, #0
  2a:	d0f5      	beq.n	18 <wc_SignatureGenerate_ex+0x18>
  2c:	f1b8 0f00 	cmp.w	r8, #0
  30:	d0f2      	beq.n	18 <wc_SignatureGenerate_ex+0x18>
  32:	f8d8 b000 	ldr.w	fp, [r8]
  36:	f1bb 0f00 	cmp.w	fp, #0
  3a:	d0ed      	beq.n	18 <wc_SignatureGenerate_ex+0x18>
  3c:	f1b9 0f00 	cmp.w	r9, #0
  40:	d0ea      	beq.n	18 <wc_SignatureGenerate_ex+0x18>
  42:	f1ba 0f00 	cmp.w	sl, #0
  46:	d0e7      	beq.n	18 <wc_SignatureGenerate_ex+0x18>
  48:	4652      	mov	r2, sl
  4a:	4649      	mov	r1, r9
  4c:	4628      	mov	r0, r5
  4e:	f7ff fffe 	bl	0 <wc_SignatureGenerate_ex>
  52:	4583      	cmp	fp, r0
  54:	dbe0      	blt.n	18 <wc_SignatureGenerate_ex+0x18>
  56:	4620      	mov	r0, r4
  58:	f7ff fffe 	bl	0 <wc_HashGetDigestSize>
  5c:	2800      	cmp	r0, #0
  5e:	dbdd      	blt.n	1c <wc_SignatureGenerate_ex+0x1c>
  60:	4683      	mov	fp, r0
  62:	9000      	str	r0, [sp, #0]
  64:	ab07      	add	r3, sp, #28
  66:	463a      	mov	r2, r7
  68:	4631      	mov	r1, r6
  6a:	4620      	mov	r0, r4
  6c:	f7ff fffe 	bl	0 <wc_Hash>
  70:	2800      	cmp	r0, #0
  72:	d1d3      	bne.n	1c <wc_SignatureGenerate_ex+0x1c>
  74:	2d03      	cmp	r5, #3
  76:	d00f      	beq.n	98 <wc_SignatureGenerate_ex+0x98>
  78:	9b2f      	ldr	r3, [sp, #188]	@ 0xbc
  7a:	9305      	str	r3, [sp, #20]
  7c:	9b2e      	ldr	r3, [sp, #184]	@ 0xb8
  7e:	e9cd a303 	strd	sl, r3, [sp, #12]
  82:	9b2a      	ldr	r3, [sp, #168]	@ 0xa8
  84:	9300      	str	r3, [sp, #0]
  86:	e9cd 8901 	strd	r8, r9, [sp, #4]
  8a:	465b      	mov	r3, fp
  8c:	aa07      	add	r2, sp, #28
  8e:	4629      	mov	r1, r5
  90:	4620      	mov	r0, r4
  92:	f7ff fffe 	bl	0 <wc_SignatureGenerate_ex>
  96:	e7c1      	b.n	1c <wc_SignatureGenerate_ex+0x1c>
  98:	f06f 00e6 	mvn.w	r0, #230	@ 0xe6
  9c:	e7be      	b.n	1c <wc_SignatureGenerate_ex+0x1c>

Disassembly of section .text.wc_SignatureGenerate:

00000000 <wc_SignatureGenerate>:
   0:	b510      	push	{r4, lr}
   2:	b086      	sub	sp, #24
   4:	2401      	movs	r4, #1
   6:	9405      	str	r4, [sp, #20]
   8:	9c0c      	ldr	r4, [sp, #48]	@ 0x30
   a:	9404      	str	r4, [sp, #16]
   c:	9c0b      	ldr	r4, [sp, #44]	@ 0x2c
   e:	9403      	str	r4, [sp, #12]
  10:	9c0a      	ldr	r4, [sp, #40]	@ 0x28
  12:	9402      	str	r4, [sp, #8]
  14:	9c09      	ldr	r4, [sp, #36]	@ 0x24
  16:	9401      	str	r4, [sp, #4]
  18:	9c08      	ldr	r4, [sp, #32]
  1a:	9400      	str	r4, [sp, #0]
  1c:	f7ff fffe 	bl	0 <wc_SignatureGenerate>
  20:	b006      	add	sp, #24
  22:	bd10      	pop	{r4, pc}

srp.o:     file format elf32-littlearm


sp_arm32.o:     file format elf32-littlearm


sp_arm64.o:     file format elf32-littlearm


sp_armthumb.o:     file format elf32-littlearm


sp_c32.o:     file format elf32-littlearm


sp_c64.o:     file format elf32-littlearm


sp_cortexm.o:     file format elf32-littlearm


sp_dsp32.o:     file format elf32-littlearm


sp_int.o:     file format elf32-littlearm


Disassembly of section .text._sp_cmp_abs:

00000000 <_sp_cmp_abs>:
   0:	6803      	ldr	r3, [r0, #0]
   2:	680a      	ldr	r2, [r1, #0]
   4:	4293      	cmp	r3, r2
   6:	b510      	push	{r4, lr}
   8:	d810      	bhi.n	2c <_sp_cmp_abs+0x2c>
   a:	d311      	bcc.n	30 <_sp_cmp_abs+0x30>
   c:	3b01      	subs	r3, #1
   e:	3008      	adds	r0, #8
  10:	3108      	adds	r1, #8
  12:	2b00      	cmp	r3, #0
  14:	da01      	bge.n	1a <_sp_cmp_abs+0x1a>
  16:	2000      	movs	r0, #0
  18:	bd10      	pop	{r4, pc}
  1a:	f850 4023 	ldr.w	r4, [r0, r3, lsl #2]
  1e:	f851 2023 	ldr.w	r2, [r1, r3, lsl #2]
  22:	4294      	cmp	r4, r2
  24:	d802      	bhi.n	2c <_sp_cmp_abs+0x2c>
  26:	d303      	bcc.n	30 <_sp_cmp_abs+0x30>
  28:	3b01      	subs	r3, #1
  2a:	e7f2      	b.n	12 <_sp_cmp_abs+0x12>
  2c:	2001      	movs	r0, #1
  2e:	e7f3      	b.n	18 <_sp_cmp_abs+0x18>
  30:	f04f 30ff 	mov.w	r0, #4294967295	@ 0xffffffff
  34:	e7f0      	b.n	18 <_sp_cmp_abs+0x18>

Disassembly of section .text._sp_sub_d:

00000000 <_sp_sub_d>:
   0:	6803      	ldr	r3, [r0, #0]
   2:	6013      	str	r3, [r2, #0]
   4:	b570      	push	{r4, r5, r6, lr}
   6:	b90b      	cbnz	r3, c <_sp_sub_d+0xc>
   8:	6093      	str	r3, [r2, #8]
   a:	bd70      	pop	{r4, r5, r6, pc}
   c:	6884      	ldr	r4, [r0, #8]
   e:	1a61      	subs	r1, r4, r1
  10:	bf34      	ite	cc
  12:	2401      	movcc	r4, #1
  14:	2400      	movcs	r4, #0
  16:	6091      	str	r1, [r2, #8]
  18:	d206      	bcs.n	28 <_sp_sub_d+0x28>
  1a:	f100 0508 	add.w	r5, r0, #8
  1e:	f102 0608 	add.w	r6, r2, #8
  22:	2401      	movs	r4, #1
  24:	42a3      	cmp	r3, r4
  26:	d10c      	bne.n	42 <_sp_sub_d+0x42>
  28:	4290      	cmp	r0, r2
  2a:	d113      	bne.n	54 <_sp_sub_d+0x54>
  2c:	3b01      	subs	r3, #1
  2e:	f102 0008 	add.w	r0, r2, #8
  32:	2b00      	cmp	r3, #0
  34:	db02      	blt.n	3c <_sp_sub_d+0x3c>
  36:	f850 1023 	ldr.w	r1, [r0, r3, lsl #2]
  3a:	b1b1      	cbz	r1, 6a <_sp_sub_d+0x6a>
  3c:	3301      	adds	r3, #1
  3e:	6013      	str	r3, [r2, #0]
  40:	e7e3      	b.n	a <_sp_sub_d+0xa>
  42:	f855 1f04 	ldr.w	r1, [r5, #4]!
  46:	3901      	subs	r1, #1
  48:	f846 1f04 	str.w	r1, [r6, #4]!
  4c:	3101      	adds	r1, #1
  4e:	d1eb      	bne.n	28 <_sp_sub_d+0x28>
  50:	3401      	adds	r4, #1
  52:	e7e7      	b.n	24 <_sp_sub_d+0x24>
  54:	3402      	adds	r4, #2
  56:	1c61      	adds	r1, r4, #1
  58:	3c01      	subs	r4, #1
  5a:	42a3      	cmp	r3, r4
  5c:	d9e6      	bls.n	2c <_sp_sub_d+0x2c>
  5e:	f850 4021 	ldr.w	r4, [r0, r1, lsl #2]
  62:	f842 4021 	str.w	r4, [r2, r1, lsl #2]
  66:	460c      	mov	r4, r1
  68:	e7f5      	b.n	56 <_sp_sub_d+0x56>
  6a:	3b01      	subs	r3, #1
  6c:	e7e1      	b.n	32 <_sp_sub_d+0x32>

Disassembly of section .text._sp_sub_off:

00000000 <_sp_sub_off>:
   0:	4282      	cmp	r2, r0
   2:	e92d 4ff0 	stmdb	sp!, {r4, r5, r6, r7, r8, r9, sl, fp, lr}
   6:	468e      	mov	lr, r1
   8:	d005      	beq.n	16 <_sp_sub_off+0x16>
   a:	1d01      	adds	r1, r0, #4
   c:	1d14      	adds	r4, r2, #4
   e:	2600      	movs	r6, #0
  10:	429e      	cmp	r6, r3
  12:	6805      	ldr	r5, [r0, #0]
  14:	d12b      	bne.n	6e <_sp_sub_off+0x6e>
  16:	461e      	mov	r6, r3
  18:	4680      	mov	r8, r0
  1a:	2300      	movs	r3, #0
  1c:	f858 7b08 	ldr.w	r7, [r8], #8
  20:	f10e 0904 	add.w	r9, lr, #4
  24:	4634      	mov	r4, r6
  26:	469c      	mov	ip, r3
  28:	f102 0a08 	add.w	sl, r2, #8
  2c:	42a7      	cmp	r7, r4
  2e:	f104 0101 	add.w	r1, r4, #1
  32:	d905      	bls.n	40 <_sp_sub_off+0x40>
  34:	f8de 5000 	ldr.w	r5, [lr]
  38:	eba4 0b06 	sub.w	fp, r4, r6
  3c:	455d      	cmp	r5, fp
  3e:	d81e      	bhi.n	7e <_sp_sub_off+0x7e>
  40:	1c4d      	adds	r5, r1, #1
  42:	3901      	subs	r1, #1
  44:	428f      	cmp	r7, r1
  46:	d82a      	bhi.n	9e <_sp_sub_off+0x9e>
  48:	1b3b      	subs	r3, r7, r4
  4a:	42a7      	cmp	r7, r4
  4c:	bf38      	it	cc
  4e:	2300      	movcc	r3, #0
  50:	4423      	add	r3, r4
  52:	6013      	str	r3, [r2, #0]
  54:	b14b      	cbz	r3, 6a <_sp_sub_off+0x6a>
  56:	3b01      	subs	r3, #1
  58:	f102 0008 	add.w	r0, r2, #8
  5c:	2b00      	cmp	r3, #0
  5e:	db02      	blt.n	66 <_sp_sub_off+0x66>
  60:	f850 1023 	ldr.w	r1, [r0, r3, lsl #2]
  64:	b331      	cbz	r1, b4 <_sp_sub_off+0xb4>
  66:	3301      	adds	r3, #1
  68:	6013      	str	r3, [r2, #0]
  6a:	e8bd 8ff0 	ldmia.w	sp!, {r4, r5, r6, r7, r8, r9, sl, fp, pc}
  6e:	42b5      	cmp	r5, r6
  70:	d9d2      	bls.n	18 <_sp_sub_off+0x18>
  72:	f851 5f04 	ldr.w	r5, [r1, #4]!
  76:	f844 5f04 	str.w	r5, [r4, #4]!
  7a:	3601      	adds	r6, #1
  7c:	e7c8      	b.n	10 <_sp_sub_off+0x10>
  7e:	f858 5024 	ldr.w	r5, [r8, r4, lsl #2]
  82:	18ed      	adds	r5, r5, r3
  84:	f859 3f04 	ldr.w	r3, [r9, #4]!
  88:	f14c 0c00 	adc.w	ip, ip, #0
  8c:	1aed      	subs	r5, r5, r3
  8e:	f16c 0300 	sbc.w	r3, ip, #0
  92:	f84a 5024 	str.w	r5, [sl, r4, lsl #2]
  96:	ea4f 7ce3 	mov.w	ip, r3, asr #31
  9a:	460c      	mov	r4, r1
  9c:	e7c6      	b.n	2c <_sp_sub_off+0x2c>
  9e:	f850 1025 	ldr.w	r1, [r0, r5, lsl #2]
  a2:	18c9      	adds	r1, r1, r3
  a4:	f14c 0300 	adc.w	r3, ip, #0
  a8:	f842 1025 	str.w	r1, [r2, r5, lsl #2]
  ac:	ea4f 7ce3 	mov.w	ip, r3, asr #31
  b0:	4629      	mov	r1, r5
  b2:	e7c5      	b.n	40 <_sp_sub_off+0x40>
  b4:	3b01      	subs	r3, #1
  b6:	e7d1      	b.n	5c <_sp_sub_off+0x5c>

Disassembly of section .text._sp_div_same_size:

00000000 <_sp_div_same_size>:
   0:	468c      	mov	ip, r1
   2:	b5f8      	push	{r3, r4, r5, r6, r7, lr}
   4:	f85c 3b08 	ldr.w	r3, [ip], #8
   8:	6805      	ldr	r5, [r0, #0]
   a:	1e5c      	subs	r4, r3, #1
   c:	4696      	mov	lr, r2
   e:	1aeb      	subs	r3, r5, r3
  10:	18e6      	adds	r6, r4, r3
  12:	b98c      	cbnz	r4, 38 <_sp_div_same_size+0x38>
  14:	3602      	adds	r6, #2
  16:	3402      	adds	r4, #2
  18:	f850 6026 	ldr.w	r6, [r0, r6, lsl #2]
  1c:	f851 4024 	ldr.w	r4, [r1, r4, lsl #2]
  20:	42a6      	cmp	r6, r4
  22:	d308      	bcc.n	36 <_sp_div_same_size+0x36>
  24:	eb0e 0283 	add.w	r2, lr, r3, lsl #2
  28:	6894      	ldr	r4, [r2, #8]
  2a:	3401      	adds	r4, #1
  2c:	6094      	str	r4, [r2, #8]
  2e:	4602      	mov	r2, r0
  30:	f7ff fffe 	bl	0 <_sp_div_same_size>
  34:	6015      	str	r5, [r2, #0]
  36:	bdf8      	pop	{r3, r4, r5, r6, r7, pc}
  38:	1cb7      	adds	r7, r6, #2
  3a:	f85c 2024 	ldr.w	r2, [ip, r4, lsl #2]
  3e:	f850 7027 	ldr.w	r7, [r0, r7, lsl #2]
  42:	4297      	cmp	r7, r2
  44:	d1e6      	bne.n	14 <_sp_div_same_size+0x14>
  46:	3c01      	subs	r4, #1
  48:	e7e2      	b.n	10 <_sp_div_same_size+0x10>

Disassembly of section .text._sp_copy:

00000000 <_sp_copy>:
   0:	6802      	ldr	r2, [r0, #0]
   2:	b538      	push	{r3, r4, r5, lr}
   4:	4605      	mov	r5, r0
   6:	460c      	mov	r4, r1
   8:	b91a      	cbnz	r2, 12 <_sp_copy+0x12>
   a:	608a      	str	r2, [r1, #8]
   c:	682b      	ldr	r3, [r5, #0]
   e:	6023      	str	r3, [r4, #0]
  10:	bd38      	pop	{r3, r4, r5, pc}
  12:	f100 0108 	add.w	r1, r0, #8
  16:	0092      	lsls	r2, r2, #2
  18:	f104 0008 	add.w	r0, r4, #8
  1c:	f7ff fffe 	bl	0 <memcpy>
  20:	e7f4      	b.n	c <_sp_copy+0xc>

Disassembly of section .text.sp_lshb:

00000000 <sp_lshb>:
   0:	6802      	ldr	r2, [r0, #0]
   2:	e92d 47f0 	stmdb	sp!, {r4, r5, r6, r7, r8, r9, sl, lr}
   6:	4604      	mov	r4, r0
   8:	b382      	cbz	r2, 6c <sp_lshb+0x6c>
   a:	6863      	ldr	r3, [r4, #4]
   c:	eb02 1051 	add.w	r0, r2, r1, lsr #5
  10:	4298      	cmp	r0, r3
  12:	ea4f 1551 	mov.w	r5, r1, lsr #5
  16:	d244      	bcs.n	a2 <sp_lshb+0xa2>
  18:	f011 011f 	ands.w	r1, r1, #31
  1c:	ea4f 0685 	mov.w	r6, r5, lsl #2
  20:	d036      	beq.n	90 <sp_lshb+0x90>
  22:	f102 0c01 	add.w	ip, r2, #1
  26:	f1c1 0920 	rsb	r9, r1, #32
  2a:	f854 302c 	ldr.w	r3, [r4, ip, lsl #2]
  2e:	f106 080c 	add.w	r8, r6, #12
  32:	1e57      	subs	r7, r2, #1
  34:	fa23 fe09 	lsr.w	lr, r3, r9
  38:	eb04 0282 	add.w	r2, r4, r2, lsl #2
  3c:	44a0      	add	r8, r4
  3e:	b9c7      	cbnz	r7, 72 <sp_lshb+0x72>
  40:	68a2      	ldr	r2, [r4, #8]
  42:	1cab      	adds	r3, r5, #2
  44:	408a      	lsls	r2, r1
  46:	f844 2023 	str.w	r2, [r4, r3, lsl #2]
  4a:	f1be 0f00 	cmp.w	lr, #0
  4e:	d004      	beq.n	5a <sp_lshb+0x5a>
  50:	3002      	adds	r0, #2
  52:	f844 e020 	str.w	lr, [r4, r0, lsl #2]
  56:	f8c4 c000 	str.w	ip, [r4]
  5a:	6823      	ldr	r3, [r4, #0]
  5c:	4620      	mov	r0, r4
  5e:	442b      	add	r3, r5
  60:	f840 3b08 	str.w	r3, [r0], #8
  64:	4632      	mov	r2, r6
  66:	2100      	movs	r1, #0
  68:	f7ff fffe 	bl	0 <memset>
  6c:	2000      	movs	r0, #0
  6e:	e8bd 87f0 	ldmia.w	sp!, {r4, r5, r6, r7, r8, r9, sl, pc}
  72:	4692      	mov	sl, r2
  74:	3f01      	subs	r7, #1
  76:	f8da 3004 	ldr.w	r3, [sl, #4]
  7a:	f8da a000 	ldr.w	sl, [sl]
  7e:	408b      	lsls	r3, r1
  80:	fa2a fa09 	lsr.w	sl, sl, r9
  84:	ea43 030a 	orr.w	r3, r3, sl
  88:	f848 3027 	str.w	r3, [r8, r7, lsl #2]
  8c:	3a04      	subs	r2, #4
  8e:	e7d6      	b.n	3e <sp_lshb+0x3e>
  90:	2d00      	cmp	r5, #0
  92:	d0e2      	beq.n	5a <sp_lshb+0x5a>
  94:	f104 0108 	add.w	r1, r4, #8
  98:	0092      	lsls	r2, r2, #2
  9a:	1988      	adds	r0, r1, r6
  9c:	f7ff fffe 	bl	0 <memmove>
  a0:	e7db      	b.n	5a <sp_lshb+0x5a>
  a2:	f06f 0002 	mvn.w	r0, #2
  a6:	e7e2      	b.n	6e <sp_lshb+0x6e>

Disassembly of section .text._sp_mont_setup.isra.0:

00000000 <_sp_mont_setup.isra.0>:
   0:	eb00 0240 	add.w	r2, r0, r0, lsl #1
   4:	f082 0202 	eor.w	r2, r2, #2
   8:	4350      	muls	r0, r2
   a:	f1c0 0301 	rsb	r3, r0, #1
   e:	f1c0 0002 	rsb	r0, r0, #2
  12:	435b      	muls	r3, r3
  14:	4350      	muls	r0, r2
  16:	fb03 0000 	mla	r0, r3, r0, r0
  1a:	435b      	muls	r3, r3
  1c:	fb03 0000 	mla	r0, r3, r0, r0
  20:	4240      	negs	r0, r0
  22:	6008      	str	r0, [r1, #0]
  24:	4770      	bx	lr

Disassembly of section .text.sp_init_size:

00000000 <sp_init_size>:
   0:	4603      	mov	r3, r0
   2:	b138      	cbz	r0, 14 <sp_init_size+0x14>
   4:	1e4a      	subs	r2, r1, #1
   6:	2ac0      	cmp	r2, #192	@ 0xc0
   8:	d804      	bhi.n	14 <sp_init_size+0x14>
   a:	2000      	movs	r0, #0
   c:	e9c3 1001 	strd	r1, r0, [r3, #4]
  10:	6018      	str	r0, [r3, #0]
  12:	4770      	bx	lr
  14:	f06f 0002 	mvn.w	r0, #2
  18:	4770      	bx	lr

Disassembly of section .text.sp_init:

00000000 <sp_init>:
   0:	b130      	cbz	r0, 10 <sp_init+0x10>
   2:	2300      	movs	r3, #0
   4:	22c1      	movs	r2, #193	@ 0xc1
   6:	6003      	str	r3, [r0, #0]
   8:	6083      	str	r3, [r0, #8]
   a:	6042      	str	r2, [r0, #4]
   c:	4618      	mov	r0, r3
   e:	4770      	bx	lr
  10:	f06f 0002 	mvn.w	r0, #2
  14:	4770      	bx	lr

Disassembly of section .text.sp_init_multi:

00000000 <sp_init_multi>:
   0:	b570      	push	{r4, r5, r6, lr}
   2:	e9dd 5404 	ldrd	r5, r4, [sp, #16]
   6:	b120      	cbz	r0, 12 <sp_init_multi+0x12>
   8:	2600      	movs	r6, #0
   a:	6006      	str	r6, [r0, #0]
   c:	6086      	str	r6, [r0, #8]
   e:	26c1      	movs	r6, #193	@ 0xc1
  10:	6046      	str	r6, [r0, #4]
  12:	b121      	cbz	r1, 1e <sp_init_multi+0x1e>
  14:	2000      	movs	r0, #0
  16:	6008      	str	r0, [r1, #0]
  18:	6088      	str	r0, [r1, #8]
  1a:	20c1      	movs	r0, #193	@ 0xc1
  1c:	6048      	str	r0, [r1, #4]
  1e:	b122      	cbz	r2, 2a <sp_init_multi+0x2a>
  20:	2100      	movs	r1, #0
  22:	6011      	str	r1, [r2, #0]
  24:	6091      	str	r1, [r2, #8]
  26:	21c1      	movs	r1, #193	@ 0xc1
  28:	6051      	str	r1, [r2, #4]
  2a:	b123      	cbz	r3, 36 <sp_init_multi+0x36>
  2c:	2200      	movs	r2, #0
  2e:	601a      	str	r2, [r3, #0]
  30:	609a      	str	r2, [r3, #8]
  32:	22c1      	movs	r2, #193	@ 0xc1
  34:	605a      	str	r2, [r3, #4]
  36:	b125      	cbz	r5, 42 <sp_init_multi+0x42>
  38:	2300      	movs	r3, #0
  3a:	602b      	str	r3, [r5, #0]
  3c:	60ab      	str	r3, [r5, #8]
  3e:	23c1      	movs	r3, #193	@ 0xc1
  40:	606b      	str	r3, [r5, #4]
  42:	b124      	cbz	r4, 4e <sp_init_multi+0x4e>
  44:	2300      	movs	r3, #0
  46:	6023      	str	r3, [r4, #0]
  48:	60a3      	str	r3, [r4, #8]
  4a:	23c1      	movs	r3, #193	@ 0xc1
  4c:	6063      	str	r3, [r4, #4]
  4e:	2000      	movs	r0, #0
  50:	bd70      	pop	{r4, r5, r6, pc}

Disassembly of section .text.sp_free:

00000000 <sp_free>:
   0:	4770      	bx	lr

Disassembly of section .text.sp_grow:

00000000 <sp_grow>:
   0:	b178      	cbz	r0, 22 <sp_grow+0x22>
   2:	2900      	cmp	r1, #0
   4:	db0d      	blt.n	22 <sp_grow+0x22>
   6:	6843      	ldr	r3, [r0, #4]
   8:	428b      	cmp	r3, r1
   a:	d30d      	bcc.n	28 <sp_grow+0x28>
   c:	f850 3b08 	ldr.w	r3, [r0], #8
  10:	2200      	movs	r2, #0
  12:	4299      	cmp	r1, r3
  14:	d801      	bhi.n	1a <sp_grow+0x1a>
  16:	2000      	movs	r0, #0
  18:	4770      	bx	lr
  1a:	f840 2023 	str.w	r2, [r0, r3, lsl #2]
  1e:	3301      	adds	r3, #1
  20:	e7f7      	b.n	12 <sp_grow+0x12>
  22:	f06f 0002 	mvn.w	r0, #2
  26:	4770      	bx	lr
  28:	f06f 0001 	mvn.w	r0, #1
  2c:	4770      	bx	lr

Disassembly of section .text.sp_clear:

00000000 <sp_clear>:
   0:	b510      	push	{r4, lr}
   2:	b140      	cbz	r0, 16 <sp_clear+0x16>
   4:	4602      	mov	r2, r0
   6:	2300      	movs	r3, #0
   8:	f852 4b04 	ldr.w	r4, [r2], #4
   c:	4619      	mov	r1, r3
   e:	42a3      	cmp	r3, r4
  10:	d102      	bne.n	18 <sp_clear+0x18>
  12:	6001      	str	r1, [r0, #0]
  14:	6081      	str	r1, [r0, #8]
  16:	bd10      	pop	{r4, pc}
  18:	f842 1f04 	str.w	r1, [r2, #4]!
  1c:	3301      	adds	r3, #1
  1e:	e7f6      	b.n	e <sp_clear+0xe>

Disassembly of section .text.sp_forcezero:

00000000 <sp_forcezero>:
   0:	b150      	cbz	r0, 18 <sp_forcezero+0x18>
   2:	6842      	ldr	r2, [r0, #4]
   4:	eb00 0282 	add.w	r2, r0, r2, lsl #2
   8:	f100 0308 	add.w	r3, r0, #8
   c:	3208      	adds	r2, #8
   e:	2100      	movs	r1, #0
  10:	4293      	cmp	r3, r2
  12:	d102      	bne.n	1a <sp_forcezero+0x1a>
  14:	6001      	str	r1, [r0, #0]
  16:	6081      	str	r1, [r0, #8]
  18:	4770      	bx	lr
  1a:	f803 1b01 	strb.w	r1, [r3], #1
  1e:	e7f7      	b.n	10 <sp_forcezero+0x10>

Disassembly of section .text.sp_copy:

00000000 <sp_copy>:
   0:	b508      	push	{r3, lr}
   2:	4602      	mov	r2, r0
   4:	460b      	mov	r3, r1
   6:	b100      	cbz	r0, a <sp_copy+0xa>
   8:	b911      	cbnz	r1, 10 <sp_copy+0x10>
   a:	f06f 0002 	mvn.w	r0, #2
   e:	bd08      	pop	{r3, pc}
  10:	4288      	cmp	r0, r1
  12:	d005      	beq.n	20 <sp_copy+0x20>
  14:	6812      	ldr	r2, [r2, #0]
  16:	685b      	ldr	r3, [r3, #4]
  18:	429a      	cmp	r2, r3
  1a:	d8f6      	bhi.n	a <sp_copy+0xa>
  1c:	f7ff fffe 	bl	0 <sp_copy>
  20:	2000      	movs	r0, #0
  22:	e7f4      	b.n	e <sp_copy+0xe>

Disassembly of section .text.sp_init_copy:

00000000 <sp_init_copy>:
   0:	b538      	push	{r3, r4, r5, lr}
   2:	4605      	mov	r5, r0
   4:	460c      	mov	r4, r1
   6:	f7ff fffe 	bl	0 <sp_init_copy>
   a:	b928      	cbnz	r0, 18 <sp_init_copy+0x18>
   c:	4629      	mov	r1, r5
   e:	4620      	mov	r0, r4
  10:	e8bd 4038 	ldmia.w	sp!, {r3, r4, r5, lr}
  14:	f7ff bffe 	b.w	0 <sp_init_copy>
  18:	bd38      	pop	{r3, r4, r5, pc}

Disassembly of section .text.sp_exch:

00000000 <sp_exch>:
   0:	e92d 43f8 	stmdb	sp!, {r3, r4, r5, r6, r7, r8, r9, lr}
   4:	460c      	mov	r4, r1
   6:	af00      	add	r7, sp, #0
   8:	4605      	mov	r5, r0
   a:	2800      	cmp	r0, #0
   c:	d03d      	beq.n	8a <sp_exch+0x8a>
   e:	2900      	cmp	r1, #0
  10:	d03b      	beq.n	8a <sp_exch+0x8a>
  12:	f8d0 9004 	ldr.w	r9, [r0, #4]
  16:	680b      	ldr	r3, [r1, #0]
  18:	4599      	cmp	r9, r3
  1a:	d336      	bcc.n	8a <sp_exch+0x8a>
  1c:	f8d1 8004 	ldr.w	r8, [r1, #4]
  20:	6803      	ldr	r3, [r0, #0]
  22:	4598      	cmp	r8, r3
  24:	d331      	bcc.n	8a <sp_exch+0x8a>
  26:	2b01      	cmp	r3, #1
  28:	461a      	mov	r2, r3
  2a:	bf38      	it	cc
  2c:	2201      	movcc	r2, #1
  2e:	3202      	adds	r2, #2
  30:	0092      	lsls	r2, r2, #2
  32:	1dd1      	adds	r1, r2, #7
  34:	f021 0107 	bic.w	r1, r1, #7
  38:	2bc1      	cmp	r3, #193	@ 0xc1
  3a:	466e      	mov	r6, sp
  3c:	ebad 0d01 	sub.w	sp, sp, r1
  40:	d820      	bhi.n	84 <sp_exch+0x84>
  42:	4601      	mov	r1, r0
  44:	4668      	mov	r0, sp
  46:	f7ff fffe 	bl	0 <memcpy>
  4a:	6822      	ldr	r2, [r4, #0]
  4c:	2a01      	cmp	r2, #1
  4e:	bf38      	it	cc
  50:	2201      	movcc	r2, #1
  52:	3202      	adds	r2, #2
  54:	0092      	lsls	r2, r2, #2
  56:	4621      	mov	r1, r4
  58:	4628      	mov	r0, r5
  5a:	f7ff fffe 	bl	0 <memcpy>
  5e:	9a00      	ldr	r2, [sp, #0]
  60:	2a01      	cmp	r2, #1
  62:	bf38      	it	cc
  64:	2201      	movcc	r2, #1
  66:	3202      	adds	r2, #2
  68:	0092      	lsls	r2, r2, #2
  6a:	4669      	mov	r1, sp
  6c:	4620      	mov	r0, r4
  6e:	f7ff fffe 	bl	0 <memcpy>
  72:	f8c5 9004 	str.w	r9, [r5, #4]
  76:	2000      	movs	r0, #0
  78:	f8c4 8004 	str.w	r8, [r4, #4]
  7c:	46b5      	mov	sp, r6
  7e:	46bd      	mov	sp, r7
  80:	e8bd 83f8 	ldmia.w	sp!, {r3, r4, r5, r6, r7, r8, r9, pc}
  84:	f06f 0002 	mvn.w	r0, #2
  88:	e7f8      	b.n	7c <sp_exch+0x7c>
  8a:	f06f 0002 	mvn.w	r0, #2
  8e:	e7f6      	b.n	7e <sp_exch+0x7e>

Disassembly of section .text.sp_cmp:

00000000 <sp_cmp>:
   0:	4288      	cmp	r0, r1
   2:	d003      	beq.n	c <sp_cmp+0xc>
   4:	b120      	cbz	r0, 10 <sp_cmp+0x10>
   6:	b131      	cbz	r1, 16 <sp_cmp+0x16>
   8:	f7ff bffe 	b.w	0 <sp_cmp>
   c:	2000      	movs	r0, #0
   e:	4770      	bx	lr
  10:	f04f 30ff 	mov.w	r0, #4294967295	@ 0xffffffff
  14:	4770      	bx	lr
  16:	2001      	movs	r0, #1
  18:	4770      	bx	lr

Disassembly of section .text.sp_count_bits:

00000000 <sp_count_bits>:
   0:	4602      	mov	r2, r0
   2:	b1d8      	cbz	r0, 3c <sp_count_bits+0x3c>
   4:	6800      	ldr	r0, [r0, #0]
   6:	b1d0      	cbz	r0, 3e <sp_count_bits+0x3e>
   8:	1e43      	subs	r3, r0, #1
   a:	f102 0008 	add.w	r0, r2, #8
   e:	2b00      	cmp	r3, #0
  10:	db14      	blt.n	3c <sp_count_bits+0x3c>
  12:	f850 1023 	ldr.w	r1, [r0, r3, lsl #2]
  16:	b179      	cbz	r1, 38 <sp_count_bits+0x38>
  18:	1c99      	adds	r1, r3, #2
  1a:	015b      	lsls	r3, r3, #5
  1c:	f852 0021 	ldr.w	r0, [r2, r1, lsl #2]
  20:	f5b0 3f80 	cmp.w	r0, #65536	@ 0x10000
  24:	bf28      	it	cs
  26:	3320      	addcs	r3, #32
  28:	fab0 f080 	clz	r0, r0
  2c:	bf2e      	itee	cs
  2e:	1a18      	subcs	r0, r3, r0
  30:	f1c0 0020 	rsbcc	r0, r0, #32
  34:	18c0      	addcc	r0, r0, r3
  36:	4770      	bx	lr
  38:	3b01      	subs	r3, #1
  3a:	e7e8      	b.n	e <sp_count_bits+0xe>
  3c:	2000      	movs	r0, #0
  3e:	4770      	bx	lr

Disassembly of section .text.sp_leading_bit:

00000000 <sp_leading_bit>:
   0:	4602      	mov	r2, r0
   2:	b150      	cbz	r0, 1a <sp_leading_bit+0x1a>
   4:	6800      	ldr	r0, [r0, #0]
   6:	b140      	cbz	r0, 1a <sp_leading_bit+0x1a>
   8:	1c43      	adds	r3, r0, #1
   a:	f852 0023 	ldr.w	r0, [r2, r3, lsl #2]
   e:	28ff      	cmp	r0, #255	@ 0xff
  10:	d801      	bhi.n	16 <sp_leading_bit+0x16>
  12:	09c0      	lsrs	r0, r0, #7
  14:	4770      	bx	lr
  16:	0a00      	lsrs	r0, r0, #8
  18:	e7f9      	b.n	e <sp_leading_bit+0xe>
  1a:	4770      	bx	lr

Disassembly of section .text.sp_set_bit:

00000000 <sp_set_bit>:
   0:	b570      	push	{r4, r5, r6, lr}
   2:	114b      	asrs	r3, r1, #5
   4:	b308      	cbz	r0, 4a <sp_set_bit+0x4a>
   6:	2900      	cmp	r1, #0
   8:	db1f      	blt.n	4a <sp_set_bit+0x4a>
   a:	6842      	ldr	r2, [r0, #4]
   c:	429a      	cmp	r2, r3
   e:	d91c      	bls.n	4a <sp_set_bit+0x4a>
  10:	4604      	mov	r4, r0
  12:	f001 011f 	and.w	r1, r1, #31
  16:	f854 5b08 	ldr.w	r5, [r4], #8
  1a:	2600      	movs	r6, #0
  1c:	462a      	mov	r2, r5
  1e:	429a      	cmp	r2, r3
  20:	d90c      	bls.n	3c <sp_set_bit+0x3c>
  22:	eb00 0483 	add.w	r4, r0, r3, lsl #2
  26:	2201      	movs	r2, #1
  28:	fa02 f101 	lsl.w	r1, r2, r1
  2c:	68a2      	ldr	r2, [r4, #8]
  2e:	42ab      	cmp	r3, r5
  30:	ea42 0201 	orr.w	r2, r2, r1
  34:	60a2      	str	r2, [r4, #8]
  36:	d205      	bcs.n	44 <sp_set_bit+0x44>
  38:	2000      	movs	r0, #0
  3a:	bd70      	pop	{r4, r5, r6, pc}
  3c:	f844 6022 	str.w	r6, [r4, r2, lsl #2]
  40:	3201      	adds	r2, #1
  42:	e7ec      	b.n	1e <sp_set_bit+0x1e>
  44:	3301      	adds	r3, #1
  46:	6003      	str	r3, [r0, #0]
  48:	e7f6      	b.n	38 <sp_set_bit+0x38>
  4a:	f06f 0002 	mvn.w	r0, #2
  4e:	e7f4      	b.n	3a <sp_set_bit+0x3a>

Disassembly of section .text.sp_2expt:

00000000 <sp_2expt>:
   0:	b130      	cbz	r0, 10 <sp_2expt+0x10>
   2:	2900      	cmp	r1, #0
   4:	db04      	blt.n	10 <sp_2expt+0x10>
   6:	2200      	movs	r2, #0
   8:	6002      	str	r2, [r0, #0]
   a:	6082      	str	r2, [r0, #8]
   c:	f7ff bffe 	b.w	0 <sp_2expt>
  10:	f06f 0002 	mvn.w	r0, #2
  14:	4770      	bx	lr

Disassembly of section .text.sp_set:

00000000 <sp_set>:
   0:	b130      	cbz	r0, 10 <sp_set+0x10>
   2:	6081      	str	r1, [r0, #8]
   4:	3900      	subs	r1, #0
   6:	bf18      	it	ne
   8:	2101      	movne	r1, #1
   a:	6001      	str	r1, [r0, #0]
   c:	2000      	movs	r0, #0
   e:	4770      	bx	lr
  10:	f06f 0002 	mvn.w	r0, #2
  14:	4770      	bx	lr

Disassembly of section .text.sp_set_int:

00000000 <sp_set_int>:
   0:	b130      	cbz	r0, 10 <sp_set_int+0x10>
   2:	6081      	str	r1, [r0, #8]
   4:	3900      	subs	r1, #0
   6:	bf18      	it	ne
   8:	2101      	movne	r1, #1
   a:	6001      	str	r1, [r0, #0]
   c:	2000      	movs	r0, #0
   e:	4770      	bx	lr
  10:	f06f 0002 	mvn.w	r0, #2
  14:	4770      	bx	lr

Disassembly of section .text.sp_cmp_d:

00000000 <sp_cmp_d>:
   0:	b170      	cbz	r0, 20 <sp_cmp_d+0x20>
   2:	6803      	ldr	r3, [r0, #0]
   4:	2b01      	cmp	r3, #1
   6:	d80e      	bhi.n	26 <sp_cmp_d+0x26>
   8:	b923      	cbnz	r3, 14 <sp_cmp_d+0x14>
   a:	1e08      	subs	r0, r1, #0
   c:	bf18      	it	ne
   e:	2001      	movne	r0, #1
  10:	4240      	negs	r0, r0
  12:	4770      	bx	lr
  14:	6883      	ldr	r3, [r0, #8]
  16:	428b      	cmp	r3, r1
  18:	d805      	bhi.n	26 <sp_cmp_d+0x26>
  1a:	eb60 0000 	sbc.w	r0, r0, r0
  1e:	4770      	bx	lr
  20:	f04f 30ff 	mov.w	r0, #4294967295	@ 0xffffffff
  24:	4770      	bx	lr
  26:	2001      	movs	r0, #1
  28:	4770      	bx	lr

Disassembly of section .text.sp_add_d:

00000000 <sp_add_d>:
   0:	b5f0      	push	{r4, r5, r6, r7, lr}
   2:	b910      	cbnz	r0, a <sp_add_d+0xa>
   4:	f06f 0002 	mvn.w	r0, #2
   8:	bdf0      	pop	{r4, r5, r6, r7, pc}
   a:	2a00      	cmp	r2, #0
   c:	d0fa      	beq.n	4 <sp_add_d+0x4>
   e:	6804      	ldr	r4, [r0, #0]
  10:	6855      	ldr	r5, [r2, #4]
  12:	1c66      	adds	r6, r4, #1
  14:	42ae      	cmp	r6, r5
  16:	d8f5      	bhi.n	4 <sp_add_d+0x4>
  18:	b934      	cbnz	r4, 28 <sp_add_d+0x28>
  1a:	6091      	str	r1, [r2, #8]
  1c:	3900      	subs	r1, #0
  1e:	bf18      	it	ne
  20:	2101      	movne	r1, #1
  22:	6011      	str	r1, [r2, #0]
  24:	2000      	movs	r0, #0
  26:	e7ef      	b.n	8 <sp_add_d+0x8>
  28:	6883      	ldr	r3, [r0, #8]
  2a:	6014      	str	r4, [r2, #0]
  2c:	18c9      	adds	r1, r1, r3
  2e:	bf2c      	ite	cs
  30:	2301      	movcs	r3, #1
  32:	2300      	movcc	r3, #0
  34:	6091      	str	r1, [r2, #8]
  36:	d30d      	bcc.n	54 <sp_add_d+0x54>
  38:	f100 0708 	add.w	r7, r0, #8
  3c:	f102 0c08 	add.w	ip, r2, #8
  40:	2301      	movs	r3, #1
  42:	429c      	cmp	r4, r3
  44:	d114      	bne.n	70 <sp_add_d+0x70>
  46:	429d      	cmp	r5, r3
  48:	d9dc      	bls.n	4 <sp_add_d+0x4>
  4a:	1c99      	adds	r1, r3, #2
  4c:	2401      	movs	r4, #1
  4e:	6016      	str	r6, [r2, #0]
  50:	f842 4021 	str.w	r4, [r2, r1, lsl #2]
  54:	4290      	cmp	r0, r2
  56:	d0e5      	beq.n	24 <sp_add_d+0x24>
  58:	6804      	ldr	r4, [r0, #0]
  5a:	3302      	adds	r3, #2
  5c:	1c59      	adds	r1, r3, #1
  5e:	3b01      	subs	r3, #1
  60:	42a3      	cmp	r3, r4
  62:	d2df      	bcs.n	24 <sp_add_d+0x24>
  64:	f850 3021 	ldr.w	r3, [r0, r1, lsl #2]
  68:	f842 3021 	str.w	r3, [r2, r1, lsl #2]
  6c:	460b      	mov	r3, r1
  6e:	e7f5      	b.n	5c <sp_add_d+0x5c>
  70:	f857 1f04 	ldr.w	r1, [r7, #4]!
  74:	3101      	adds	r1, #1
  76:	f84c 1f04 	str.w	r1, [ip, #4]!
  7a:	2900      	cmp	r1, #0
  7c:	d1ea      	bne.n	54 <sp_add_d+0x54>
  7e:	3301      	adds	r3, #1
  80:	e7df      	b.n	42 <sp_add_d+0x42>

Disassembly of section .text.sp_sub_d:

00000000 <sp_sub_d>:
   0:	b510      	push	{r4, lr}
   2:	b140      	cbz	r0, 16 <sp_sub_d+0x16>
   4:	b13a      	cbz	r2, 16 <sp_sub_d+0x16>
   6:	6804      	ldr	r4, [r0, #0]
   8:	6853      	ldr	r3, [r2, #4]
   a:	429c      	cmp	r4, r3
   c:	d803      	bhi.n	16 <sp_sub_d+0x16>
   e:	f7ff fffe 	bl	0 <sp_sub_d>
  12:	2000      	movs	r0, #0
  14:	bd10      	pop	{r4, pc}
  16:	f06f 0002 	mvn.w	r0, #2
  1a:	e7fb      	b.n	14 <sp_sub_d+0x14>

Disassembly of section .text.sp_mod_d:

00000000 <sp_mod_d>:
   0:	e92d 41f0 	stmdb	sp!, {r4, r5, r6, r7, r8, lr}
   4:	460e      	mov	r6, r1
   6:	4615      	mov	r5, r2
   8:	2800      	cmp	r0, #0
   a:	d071      	beq.n	f0 <sp_mod_d+0xf0>
   c:	2a00      	cmp	r2, #0
   e:	d06f      	beq.n	f0 <sp_mod_d+0xf0>
  10:	2900      	cmp	r1, #0
  12:	d06d      	beq.n	f0 <sp_mod_d+0xf0>
  14:	1e4a      	subs	r2, r1, #1
  16:	420a      	tst	r2, r1
  18:	6803      	ldr	r3, [r0, #0]
  1a:	d106      	bne.n	2a <sp_mod_d+0x2a>
  1c:	b10b      	cbz	r3, 22 <sp_mod_d+0x22>
  1e:	6883      	ldr	r3, [r0, #8]
  20:	4013      	ands	r3, r2
  22:	602b      	str	r3, [r5, #0]
  24:	2000      	movs	r0, #0
  26:	e8bd 81f0 	ldmia.w	sp!, {r4, r5, r6, r7, r8, pc}
  2a:	2903      	cmp	r1, #3
  2c:	d11d      	bne.n	6a <sp_mod_d+0x6a>
  2e:	2400      	movs	r4, #0
  30:	3004      	adds	r0, #4
  32:	4621      	mov	r1, r4
  34:	4622      	mov	r2, r4
  36:	429c      	cmp	r4, r3
  38:	d110      	bne.n	5c <sp_mod_d+0x5c>
  3a:	1852      	adds	r2, r2, r1
  3c:	f04f 0300 	mov.w	r3, #0
  40:	f04f 3055 	mov.w	r0, #1431655765	@ 0x55555555
  44:	eb43 0103 	adc.w	r1, r3, r3
  48:	fba2 4300 	umull	r4, r3, r2, r0
  4c:	fb00 3301 	mla	r3, r0, r1, r3
  50:	eb03 0343 	add.w	r3, r3, r3, lsl #1
  54:	1ad2      	subs	r2, r2, r3
  56:	4b28      	ldr	r3, [pc, #160]	@ (f8 <sp_mod_d+0xf8>)
  58:	5c9b      	ldrb	r3, [r3, r2]
  5a:	e7e2      	b.n	22 <sp_mod_d+0x22>
  5c:	f850 6f04 	ldr.w	r6, [r0, #4]!
  60:	1871      	adds	r1, r6, r1
  62:	f142 0200 	adc.w	r2, r2, #0
  66:	3401      	adds	r4, #1
  68:	e7e5      	b.n	36 <sp_mod_d+0x36>
  6a:	290a      	cmp	r1, #10
  6c:	f103 37ff 	add.w	r7, r3, #4294967295	@ 0xffffffff
  70:	d113      	bne.n	9a <sp_mod_d+0x9a>
  72:	4922      	ldr	r1, [pc, #136]	@ (fc <sp_mod_d+0xfc>)
  74:	2300      	movs	r3, #0
  76:	3008      	adds	r0, #8
  78:	e00c      	b.n	94 <sp_mod_d+0x94>
  7a:	f850 2027 	ldr.w	r2, [r0, r7, lsl #2]
  7e:	fba2 c401 	umull	ip, r4, r2, r1
  82:	fb01 4303 	mla	r3, r1, r3, r4
  86:	fb06 2213 	mls	r2, r6, r3, r2
  8a:	3f01      	subs	r7, #1
  8c:	fbb2 f3f6 	udiv	r3, r2, r6
  90:	fb06 2313 	mls	r3, r6, r3, r2
  94:	2f00      	cmp	r7, #0
  96:	daf0      	bge.n	7a <sp_mod_d+0x7a>
  98:	e7c3      	b.n	22 <sp_mod_d+0x22>
  9a:	f5b1 3f80 	cmp.w	r1, #65536	@ 0x10000
  9e:	d223      	bcs.n	e8 <sp_mod_d+0xe8>
  a0:	2300      	movs	r3, #0
  a2:	3008      	adds	r0, #8
  a4:	f04f 31ff 	mov.w	r1, #4294967295	@ 0xffffffff
  a8:	fbb1 f1f6 	udiv	r1, r1, r6
  ac:	2f00      	cmp	r7, #0
  ae:	dbb8      	blt.n	22 <sp_mod_d+0x22>
  b0:	f850 2027 	ldr.w	r2, [r0, r7, lsl #2]
  b4:	fba1 c402 	umull	ip, r4, r1, r2
  b8:	fb01 4303 	mla	r3, r1, r3, r4
  bc:	fb03 2216 	mls	r2, r3, r6, r2
  c0:	3f01      	subs	r7, #1
  c2:	fbb2 f3f6 	udiv	r3, r2, r6
  c6:	fb06 2313 	mls	r3, r6, r3, r2
  ca:	e7ef      	b.n	ac <sp_mod_d+0xac>
  cc:	f854 8027 	ldr.w	r8, [r4, r7, lsl #2]
  d0:	4632      	mov	r2, r6
  d2:	2300      	movs	r3, #0
  d4:	4640      	mov	r0, r8
  d6:	f7ff fffe 	bl	0 <__aeabi_uldivmod>
  da:	3f01      	subs	r7, #1
  dc:	fb00 8116 	mls	r1, r0, r6, r8
  e0:	2f00      	cmp	r7, #0
  e2:	daf3      	bge.n	cc <sp_mod_d+0xcc>
  e4:	460b      	mov	r3, r1
  e6:	e79c      	b.n	22 <sp_mod_d+0x22>
  e8:	2100      	movs	r1, #0
  ea:	f100 0408 	add.w	r4, r0, #8
  ee:	e7f7      	b.n	e0 <sp_mod_d+0xe0>
  f0:	f06f 0002 	mvn.w	r0, #2
  f4:	e797      	b.n	26 <sp_mod_d+0x26>
  f6:	bf00      	nop
  f8:	00000000 	.word	0x00000000
  fc:	19999999 	.word	0x19999999

Disassembly of section .text.sp_div_primes:

00000000 <sp_div_primes>:
   0:	e92d 41f3 	stmdb	sp!, {r0, r1, r4, r5, r6, r7, r8, lr}
   4:	f8df 8034 	ldr.w	r8, [pc, #52]	@ 3c <sp_div_primes+0x3c>
   8:	4605      	mov	r5, r0
   a:	460e      	mov	r6, r1
   c:	4617      	mov	r7, r2
   e:	2400      	movs	r4, #0
  10:	f838 1b02 	ldrh.w	r1, [r8], #2
  14:	aa01      	add	r2, sp, #4
  16:	4628      	mov	r0, r5
  18:	f7ff fffe 	bl	0 <sp_div_primes>
  1c:	b908      	cbnz	r0, 22 <sp_div_primes+0x22>
  1e:	9b01      	ldr	r3, [sp, #4]
  20:	b933      	cbnz	r3, 30 <sp_div_primes+0x30>
  22:	2300      	movs	r3, #0
  24:	603b      	str	r3, [r7, #0]
  26:	2301      	movs	r3, #1
  28:	6033      	str	r3, [r6, #0]
  2a:	b002      	add	sp, #8
  2c:	e8bd 81f0 	ldmia.w	sp!, {r4, r5, r6, r7, r8, pc}
  30:	3401      	adds	r4, #1
  32:	f5b4 7f80 	cmp.w	r4, #256	@ 0x100
  36:	d1eb      	bne.n	10 <sp_div_primes+0x10>
  38:	e7f7      	b.n	2a <sp_div_primes+0x2a>
  3a:	bf00      	nop
  3c:	00000000 	.word	0x00000000

Disassembly of section .text.sp_sub:

00000000 <sp_sub>:
   0:	b538      	push	{r3, r4, r5, lr}
   2:	b168      	cbz	r0, 20 <sp_sub+0x20>
   4:	b161      	cbz	r1, 20 <sp_sub+0x20>
   6:	b15a      	cbz	r2, 20 <sp_sub+0x20>
   8:	6855      	ldr	r5, [r2, #4]
   a:	6804      	ldr	r4, [r0, #0]
   c:	42ac      	cmp	r4, r5
   e:	d207      	bcs.n	20 <sp_sub+0x20>
  10:	680b      	ldr	r3, [r1, #0]
  12:	429d      	cmp	r5, r3
  14:	d904      	bls.n	20 <sp_sub+0x20>
  16:	2300      	movs	r3, #0
  18:	f7ff fffe 	bl	0 <sp_sub>
  1c:	2000      	movs	r0, #0
  1e:	bd38      	pop	{r3, r4, r5, pc}
  20:	f06f 0002 	mvn.w	r0, #2
  24:	e7fb      	b.n	1e <sp_sub+0x1e>

Disassembly of section .text.sp_lshd:

00000000 <sp_lshd>:
   0:	b5f8      	push	{r3, r4, r5, r6, r7, lr}
   2:	460c      	mov	r4, r1
   4:	4605      	mov	r5, r0
   6:	b318      	cbz	r0, 50 <sp_lshd+0x50>
   8:	2900      	cmp	r1, #0
   a:	db21      	blt.n	50 <sp_lshd+0x50>
   c:	6802      	ldr	r2, [r0, #0]
   e:	6843      	ldr	r3, [r0, #4]
  10:	1851      	adds	r1, r2, r1
  12:	4299      	cmp	r1, r3
  14:	d81c      	bhi.n	50 <sp_lshd+0x50>
  16:	f100 0608 	add.w	r6, r0, #8
  1a:	00a7      	lsls	r7, r4, #2
  1c:	0092      	lsls	r2, r2, #2
  1e:	4631      	mov	r1, r6
  20:	eb06 0084 	add.w	r0, r6, r4, lsl #2
  24:	f7ff fffe 	bl	0 <memmove>
  28:	463a      	mov	r2, r7
  2a:	2100      	movs	r1, #0
  2c:	4630      	mov	r0, r6
  2e:	f7ff fffe 	bl	0 <memset>
  32:	682b      	ldr	r3, [r5, #0]
  34:	441c      	add	r4, r3
  36:	602c      	str	r4, [r5, #0]
  38:	b924      	cbnz	r4, 44 <sp_lshd+0x44>
  3a:	2000      	movs	r0, #0
  3c:	bdf8      	pop	{r3, r4, r5, r6, r7, pc}
  3e:	f856 3024 	ldr.w	r3, [r6, r4, lsl #2]
  42:	b913      	cbnz	r3, 4a <sp_lshd+0x4a>
  44:	3c01      	subs	r4, #1
  46:	2c00      	cmp	r4, #0
  48:	daf9      	bge.n	3e <sp_lshd+0x3e>
  4a:	3401      	adds	r4, #1
  4c:	602c      	str	r4, [r5, #0]
  4e:	e7f4      	b.n	3a <sp_lshd+0x3a>
  50:	f06f 0002 	mvn.w	r0, #2
  54:	e7f2      	b.n	3c <sp_lshd+0x3c>

Disassembly of section .text.sp_rshd:

00000000 <sp_rshd>:
   0:	b510      	push	{r4, lr}
   2:	b140      	cbz	r0, 16 <sp_rshd+0x16>
   4:	2900      	cmp	r1, #0
   6:	dd06      	ble.n	16 <sp_rshd+0x16>
   8:	6802      	ldr	r2, [r0, #0]
   a:	428a      	cmp	r2, r1
   c:	f04f 0300 	mov.w	r3, #0
  10:	d802      	bhi.n	18 <sp_rshd+0x18>
  12:	6003      	str	r3, [r0, #0]
  14:	6083      	str	r3, [r0, #8]
  16:	bd10      	pop	{r4, pc}
  18:	1a52      	subs	r2, r2, r1
  1a:	f840 2b08 	str.w	r2, [r0], #8
  1e:	3301      	adds	r3, #1
  20:	f850 4021 	ldr.w	r4, [r0, r1, lsl #2]
  24:	f840 4b04 	str.w	r4, [r0], #4
  28:	429a      	cmp	r2, r3
  2a:	d1f8      	bne.n	1e <sp_rshd+0x1e>
  2c:	e7f3      	b.n	16 <sp_rshd+0x16>

Disassembly of section .text.sp_rshb:

00000000 <sp_rshb>:
   0:	b5f8      	push	{r3, r4, r5, r6, r7, lr}
   2:	4613      	mov	r3, r2
   4:	114d      	asrs	r5, r1, #5
   6:	2800      	cmp	r0, #0
   8:	d041      	beq.n	8e <sp_rshb+0x8e>
   a:	2900      	cmp	r1, #0
   c:	db3f      	blt.n	8e <sp_rshb+0x8e>
   e:	6804      	ldr	r4, [r0, #0]
  10:	42ac      	cmp	r4, r5
  12:	d804      	bhi.n	1e <sp_rshb+0x1e>
  14:	2200      	movs	r2, #0
  16:	601a      	str	r2, [r3, #0]
  18:	609a      	str	r2, [r3, #8]
  1a:	2000      	movs	r0, #0
  1c:	bdf8      	pop	{r3, r4, r5, r6, r7, pc}
  1e:	685e      	ldr	r6, [r3, #4]
  20:	1b62      	subs	r2, r4, r5
  22:	42b2      	cmp	r2, r6
  24:	d833      	bhi.n	8e <sp_rshb+0x8e>
  26:	f011 011f 	ands.w	r1, r1, #31
  2a:	d017      	beq.n	5c <sp_rshb+0x5c>
  2c:	1caa      	adds	r2, r5, #2
  2e:	eb00 0082 	add.w	r0, r0, r2, lsl #2
  32:	f103 0c04 	add.w	ip, r3, #4
  36:	462f      	mov	r7, r5
  38:	3c01      	subs	r4, #1
  3a:	f1c1 0e20 	rsb	lr, r1, #32
  3e:	f850 2b04 	ldr.w	r2, [r0], #4
  42:	42bc      	cmp	r4, r7
  44:	fa22 f201 	lsr.w	r2, r2, r1
  48:	d819      	bhi.n	7e <sp_rshb+0x7e>
  4a:	1b64      	subs	r4, r4, r5
  4c:	1ca1      	adds	r1, r4, #2
  4e:	2a00      	cmp	r2, #0
  50:	bf18      	it	ne
  52:	3401      	addne	r4, #1
  54:	f843 2021 	str.w	r2, [r3, r1, lsl #2]
  58:	601c      	str	r4, [r3, #0]
  5a:	e7de      	b.n	1a <sp_rshb+0x1a>
  5c:	00a9      	lsls	r1, r5, #2
  5e:	4298      	cmp	r0, r3
  60:	f100 0008 	add.w	r0, r0, #8
  64:	601a      	str	r2, [r3, #0]
  66:	4401      	add	r1, r0
  68:	ea4f 0282 	mov.w	r2, r2, lsl #2
  6c:	d102      	bne.n	74 <sp_rshb+0x74>
  6e:	f7ff fffe 	bl	0 <memmove>
  72:	e7d2      	b.n	1a <sp_rshb+0x1a>
  74:	f103 0008 	add.w	r0, r3, #8
  78:	f7ff fffe 	bl	0 <memcpy>
  7c:	e7cd      	b.n	1a <sp_rshb+0x1a>
  7e:	6806      	ldr	r6, [r0, #0]
  80:	fa06 f60e 	lsl.w	r6, r6, lr
  84:	4316      	orrs	r6, r2
  86:	f84c 6f04 	str.w	r6, [ip, #4]!
  8a:	3701      	adds	r7, #1
  8c:	e7d7      	b.n	3e <sp_rshb+0x3e>
  8e:	f06f 0002 	mvn.w	r0, #2
  92:	e7c3      	b.n	1c <sp_rshb+0x1c>

Disassembly of section .text._sp_div:

00000000 <_sp_div>:
   0:	e92d 4ff0 	stmdb	sp!, {r4, r5, r6, r7, r8, r9, sl, fp, lr}
   4:	b08d      	sub	sp, #52	@ 0x34
   6:	af00      	add	r7, sp, #0
   8:	461c      	mov	r4, r3
   a:	6dbe      	ldr	r6, [r7, #88]	@ 0x58
   c:	62fa      	str	r2, [r7, #44]	@ 0x2c
   e:	2e01      	cmp	r6, #1
  10:	bf38      	it	cc
  12:	2601      	movcc	r6, #1
  14:	466b      	mov	r3, sp
  16:	3602      	adds	r6, #2
  18:	eba3 1306 	sub.w	r3, r3, r6, lsl #4
  1c:	469d      	mov	sp, r3
  1e:	4682      	mov	sl, r0
  20:	4689      	mov	r9, r1
  22:	f7ff fffe 	bl	0 <_sp_div>
  26:	1c43      	adds	r3, r0, #1
  28:	46eb      	mov	fp, sp
  2a:	d10e      	bne.n	4a <_sp_div+0x4a>
  2c:	b12c      	cbz	r4, 3a <_sp_div+0x3a>
  2e:	45a2      	cmp	sl, r4
  30:	d003      	beq.n	3a <_sp_div+0x3a>
  32:	4621      	mov	r1, r4
  34:	4650      	mov	r0, sl
  36:	f7ff fffe 	bl	0 <_sp_div>
  3a:	6afb      	ldr	r3, [r7, #44]	@ 0x2c
  3c:	b11b      	cbz	r3, 46 <_sp_div+0x46>
  3e:	2300      	movs	r3, #0
  40:	6afa      	ldr	r2, [r7, #44]	@ 0x2c
  42:	6093      	str	r3, [r2, #8]
  44:	6013      	str	r3, [r2, #0]
  46:	2000      	movs	r0, #0
  48:	e05e      	b.n	108 <_sp_div+0x108>
  4a:	b938      	cbnz	r0, 5c <_sp_div+0x5c>
  4c:	b10c      	cbz	r4, 52 <_sp_div+0x52>
  4e:	60a0      	str	r0, [r4, #8]
  50:	6020      	str	r0, [r4, #0]
  52:	6afb      	ldr	r3, [r7, #44]	@ 0x2c
  54:	2b00      	cmp	r3, #0
  56:	d0f6      	beq.n	46 <_sp_div+0x46>
  58:	2301      	movs	r3, #1
  5a:	e7f1      	b.n	40 <_sp_div+0x40>
  5c:	4650      	mov	r0, sl
  5e:	f7ff fffe 	bl	0 <_sp_div>
  62:	4605      	mov	r5, r0
  64:	4648      	mov	r0, r9
  66:	f7ff fffe 	bl	0 <_sp_div>
  6a:	4285      	cmp	r5, r0
  6c:	d108      	bne.n	80 <_sp_div+0x80>
  6e:	2c00      	cmp	r4, #0
  70:	d0ef      	beq.n	52 <_sp_div+0x52>
  72:	2300      	movs	r3, #0
  74:	4622      	mov	r2, r4
  76:	4649      	mov	r1, r9
  78:	4650      	mov	r0, sl
  7a:	f7ff fffe 	bl	0 <_sp_div>
  7e:	e7e8      	b.n	52 <_sp_div+0x52>
  80:	6dbb      	ldr	r3, [r7, #88]	@ 0x58
  82:	2bc1      	cmp	r3, #193	@ 0xc1
  84:	f200 8131 	bhi.w	2ea <_sp_div+0x2ea>
  88:	eb0d 05c6 	add.w	r5, sp, r6, lsl #3
  8c:	eb0d 0886 	add.w	r8, sp, r6, lsl #2
  90:	eb05 0386 	add.w	r3, r5, r6, lsl #2
  94:	6dba      	ldr	r2, [r7, #88]	@ 0x58
  96:	62bb      	str	r3, [r7, #40]	@ 0x28
  98:	2300      	movs	r3, #0
  9a:	f848 3026 	str.w	r3, [r8, r6, lsl #2]
  9e:	f8d9 1000 	ldr.w	r1, [r9]
  a2:	606a      	str	r2, [r5, #4]
  a4:	f8da 2000 	ldr.w	r2, [sl]
  a8:	6ab8      	ldr	r0, [r7, #40]	@ 0x28
  aa:	60ab      	str	r3, [r5, #8]
  ac:	1a52      	subs	r2, r2, r1
  ae:	3202      	adds	r2, #2
  b0:	3101      	adds	r1, #1
  b2:	f845 3026 	str.w	r3, [r5, r6, lsl #2]
  b6:	e9c0 2301 	strd	r2, r3, [r0, #4]
  ba:	9300      	str	r3, [sp, #0]
  bc:	9302      	str	r3, [sp, #8]
  be:	9101      	str	r1, [sp, #4]
  c0:	f84d 3026 	str.w	r3, [sp, r6, lsl #2]
  c4:	f8c8 3008 	str.w	r3, [r8, #8]
  c8:	6dbb      	ldr	r3, [r7, #88]	@ 0x58
  ca:	f8c8 3004 	str.w	r3, [r8, #4]
  ce:	4648      	mov	r0, r9
  d0:	f7ff fffe 	bl	0 <_sp_div>
  d4:	f000 001f 	and.w	r0, r0, #31
  d8:	f1c0 0320 	rsb	r3, r0, #32
  dc:	4629      	mov	r1, r5
  de:	4650      	mov	r0, sl
  e0:	627b      	str	r3, [r7, #36]	@ 0x24
  e2:	f7ff fffe 	bl	0 <_sp_div>
  e6:	6a7b      	ldr	r3, [r7, #36]	@ 0x24
  e8:	2b20      	cmp	r3, #32
  ea:	d011      	beq.n	110 <_sp_div+0x110>
  ec:	4619      	mov	r1, r3
  ee:	4628      	mov	r0, r5
  f0:	f7ff fffe 	bl	0 <_sp_div>
  f4:	b940      	cbnz	r0, 108 <_sp_div+0x108>
  f6:	4669      	mov	r1, sp
  f8:	4648      	mov	r0, r9
  fa:	f7ff fffe 	bl	0 <_sp_div>
  fe:	6a79      	ldr	r1, [r7, #36]	@ 0x24
 100:	4668      	mov	r0, sp
 102:	f7ff fffe 	bl	0 <_sp_div>
 106:	b120      	cbz	r0, 112 <_sp_div+0x112>
 108:	3734      	adds	r7, #52	@ 0x34
 10a:	46bd      	mov	sp, r7
 10c:	e8bd 8ff0 	ldmia.w	sp!, {r4, r5, r6, r7, r8, r9, sl, fp, pc}
 110:	46cb      	mov	fp, r9
 112:	f8db 2000 	ldr.w	r2, [fp]
 116:	2a00      	cmp	r2, #0
 118:	d095      	beq.n	46 <_sp_div+0x46>
 11a:	f858 3026 	ldr.w	r3, [r8, r6, lsl #2]
 11e:	3301      	adds	r3, #1
 120:	1a9b      	subs	r3, r3, r2
 122:	6aba      	ldr	r2, [r7, #40]	@ 0x28
 124:	f845 3026 	str.w	r3, [r5, r6, lsl #2]
 128:	1d11      	adds	r1, r2, #4
 12a:	2200      	movs	r2, #0
 12c:	4610      	mov	r0, r2
 12e:	4293      	cmp	r3, r2
 130:	d16d      	bne.n	20e <_sp_div+0x20e>
 132:	f8db 3000 	ldr.w	r3, [fp]
 136:	6aba      	ldr	r2, [r7, #40]	@ 0x28
 138:	3301      	adds	r3, #1
 13a:	4659      	mov	r1, fp
 13c:	f85b 3023 	ldr.w	r3, [fp, r3, lsl #2]
 140:	617b      	str	r3, [r7, #20]
 142:	4628      	mov	r0, r5
 144:	f7ff fffe 	bl	0 <_sp_div>
 148:	f8db 9000 	ldr.w	r9, [fp]
 14c:	f858 3026 	ldr.w	r3, [r8, r6, lsl #2]
 150:	eba3 0209 	sub.w	r2, r3, r9
 154:	eb05 0282 	add.w	r2, r5, r2, lsl #2
 158:	f103 3aff 	add.w	sl, r3, #4294967295	@ 0xffffffff
 15c:	3301      	adds	r3, #1
 15e:	eb05 0383 	add.w	r3, r5, r3, lsl #2
 162:	623a      	str	r2, [r7, #32]
 164:	6aba      	ldr	r2, [r7, #40]	@ 0x28
 166:	61fb      	str	r3, [r7, #28]
 168:	f06f 0303 	mvn.w	r3, #3
 16c:	fb03 2309 	mla	r3, r3, r9, r2
 170:	330c      	adds	r3, #12
 172:	60fb      	str	r3, [r7, #12]
 174:	f1c9 0301 	rsb	r3, r9, #1
 178:	607b      	str	r3, [r7, #4]
 17a:	f109 0302 	add.w	r3, r9, #2
 17e:	613b      	str	r3, [r7, #16]
 180:	f108 0308 	add.w	r3, r8, #8
 184:	603b      	str	r3, [r7, #0]
 186:	45ca      	cmp	sl, r9
 188:	d245      	bcs.n	216 <_sp_div+0x216>
 18a:	f10a 0301 	add.w	r3, sl, #1
 18e:	f848 3026 	str.w	r3, [r8, r6, lsl #2]
 192:	f8db 2000 	ldr.w	r2, [fp]
 196:	4293      	cmp	r3, r2
 198:	d104      	bne.n	1a4 <_sp_div+0x1a4>
 19a:	6aba      	ldr	r2, [r7, #40]	@ 0x28
 19c:	4659      	mov	r1, fp
 19e:	4628      	mov	r0, r5
 1a0:	f7ff fffe 	bl	0 <_sp_div>
 1a4:	b1cc      	cbz	r4, 1da <_sp_div+0x1da>
 1a6:	6a7b      	ldr	r3, [r7, #36]	@ 0x24
 1a8:	2b20      	cmp	r3, #32
 1aa:	d004      	beq.n	1b6 <_sp_div+0x1b6>
 1ac:	462a      	mov	r2, r5
 1ae:	4619      	mov	r1, r3
 1b0:	4628      	mov	r0, r5
 1b2:	f7ff fffe 	bl	0 <_sp_div>
 1b6:	4621      	mov	r1, r4
 1b8:	4628      	mov	r0, r5
 1ba:	f7ff fffe 	bl	0 <_sp_div>
 1be:	6823      	ldr	r3, [r4, #0]
 1c0:	b15b      	cbz	r3, 1da <_sp_div+0x1da>
 1c2:	3b01      	subs	r3, #1
 1c4:	f104 0108 	add.w	r1, r4, #8
 1c8:	2b00      	cmp	r3, #0
 1ca:	db04      	blt.n	1d6 <_sp_div+0x1d6>
 1cc:	f851 2023 	ldr.w	r2, [r1, r3, lsl #2]
 1d0:	2a00      	cmp	r2, #0
 1d2:	f000 8086 	beq.w	2e2 <_sp_div+0x2e2>
 1d6:	3301      	adds	r3, #1
 1d8:	6023      	str	r3, [r4, #0]
 1da:	6afb      	ldr	r3, [r7, #44]	@ 0x2c
 1dc:	2b00      	cmp	r3, #0
 1de:	f43f af32 	beq.w	46 <_sp_div+0x46>
 1e2:	4619      	mov	r1, r3
 1e4:	6ab8      	ldr	r0, [r7, #40]	@ 0x28
 1e6:	f7ff fffe 	bl	0 <_sp_div>
 1ea:	6afb      	ldr	r3, [r7, #44]	@ 0x2c
 1ec:	681b      	ldr	r3, [r3, #0]
 1ee:	2b00      	cmp	r3, #0
 1f0:	f43f af29 	beq.w	46 <_sp_div+0x46>
 1f4:	6afa      	ldr	r2, [r7, #44]	@ 0x2c
 1f6:	3b01      	subs	r3, #1
 1f8:	f102 0108 	add.w	r1, r2, #8
 1fc:	2b00      	cmp	r3, #0
 1fe:	db03      	blt.n	208 <_sp_div+0x208>
 200:	f851 2023 	ldr.w	r2, [r1, r3, lsl #2]
 204:	2a00      	cmp	r2, #0
 206:	d06e      	beq.n	2e6 <_sp_div+0x2e6>
 208:	6afa      	ldr	r2, [r7, #44]	@ 0x2c
 20a:	3301      	adds	r3, #1
 20c:	e71a      	b.n	44 <_sp_div+0x44>
 20e:	f841 0f04 	str.w	r0, [r1, #4]!
 212:	3201      	adds	r2, #1
 214:	e78b      	b.n	12e <_sp_div+0x12e>
 216:	69fb      	ldr	r3, [r7, #28]
 218:	f853 1904 	ldr.w	r1, [r3], #-4
 21c:	61fb      	str	r3, [r7, #28]
 21e:	697b      	ldr	r3, [r7, #20]
 220:	428b      	cmp	r3, r1
 222:	f10a 3aff 	add.w	sl, sl, #4294967295	@ 0xffffffff
 226:	d022      	beq.n	26e <_sp_div+0x26e>
 228:	69f8      	ldr	r0, [r7, #28]
 22a:	461a      	mov	r2, r3
 22c:	6800      	ldr	r0, [r0, #0]
 22e:	2300      	movs	r3, #0
 230:	f7ff fffe 	bl	0 <__aeabi_uldivmod>
 234:	4684      	mov	ip, r0
 236:	687b      	ldr	r3, [r7, #4]
 238:	eb03 0e0a 	add.w	lr, r3, sl
 23c:	6a3b      	ldr	r3, [r7, #32]
 23e:	3304      	adds	r3, #4
 240:	61bb      	str	r3, [r7, #24]
 242:	2201      	movs	r2, #1
 244:	2300      	movs	r3, #0
 246:	6939      	ldr	r1, [r7, #16]
 248:	3201      	adds	r2, #1
 24a:	428a      	cmp	r2, r1
 24c:	d112      	bne.n	274 <_sp_div+0x274>
 24e:	f848 3021 	str.w	r3, [r8, r1, lsl #2]
 252:	4649      	mov	r1, r9
 254:	b9b9      	cbnz	r1, 286 <_sp_div+0x286>
 256:	1c8b      	adds	r3, r1, #2
 258:	4471      	add	r1, lr
 25a:	3102      	adds	r1, #2
 25c:	f858 2023 	ldr.w	r2, [r8, r3, lsl #2]
 260:	f855 3021 	ldr.w	r3, [r5, r1, lsl #2]
 264:	429a      	cmp	r2, r3
 266:	d918      	bls.n	29a <_sp_div+0x29a>
 268:	f10c 3cff 	add.w	ip, ip, #4294967295	@ 0xffffffff
 26c:	e7e9      	b.n	242 <_sp_div+0x242>
 26e:	f04f 3cff 	mov.w	ip, #4294967295	@ 0xffffffff
 272:	e7e0      	b.n	236 <_sp_div+0x236>
 274:	f85b 1022 	ldr.w	r1, [fp, r2, lsl #2]
 278:	2000      	movs	r0, #0
 27a:	fbe1 300c 	umlal	r3, r0, r1, ip
 27e:	f848 3022 	str.w	r3, [r8, r2, lsl #2]
 282:	4603      	mov	r3, r0
 284:	e7df      	b.n	246 <_sp_div+0x246>
 286:	683b      	ldr	r3, [r7, #0]
 288:	f853 2021 	ldr.w	r2, [r3, r1, lsl #2]
 28c:	69bb      	ldr	r3, [r7, #24]
 28e:	f853 3021 	ldr.w	r3, [r3, r1, lsl #2]
 292:	429a      	cmp	r2, r3
 294:	d1df      	bne.n	256 <_sp_div+0x256>
 296:	3901      	subs	r1, #1
 298:	e7dc      	b.n	254 <_sp_div+0x254>
 29a:	f108 0304 	add.w	r3, r8, #4
 29e:	61bb      	str	r3, [r7, #24]
 2a0:	6a38      	ldr	r0, [r7, #32]
 2a2:	2300      	movs	r3, #0
 2a4:	469e      	mov	lr, r3
 2a6:	4619      	mov	r1, r3
 2a8:	f850 2f04 	ldr.w	r2, [r0, #4]!
 2ac:	18d2      	adds	r2, r2, r3
 2ae:	f14e 0300 	adc.w	r3, lr, #0
 2b2:	60bb      	str	r3, [r7, #8]
 2b4:	69bb      	ldr	r3, [r7, #24]
 2b6:	f853 ef04 	ldr.w	lr, [r3, #4]!
 2ba:	61bb      	str	r3, [r7, #24]
 2bc:	68bb      	ldr	r3, [r7, #8]
 2be:	ebb2 020e 	subs.w	r2, r2, lr
 2c2:	f101 0101 	add.w	r1, r1, #1
 2c6:	f163 0300 	sbc.w	r3, r3, #0
 2ca:	4589      	cmp	r9, r1
 2cc:	6002      	str	r2, [r0, #0]
 2ce:	ea4f 7ee3 	mov.w	lr, r3, asr #31
 2d2:	d2e9      	bcs.n	2a8 <_sp_div+0x2a8>
 2d4:	68fb      	ldr	r3, [r7, #12]
 2d6:	f843 c02a 	str.w	ip, [r3, sl, lsl #2]
 2da:	6a3b      	ldr	r3, [r7, #32]
 2dc:	3b04      	subs	r3, #4
 2de:	623b      	str	r3, [r7, #32]
 2e0:	e751      	b.n	186 <_sp_div+0x186>
 2e2:	3b01      	subs	r3, #1
 2e4:	e770      	b.n	1c8 <_sp_div+0x1c8>
 2e6:	3b01      	subs	r3, #1
 2e8:	e788      	b.n	1fc <_sp_div+0x1fc>
 2ea:	f06f 0002 	mvn.w	r0, #2
 2ee:	e70b      	b.n	108 <_sp_div+0x108>

Disassembly of section .text._sp_mont_red.constprop.0:

00000000 <_sp_mont_red.constprop.0>:
   0:	e92d 4ff0 	stmdb	sp!, {r4, r5, r6, r7, r8, r9, sl, fp, lr}
   4:	4688      	mov	r8, r1
   6:	b08b      	sub	sp, #44	@ 0x2c
   8:	4604      	mov	r4, r0
   a:	4608      	mov	r0, r1
   c:	9207      	str	r2, [sp, #28]
   e:	f7ff fffe 	bl	0 <_sp_mont_red.constprop.0>
  12:	f8d8 5000 	ldr.w	r5, [r8]
  16:	9001      	str	r0, [sp, #4]
  18:	4622      	mov	r2, r4
  1a:	0069      	lsls	r1, r5, #1
  1c:	f852 3b08 	ldr.w	r3, [r2], #8
  20:	9103      	str	r1, [sp, #12]
  22:	2100      	movs	r1, #0
  24:	9803      	ldr	r0, [sp, #12]
  26:	4283      	cmp	r3, r0
  28:	d334      	bcc.n	94 <_sp_mont_red.constprop.0+0x94>
  2a:	2d01      	cmp	r5, #1
  2c:	68a2      	ldr	r2, [r4, #8]
  2e:	f8d8 0008 	ldr.w	r0, [r8, #8]
  32:	d833      	bhi.n	9c <_sp_mont_red.constprop.0+0x9c>
  34:	9d07      	ldr	r5, [sp, #28]
  36:	2300      	movs	r3, #0
  38:	4619      	mov	r1, r3
  3a:	4355      	muls	r5, r2
  3c:	fbe5 2100 	umlal	r2, r1, r5, r0
  40:	60a2      	str	r2, [r4, #8]
  42:	68e2      	ldr	r2, [r4, #12]
  44:	1852      	adds	r2, r2, r1
  46:	415b      	adcs	r3, r3
  48:	e9c4 2303 	strd	r2, r3, [r4, #12]
  4c:	2220      	movs	r2, #32
  4e:	2303      	movs	r3, #3
  50:	9201      	str	r2, [sp, #4]
  52:	4622      	mov	r2, r4
  54:	f842 3b08 	str.w	r3, [r2], #8
  58:	3b01      	subs	r3, #1
  5a:	2b00      	cmp	r3, #0
  5c:	db03      	blt.n	66 <_sp_mont_red.constprop.0+0x66>
  5e:	f852 1023 	ldr.w	r1, [r2, r3, lsl #2]
  62:	2900      	cmp	r1, #0
  64:	d0f8      	beq.n	58 <_sp_mont_red.constprop.0+0x58>
  66:	3301      	adds	r3, #1
  68:	9901      	ldr	r1, [sp, #4]
  6a:	6023      	str	r3, [r4, #0]
  6c:	4622      	mov	r2, r4
  6e:	4620      	mov	r0, r4
  70:	f7ff fffe 	bl	0 <_sp_mont_red.constprop.0>
  74:	4641      	mov	r1, r8
  76:	4620      	mov	r0, r4
  78:	f7ff fffe 	bl	0 <_sp_mont_red.constprop.0>
  7c:	3001      	adds	r0, #1
  7e:	d005      	beq.n	8c <_sp_mont_red.constprop.0+0x8c>
  80:	2300      	movs	r3, #0
  82:	4622      	mov	r2, r4
  84:	4641      	mov	r1, r8
  86:	4620      	mov	r0, r4
  88:	f7ff fffe 	bl	0 <_sp_mont_red.constprop.0>
  8c:	2000      	movs	r0, #0
  8e:	b00b      	add	sp, #44	@ 0x2c
  90:	e8bd 8ff0 	ldmia.w	sp!, {r4, r5, r6, r7, r8, r9, sl, fp, pc}
  94:	f842 1023 	str.w	r1, [r2, r3, lsl #2]
  98:	3301      	adds	r3, #1
  9a:	e7c3      	b.n	24 <_sp_mont_red.constprop.0+0x24>
  9c:	9b01      	ldr	r3, [sp, #4]
  9e:	f003 021f 	and.w	r2, r3, #31
  a2:	2301      	movs	r3, #1
  a4:	4093      	lsls	r3, r2
  a6:	3b01      	subs	r3, #1
  a8:	9304      	str	r3, [sp, #16]
  aa:	eb04 0385 	add.w	r3, r4, r5, lsl #2
  ae:	9306      	str	r3, [sp, #24]
  b0:	1e69      	subs	r1, r5, #1
  b2:	2300      	movs	r3, #0
  b4:	f104 0e04 	add.w	lr, r4, #4
  b8:	461a      	mov	r2, r3
  ba:	469c      	mov	ip, r3
  bc:	9105      	str	r1, [sp, #20]
  be:	9907      	ldr	r1, [sp, #28]
  c0:	f85e 0f04 	ldr.w	r0, [lr, #4]!
  c4:	fb00 fa01 	mul.w	sl, r0, r1
  c8:	9905      	ldr	r1, [sp, #20]
  ca:	4561      	cmp	r1, ip
  cc:	d103      	bne.n	d6 <_sp_mont_red.constprop.0+0xd6>
  ce:	9904      	ldr	r1, [sp, #16]
  d0:	b109      	cbz	r1, d6 <_sp_mont_red.constprop.0+0xd6>
  d2:	ea0a 0a01 	and.w	sl, sl, r1
  d6:	46c1      	mov	r9, r8
  d8:	2100      	movs	r1, #0
  da:	f859 6f08 	ldr.w	r6, [r9, #8]!
  de:	fbea 0106 	umlal	r0, r1, sl, r6
  e2:	f8ce 0000 	str.w	r0, [lr]
  e6:	46f3      	mov	fp, lr
  e8:	2001      	movs	r0, #1
  ea:	f859 6f04 	ldr.w	r6, [r9, #4]!
  ee:	9002      	str	r0, [sp, #8]
  f0:	f85b 0f04 	ldr.w	r0, [fp, #4]!
  f4:	9008      	str	r0, [sp, #32]
  f6:	fbaa 7006 	umull	r7, r0, sl, r6
  fa:	9009      	str	r0, [sp, #36]	@ 0x24
  fc:	9e02      	ldr	r6, [sp, #8]
  fe:	9805      	ldr	r0, [sp, #20]
 100:	42b0      	cmp	r0, r6
 102:	9808      	ldr	r0, [sp, #32]
 104:	d820      	bhi.n	148 <_sp_mont_red.constprop.0+0x148>
 106:	181b      	adds	r3, r3, r0
 108:	f142 0200 	adc.w	r2, r2, #0
 10c:	185b      	adds	r3, r3, r1
 10e:	9909      	ldr	r1, [sp, #36]	@ 0x24
 110:	f142 0200 	adc.w	r2, r2, #0
 114:	19db      	adds	r3, r3, r7
 116:	f141 0600 	adc.w	r6, r1, #0
 11a:	9906      	ldr	r1, [sp, #24]
 11c:	f10c 0c01 	add.w	ip, ip, #1
 120:	f841 3f04 	str.w	r3, [r1, #4]!
 124:	1993      	adds	r3, r2, r6
 126:	f04f 0200 	mov.w	r2, #0
 12a:	4152      	adcs	r2, r2
 12c:	4565      	cmp	r5, ip
 12e:	9106      	str	r1, [sp, #24]
 130:	d1c5      	bne.n	be <_sp_mont_red.constprop.0+0xbe>
 132:	eb04 05c5 	add.w	r5, r4, r5, lsl #3
 136:	6869      	ldr	r1, [r5, #4]
 138:	18c9      	adds	r1, r1, r3
 13a:	9b03      	ldr	r3, [sp, #12]
 13c:	f142 0200 	adc.w	r2, r2, #0
 140:	e9c5 1201 	strd	r1, r2, [r5, #4]
 144:	3301      	adds	r3, #1
 146:	e784      	b.n	52 <_sp_mont_red.constprop.0+0x52>
 148:	19c7      	adds	r7, r0, r7
 14a:	9809      	ldr	r0, [sp, #36]	@ 0x24
 14c:	f140 0600 	adc.w	r6, r0, #0
 150:	9802      	ldr	r0, [sp, #8]
 152:	187f      	adds	r7, r7, r1
 154:	f8cb 7000 	str.w	r7, [fp]
 158:	f146 0100 	adc.w	r1, r6, #0
 15c:	3001      	adds	r0, #1
 15e:	e7c4      	b.n	ea <_sp_mont_red.constprop.0+0xea>

Disassembly of section .text.sp_div:

00000000 <sp_div>:
   0:	e92d 47e7 	stmdb	sp!, {r0, r1, r2, r5, r6, r7, r8, r9, sl, lr}
   4:	460f      	mov	r7, r1
   6:	4690      	mov	r8, r2
   8:	4699      	mov	r9, r3
   a:	4606      	mov	r6, r0
   c:	b378      	cbz	r0, 6e <sp_div+0x6e>
   e:	b371      	cbz	r1, 6e <sp_div+0x6e>
  10:	b902      	cbnz	r2, 14 <sp_div+0x14>
  12:	b363      	cbz	r3, 6e <sp_div+0x6e>
  14:	683b      	ldr	r3, [r7, #0]
  16:	b353      	cbz	r3, 6e <sp_div+0x6e>
  18:	6835      	ldr	r5, [r6, #0]
  1a:	f1b8 0f00 	cmp.w	r8, #0
  1e:	d005      	beq.n	2c <sp_div+0x2c>
  20:	f8d8 1004 	ldr.w	r1, [r8, #4]
  24:	1aea      	subs	r2, r5, r3
  26:	3202      	adds	r2, #2
  28:	4291      	cmp	r1, r2
  2a:	d320      	bcc.n	6e <sp_div+0x6e>
  2c:	f1b9 0f00 	cmp.w	r9, #0
  30:	d007      	beq.n	42 <sp_div+0x42>
  32:	42ab      	cmp	r3, r5
  34:	f8d9 2004 	ldr.w	r2, [r9, #4]
  38:	bf2c      	ite	cs
  3a:	1c6b      	addcs	r3, r5, #1
  3c:	3301      	addcc	r3, #1
  3e:	4293      	cmp	r3, r2
  40:	d815      	bhi.n	6e <sp_div+0x6e>
  42:	2dc1      	cmp	r5, #193	@ 0xc1
  44:	d116      	bne.n	74 <sp_div+0x74>
  46:	4638      	mov	r0, r7
  48:	f7ff fffe 	bl	0 <sp_div>
  4c:	4243      	negs	r3, r0
  4e:	f003 031f 	and.w	r3, r3, #31
  52:	f000 001f 	and.w	r0, r0, #31
  56:	bf58      	it	pl
  58:	4258      	negpl	r0, r3
  5a:	f1c0 0a20 	rsb	sl, r0, #32
  5e:	b150      	cbz	r0, 76 <sp_div+0x76>
  60:	4630      	mov	r0, r6
  62:	f7ff fffe 	bl	0 <sp_div>
  66:	4450      	add	r0, sl
  68:	f5b0 5fc1 	cmp.w	r0, #6176	@ 0x1820
  6c:	dd03      	ble.n	76 <sp_div+0x76>
  6e:	f06f 0002 	mvn.w	r0, #2
  72:	e007      	b.n	84 <sp_div+0x84>
  74:	3501      	adds	r5, #1
  76:	9500      	str	r5, [sp, #0]
  78:	464b      	mov	r3, r9
  7a:	4642      	mov	r2, r8
  7c:	4639      	mov	r1, r7
  7e:	4630      	mov	r0, r6
  80:	f7ff fffe 	bl	0 <sp_div>
  84:	b003      	add	sp, #12
  86:	e8bd 87e0 	ldmia.w	sp!, {r5, r6, r7, r8, r9, sl, pc}

Disassembly of section .text.sp_mod:

00000000 <sp_mod>:
   0:	b410      	push	{r4}
   2:	4613      	mov	r3, r2
   4:	b148      	cbz	r0, 1a <sp_mod+0x1a>
   6:	b141      	cbz	r1, 1a <sp_mod+0x1a>
   8:	b13b      	cbz	r3, 1a <sp_mod+0x1a>
   a:	6802      	ldr	r2, [r0, #0]
   c:	2ac0      	cmp	r2, #192	@ 0xc0
   e:	d804      	bhi.n	1a <sp_mod+0x1a>
  10:	f85d 4b04 	ldr.w	r4, [sp], #4
  14:	2200      	movs	r2, #0
  16:	f7ff bffe 	b.w	0 <sp_mod>
  1a:	f06f 0002 	mvn.w	r0, #2
  1e:	f85d 4b04 	ldr.w	r4, [sp], #4
  22:	4770      	bx	lr

Disassembly of section .text.sp_mul:

00000000 <sp_mul>:
   0:	e92d 4ff0 	stmdb	sp!, {r4, r5, r6, r7, r8, r9, sl, fp, lr}
   4:	b089      	sub	sp, #36	@ 0x24
   6:	460d      	mov	r5, r1
   8:	af00      	add	r7, sp, #0
   a:	4614      	mov	r4, r2
   c:	2800      	cmp	r0, #0
   e:	f000 8085 	beq.w	11c <sp_mul+0x11c>
  12:	2900      	cmp	r1, #0
  14:	f000 8082 	beq.w	11c <sp_mul+0x11c>
  18:	2a00      	cmp	r2, #0
  1a:	d07f      	beq.n	11c <sp_mul+0x11c>
  1c:	6803      	ldr	r3, [r0, #0]
  1e:	61bb      	str	r3, [r7, #24]
  20:	680b      	ldr	r3, [r1, #0]
  22:	617b      	str	r3, [r7, #20]
  24:	e9d7 2305 	ldrd	r2, r3, [r7, #20]
  28:	189e      	adds	r6, r3, r2
  2a:	6863      	ldr	r3, [r4, #4]
  2c:	429e      	cmp	r6, r3
  2e:	d875      	bhi.n	11c <sp_mul+0x11c>
  30:	69bb      	ldr	r3, [r7, #24]
  32:	b103      	cbz	r3, 36 <sp_mul+0x36>
  34:	b93a      	cbnz	r2, 46 <sp_mul+0x46>
  36:	2300      	movs	r3, #0
  38:	6023      	str	r3, [r4, #0]
  3a:	60a3      	str	r3, [r4, #8]
  3c:	2000      	movs	r0, #0
  3e:	3724      	adds	r7, #36	@ 0x24
  40:	46bd      	mov	sp, r7
  42:	e8bd 8ff0 	ldmia.w	sp!, {r4, r5, r6, r7, r8, r9, sl, fp, pc}
  46:	00b3      	lsls	r3, r6, #2
  48:	3307      	adds	r3, #7
  4a:	f023 0307 	bic.w	r3, r3, #7
  4e:	f8c7 d008 	str.w	sp, [r7, #8]
  52:	ebad 0d03 	sub.w	sp, sp, r3
  56:	4603      	mov	r3, r0
  58:	4669      	mov	r1, sp
  5a:	f853 2f08 	ldr.w	r2, [r3, #8]!
  5e:	613b      	str	r3, [r7, #16]
  60:	f855 3f08 	ldr.w	r3, [r5, #8]!
  64:	f8c7 d01c 	str.w	sp, [r7, #28]
  68:	fba2 2303 	umull	r2, r3, r2, r3
  6c:	f04f 0c00 	mov.w	ip, #0
  70:	3e02      	subs	r6, #2
  72:	600a      	str	r2, [r1, #0]
  74:	60f9      	str	r1, [r7, #12]
  76:	2202      	movs	r2, #2
  78:	46e0      	mov	r8, ip
  7a:	46e1      	mov	r9, ip
  7c:	607e      	str	r6, [r7, #4]
  7e:	6879      	ldr	r1, [r7, #4]
  80:	1e56      	subs	r6, r2, #1
  82:	428e      	cmp	r6, r1
  84:	d913      	bls.n	ae <sp_mul+0xae>
  86:	4625      	mov	r5, r4
  88:	69f9      	ldr	r1, [r7, #28]
  8a:	f845 2b08 	str.w	r2, [r5], #8
  8e:	f841 3026 	str.w	r3, [r1, r6, lsl #2]
  92:	0092      	lsls	r2, r2, #2
  94:	4628      	mov	r0, r5
  96:	f7ff fffe 	bl	0 <memcpy>
  9a:	6823      	ldr	r3, [r4, #0]
  9c:	b123      	cbz	r3, a8 <sp_mul+0xa8>
  9e:	3b01      	subs	r3, #1
  a0:	2b00      	cmp	r3, #0
  a2:	da36      	bge.n	112 <sp_mul+0x112>
  a4:	3301      	adds	r3, #1
  a6:	6023      	str	r3, [r4, #0]
  a8:	f8d7 d008 	ldr.w	sp, [r7, #8]
  ac:	e7c6      	b.n	3c <sp_mul+0x3c>
  ae:	6978      	ldr	r0, [r7, #20]
  b0:	eba2 0e00 	sub.w	lr, r2, r0
  b4:	ea4f 7ade 	mov.w	sl, lr, lsr #31
  b8:	f10a 3aff 	add.w	sl, sl, #4294967295	@ 0xffffffff
  bc:	ea0e 0e0a 	and.w	lr, lr, sl
  c0:	eba6 060e 	sub.w	r6, r6, lr
  c4:	69b9      	ldr	r1, [r7, #24]
  c6:	4571      	cmp	r1, lr
  c8:	d80c      	bhi.n	e4 <sp_mul+0xe4>
  ca:	68fe      	ldr	r6, [r7, #12]
  cc:	f846 3f04 	str.w	r3, [r6, #4]!
  d0:	2100      	movs	r1, #0
  d2:	eb18 030c 	adds.w	r3, r8, ip
  d6:	60fe      	str	r6, [r7, #12]
  d8:	46c8      	mov	r8, r9
  da:	eb41 0c01 	adc.w	ip, r1, r1
  de:	4689      	mov	r9, r1
  e0:	3201      	adds	r2, #1
  e2:	e7cc      	b.n	7e <sp_mul+0x7e>
  e4:	2e00      	cmp	r6, #0
  e6:	dbf0      	blt.n	ca <sp_mul+0xca>
  e8:	6939      	ldr	r1, [r7, #16]
  ea:	f851 002e 	ldr.w	r0, [r1, lr, lsl #2]
  ee:	f855 1026 	ldr.w	r1, [r5, r6, lsl #2]
  f2:	fba0 ba01 	umull	fp, sl, r0, r1
  f6:	eb1b 0b03 	adds.w	fp, fp, r3
  fa:	f14c 0c00 	adc.w	ip, ip, #0
  fe:	eb1a 0a08 	adds.w	sl, sl, r8
 102:	465b      	mov	r3, fp
 104:	46d0      	mov	r8, sl
 106:	f149 0900 	adc.w	r9, r9, #0
 10a:	f10e 0e01 	add.w	lr, lr, #1
 10e:	3e01      	subs	r6, #1
 110:	e7d8      	b.n	c4 <sp_mul+0xc4>
 112:	f855 2023 	ldr.w	r2, [r5, r3, lsl #2]
 116:	2a00      	cmp	r2, #0
 118:	d0c1      	beq.n	9e <sp_mul+0x9e>
 11a:	e7c3      	b.n	a4 <sp_mul+0xa4>
 11c:	f06f 0002 	mvn.w	r0, #2
 120:	e78d      	b.n	3e <sp_mul+0x3e>

Disassembly of section .text._sp_mulmod:

00000000 <_sp_mulmod>:
   0:	e92d 43f8 	stmdb	sp!, {r3, r4, r5, r6, r7, r8, r9, lr}
   4:	4293      	cmp	r3, r2
   6:	af00      	add	r7, sp, #0
   8:	4680      	mov	r8, r0
   a:	4689      	mov	r9, r1
   c:	4614      	mov	r4, r2
   e:	461d      	mov	r5, r3
  10:	d00b      	beq.n	2a <_sp_mulmod+0x2a>
  12:	461a      	mov	r2, r3
  14:	f7ff fffe 	bl	0 <_sp_mulmod>
  18:	b920      	cbnz	r0, 24 <_sp_mulmod+0x24>
  1a:	462a      	mov	r2, r5
  1c:	4621      	mov	r1, r4
  1e:	4628      	mov	r0, r5
  20:	f7ff fffe 	bl	0 <_sp_mulmod>
  24:	46bd      	mov	sp, r7
  26:	e8bd 83f8 	ldmia.w	sp!, {r3, r4, r5, r6, r7, r8, r9, pc}
  2a:	6801      	ldr	r1, [r0, #0]
  2c:	f8d9 3000 	ldr.w	r3, [r9]
  30:	4419      	add	r1, r3
  32:	2901      	cmp	r1, #1
  34:	460c      	mov	r4, r1
  36:	bf38      	it	cc
  38:	2401      	movcc	r4, #1
  3a:	00a4      	lsls	r4, r4, #2
  3c:	340f      	adds	r4, #15
  3e:	f024 0407 	bic.w	r4, r4, #7
  42:	29c1      	cmp	r1, #193	@ 0xc1
  44:	466e      	mov	r6, sp
  46:	ebad 0d04 	sub.w	sp, sp, r4
  4a:	d810      	bhi.n	6e <_sp_mulmod+0x6e>
  4c:	4668      	mov	r0, sp
  4e:	f7ff fffe 	bl	0 <_sp_mulmod>
  52:	b950      	cbnz	r0, 6a <_sp_mulmod+0x6a>
  54:	466a      	mov	r2, sp
  56:	4649      	mov	r1, r9
  58:	4640      	mov	r0, r8
  5a:	f7ff fffe 	bl	0 <_sp_mulmod>
  5e:	b920      	cbnz	r0, 6a <_sp_mulmod+0x6a>
  60:	462a      	mov	r2, r5
  62:	4629      	mov	r1, r5
  64:	4668      	mov	r0, sp
  66:	f7ff fffe 	bl	0 <_sp_mulmod>
  6a:	46b5      	mov	sp, r6
  6c:	e7da      	b.n	24 <_sp_mulmod+0x24>
  6e:	f06f 0002 	mvn.w	r0, #2
  72:	e7fa      	b.n	6a <_sp_mulmod+0x6a>

Disassembly of section .text.sp_mulmod:

00000000 <sp_mulmod>:
   0:	b430      	push	{r4, r5}
   2:	b168      	cbz	r0, 20 <sp_mulmod+0x20>
   4:	b161      	cbz	r1, 20 <sp_mulmod+0x20>
   6:	b15a      	cbz	r2, 20 <sp_mulmod+0x20>
   8:	b153      	cbz	r3, 20 <sp_mulmod+0x20>
   a:	429a      	cmp	r2, r3
   c:	d005      	beq.n	1a <sp_mulmod+0x1a>
   e:	680d      	ldr	r5, [r1, #0]
  10:	6804      	ldr	r4, [r0, #0]
  12:	442c      	add	r4, r5
  14:	685d      	ldr	r5, [r3, #4]
  16:	42ac      	cmp	r4, r5
  18:	d802      	bhi.n	20 <sp_mulmod+0x20>
  1a:	bc30      	pop	{r4, r5}
  1c:	f7ff bffe 	b.w	0 <sp_mulmod>
  20:	f06f 0002 	mvn.w	r0, #2
  24:	bc30      	pop	{r4, r5}
  26:	4770      	bx	lr

Disassembly of section .text.sp_mul_2d:

00000000 <sp_mul_2d>:
   0:	b570      	push	{r4, r5, r6, lr}
   2:	460d      	mov	r5, r1
   4:	4614      	mov	r4, r2
   6:	4606      	mov	r6, r0
   8:	b1c0      	cbz	r0, 3c <sp_mul_2d+0x3c>
   a:	b1ba      	cbz	r2, 3c <sp_mul_2d+0x3c>
   c:	2900      	cmp	r1, #0
   e:	db15      	blt.n	3c <sp_mul_2d+0x3c>
  10:	f7ff fffe 	bl	0 <sp_mul_2d>
  14:	6863      	ldr	r3, [r4, #4]
  16:	4428      	add	r0, r5
  18:	ebb0 1f43 	cmp.w	r0, r3, lsl #5
  1c:	d80e      	bhi.n	3c <sp_mul_2d+0x3c>
  1e:	42a6      	cmp	r6, r4
  20:	d105      	bne.n	2e <sp_mul_2d+0x2e>
  22:	4629      	mov	r1, r5
  24:	4620      	mov	r0, r4
  26:	e8bd 4070 	ldmia.w	sp!, {r4, r5, r6, lr}
  2a:	f7ff bffe 	b.w	0 <sp_mul_2d>
  2e:	4621      	mov	r1, r4
  30:	4630      	mov	r0, r6
  32:	f7ff fffe 	bl	0 <sp_mul_2d>
  36:	2800      	cmp	r0, #0
  38:	d0f3      	beq.n	22 <sp_mul_2d+0x22>
  3a:	bd70      	pop	{r4, r5, r6, pc}
  3c:	f06f 0002 	mvn.w	r0, #2
  40:	e7fb      	b.n	3a <sp_mul_2d+0x3a>

Disassembly of section .text.sp_sqr:

00000000 <sp_sqr>:
   0:	e92d 4ff0 	stmdb	sp!, {r4, r5, r6, r7, r8, r9, sl, fp, lr}
   4:	b087      	sub	sp, #28
   6:	af00      	add	r7, sp, #0
   8:	4688      	mov	r8, r1
   a:	6138      	str	r0, [r7, #16]
   c:	2800      	cmp	r0, #0
   e:	f000 808d 	beq.w	12c <sp_sqr+0x12c>
  12:	2900      	cmp	r1, #0
  14:	f000 808a 	beq.w	12c <sp_sqr+0x12c>
  18:	6801      	ldr	r1, [r0, #0]
  1a:	f8d8 3004 	ldr.w	r3, [r8, #4]
  1e:	ebb3 0f41 	cmp.w	r3, r1, lsl #1
  22:	f0c0 8083 	bcc.w	12c <sp_sqr+0x12c>
  26:	b941      	cbnz	r1, 3a <sp_sqr+0x3a>
  28:	f8c8 1000 	str.w	r1, [r8]
  2c:	f8c8 1008 	str.w	r1, [r8, #8]
  30:	2000      	movs	r0, #0
  32:	371c      	adds	r7, #28
  34:	46bd      	mov	sp, r7
  36:	e8bd 8ff0 	ldmia.w	sp!, {r4, r5, r6, r7, r8, r9, sl, fp, pc}
  3a:	466b      	mov	r3, sp
  3c:	f8d7 a010 	ldr.w	sl, [r7, #16]
  40:	f8c7 d00c 	str.w	sp, [r7, #12]
  44:	eba3 03c1 	sub.w	r3, r3, r1, lsl #3
  48:	469d      	mov	sp, r3
  4a:	f85a 4f08 	ldr.w	r4, [sl, #8]!
  4e:	f8c7 d014 	str.w	sp, [r7, #20]
  52:	466a      	mov	r2, sp
  54:	fba4 3404 	umull	r3, r4, r4, r4
  58:	6013      	str	r3, [r2, #0]
  5a:	1e4b      	subs	r3, r1, #1
  5c:	2500      	movs	r5, #0
  5e:	005b      	lsls	r3, r3, #1
  60:	60bb      	str	r3, [r7, #8]
  62:	462e      	mov	r6, r5
  64:	46ab      	mov	fp, r5
  66:	2201      	movs	r2, #1
  68:	46a9      	mov	r9, r5
  6a:	68bb      	ldr	r3, [r7, #8]
  6c:	429a      	cmp	r2, r3
  6e:	d917      	bls.n	a0 <sp_sqr+0xa0>
  70:	697b      	ldr	r3, [r7, #20]
  72:	f843 4022 	str.w	r4, [r3, r2, lsl #2]
  76:	4644      	mov	r4, r8
  78:	3201      	adds	r2, #1
  7a:	f844 2b08 	str.w	r2, [r4], #8
  7e:	4619      	mov	r1, r3
  80:	0092      	lsls	r2, r2, #2
  82:	4620      	mov	r0, r4
  84:	f7ff fffe 	bl	0 <memcpy>
  88:	f8d8 3000 	ldr.w	r3, [r8]
  8c:	b12b      	cbz	r3, 9a <sp_sqr+0x9a>
  8e:	3b01      	subs	r3, #1
  90:	2b00      	cmp	r3, #0
  92:	da46      	bge.n	122 <sp_sqr+0x122>
  94:	3301      	adds	r3, #1
  96:	f8c8 3000 	str.w	r3, [r8]
  9a:	f8d7 d00c 	ldr.w	sp, [r7, #12]
  9e:	e7c7      	b.n	30 <sp_sqr+0x30>
  a0:	eba2 0c52 	sub.w	ip, r2, r2, lsr #1
  a4:	ebbc 0f52 	cmp.w	ip, r2, lsr #1
  a8:	ea4f 0e52 	mov.w	lr, r2, lsr #1
  ac:	d10e      	bne.n	cc <sp_sqr+0xcc>
  ae:	6938      	ldr	r0, [r7, #16]
  b0:	f10e 0302 	add.w	r3, lr, #2
  b4:	f850 3023 	ldr.w	r3, [r0, r3, lsl #2]
  b8:	fba3 0303 	umull	r0, r3, r3, r3
  bc:	1900      	adds	r0, r0, r4
  be:	f145 0500 	adc.w	r5, r5, #0
  c2:	199b      	adds	r3, r3, r6
  c4:	4604      	mov	r4, r0
  c6:	461e      	mov	r6, r3
  c8:	f14b 0b00 	adc.w	fp, fp, #0
  cc:	f10e 0e01 	add.w	lr, lr, #1
  d0:	4571      	cmp	r1, lr
  d2:	f10c 3cff 	add.w	ip, ip, #4294967295	@ 0xffffffff
  d6:	d80a      	bhi.n	ee <sp_sqr+0xee>
  d8:	697b      	ldr	r3, [r7, #20]
  da:	f843 4022 	str.w	r4, [r3, r2, lsl #2]
  de:	1974      	adds	r4, r6, r5
  e0:	eb49 0509 	adc.w	r5, r9, r9
  e4:	465e      	mov	r6, fp
  e6:	3201      	adds	r2, #1
  e8:	f04f 0b00 	mov.w	fp, #0
  ec:	e7bd      	b.n	6a <sp_sqr+0x6a>
  ee:	f1bc 0f00 	cmp.w	ip, #0
  f2:	dbf1      	blt.n	d8 <sp_sqr+0xd8>
  f4:	f85a 002e 	ldr.w	r0, [sl, lr, lsl #2]
  f8:	f85a 302c 	ldr.w	r3, [sl, ip, lsl #2]
  fc:	fba0 0303 	umull	r0, r3, r0, r3
 100:	1800      	adds	r0, r0, r0
 102:	607b      	str	r3, [r7, #4]
 104:	eb49 0309 	adc.w	r3, r9, r9
 108:	1900      	adds	r0, r0, r4
 10a:	eb45 0503 	adc.w	r5, r5, r3
 10e:	687b      	ldr	r3, [r7, #4]
 110:	18db      	adds	r3, r3, r3
 112:	4604      	mov	r4, r0
 114:	eb49 0009 	adc.w	r0, r9, r9
 118:	199b      	adds	r3, r3, r6
 11a:	461e      	mov	r6, r3
 11c:	eb4b 0b00 	adc.w	fp, fp, r0
 120:	e7d4      	b.n	cc <sp_sqr+0xcc>
 122:	f854 2023 	ldr.w	r2, [r4, r3, lsl #2]
 126:	2a00      	cmp	r2, #0
 128:	d0b1      	beq.n	8e <sp_sqr+0x8e>
 12a:	e7b3      	b.n	94 <sp_sqr+0x94>
 12c:	f06f 0002 	mvn.w	r0, #2
 130:	e77f      	b.n	32 <sp_sqr+0x32>

Disassembly of section .text.sp_sqrmod:

00000000 <sp_sqrmod>:
   0:	b5f8      	push	{r3, r4, r5, r6, r7, lr}
   2:	460c      	mov	r4, r1
   4:	af00      	add	r7, sp, #0
   6:	4615      	mov	r5, r2
   8:	4606      	mov	r6, r0
   a:	b148      	cbz	r0, 20 <sp_sqrmod+0x20>
   c:	b141      	cbz	r1, 20 <sp_sqrmod+0x20>
   e:	b13a      	cbz	r2, 20 <sp_sqrmod+0x20>
  10:	6803      	ldr	r3, [r0, #0]
  12:	4294      	cmp	r4, r2
  14:	ea4f 0143 	mov.w	r1, r3, lsl #1
  18:	d005      	beq.n	26 <sp_sqrmod+0x26>
  1a:	6853      	ldr	r3, [r2, #4]
  1c:	428b      	cmp	r3, r1
  1e:	d21e      	bcs.n	5e <sp_sqrmod+0x5e>
  20:	f06f 0002 	mvn.w	r0, #2
  24:	e024      	b.n	70 <sp_sqrmod+0x70>
  26:	29c1      	cmp	r1, #193	@ 0xc1
  28:	d8fa      	bhi.n	20 <sp_sqrmod+0x20>
  2a:	00db      	lsls	r3, r3, #3
  2c:	2b04      	cmp	r3, #4
  2e:	bf38      	it	cc
  30:	2304      	movcc	r3, #4
  32:	330f      	adds	r3, #15
  34:	f023 0307 	bic.w	r3, r3, #7
  38:	466d      	mov	r5, sp
  3a:	ebad 0d03 	sub.w	sp, sp, r3
  3e:	4668      	mov	r0, sp
  40:	f7ff fffe 	bl	0 <sp_sqrmod>
  44:	b948      	cbnz	r0, 5a <sp_sqrmod+0x5a>
  46:	4669      	mov	r1, sp
  48:	4630      	mov	r0, r6
  4a:	f7ff fffe 	bl	0 <sp_sqrmod>
  4e:	b920      	cbnz	r0, 5a <sp_sqrmod+0x5a>
  50:	4622      	mov	r2, r4
  52:	4621      	mov	r1, r4
  54:	4668      	mov	r0, sp
  56:	f7ff fffe 	bl	0 <sp_sqrmod>
  5a:	46ad      	mov	sp, r5
  5c:	e008      	b.n	70 <sp_sqrmod+0x70>
  5e:	4611      	mov	r1, r2
  60:	f7ff fffe 	bl	0 <sp_sqrmod>
  64:	b920      	cbnz	r0, 70 <sp_sqrmod+0x70>
  66:	462a      	mov	r2, r5
  68:	4621      	mov	r1, r4
  6a:	4628      	mov	r0, r5
  6c:	f7ff fffe 	bl	0 <sp_sqrmod>
  70:	46bd      	mov	sp, r7
  72:	bdf8      	pop	{r3, r4, r5, r6, r7, pc}

Disassembly of section .text.sp_mont_setup:

00000000 <sp_mont_setup>:
   0:	b508      	push	{r3, lr}
   2:	b148      	cbz	r0, 18 <sp_mont_setup+0x18>
   4:	b141      	cbz	r1, 18 <sp_mont_setup+0x18>
   6:	6803      	ldr	r3, [r0, #0]
   8:	b133      	cbz	r3, 18 <sp_mont_setup+0x18>
   a:	6880      	ldr	r0, [r0, #8]
   c:	07c3      	lsls	r3, r0, #31
   e:	d503      	bpl.n	18 <sp_mont_setup+0x18>
  10:	f7ff fffe 	bl	0 <sp_mont_setup>
  14:	2000      	movs	r0, #0
  16:	bd08      	pop	{r3, pc}
  18:	f06f 0002 	mvn.w	r0, #2
  1c:	e7fb      	b.n	16 <sp_mont_setup+0x16>

Disassembly of section .text.sp_mont_norm:

00000000 <sp_mont_norm>:
   0:	b570      	push	{r4, r5, r6, lr}
   2:	460d      	mov	r5, r1
   4:	4604      	mov	r4, r0
   6:	b398      	cbz	r0, 70 <sp_mont_norm+0x70>
   8:	b391      	cbz	r1, 70 <sp_mont_norm+0x70>
   a:	4608      	mov	r0, r1
   c:	f7ff fffe 	bl	0 <sp_mont_norm>
  10:	6863      	ldr	r3, [r4, #4]
  12:	ebb0 1f43 	cmp.w	r0, r3, lsl #5
  16:	4606      	mov	r6, r0
  18:	d22a      	bcs.n	70 <sp_mont_norm+0x70>
  1a:	2820      	cmp	r0, #32
  1c:	f04f 0300 	mov.w	r3, #0
  20:	4601      	mov	r1, r0
  22:	6023      	str	r3, [r4, #0]
  24:	bf38      	it	cc
  26:	2120      	movcc	r1, #32
  28:	60a3      	str	r3, [r4, #8]
  2a:	4620      	mov	r0, r4
  2c:	f7ff fffe 	bl	0 <sp_mont_norm>
  30:	b9b8      	cbnz	r0, 62 <sp_mont_norm+0x62>
  32:	4622      	mov	r2, r4
  34:	4629      	mov	r1, r5
  36:	4620      	mov	r0, r4
  38:	f7ff fffe 	bl	0 <sp_mont_norm>
  3c:	b988      	cbnz	r0, 62 <sp_mont_norm+0x62>
  3e:	2e20      	cmp	r6, #32
  40:	d806      	bhi.n	50 <sp_mont_norm+0x50>
  42:	68a3      	ldr	r3, [r4, #8]
  44:	68aa      	ldr	r2, [r5, #8]
  46:	fbb3 f1f2 	udiv	r1, r3, r2
  4a:	fb02 3311 	mls	r3, r2, r1, r3
  4e:	60a3      	str	r3, [r4, #8]
  50:	6823      	ldr	r3, [r4, #0]
  52:	b133      	cbz	r3, 62 <sp_mont_norm+0x62>
  54:	3b01      	subs	r3, #1
  56:	f104 0108 	add.w	r1, r4, #8
  5a:	2b00      	cmp	r3, #0
  5c:	da02      	bge.n	64 <sp_mont_norm+0x64>
  5e:	3301      	adds	r3, #1
  60:	6023      	str	r3, [r4, #0]
  62:	bd70      	pop	{r4, r5, r6, pc}
  64:	f851 2023 	ldr.w	r2, [r1, r3, lsl #2]
  68:	2a00      	cmp	r2, #0
  6a:	d1f8      	bne.n	5e <sp_mont_norm+0x5e>
  6c:	3b01      	subs	r3, #1
  6e:	e7f4      	b.n	5a <sp_mont_norm+0x5a>
  70:	f06f 0002 	mvn.w	r0, #2
  74:	e7f5      	b.n	62 <sp_mont_norm+0x62>

Disassembly of section .text.sp_exptmod_ex:

00000000 <sp_exptmod_ex>:
   0:	e92d 4ff0 	stmdb	sp!, {r4, r5, r6, r7, r8, r9, sl, fp, lr}
   4:	b089      	sub	sp, #36	@ 0x24
   6:	af02      	add	r7, sp, #8
   8:	4692      	mov	sl, r2
   a:	60f9      	str	r1, [r7, #12]
   c:	461c      	mov	r4, r3
   e:	4605      	mov	r5, r0
  10:	2800      	cmp	r0, #0
  12:	f000 82c3 	beq.w	59c <sp_exptmod_ex+0x59c>
  16:	2900      	cmp	r1, #0
  18:	f000 82c0 	beq.w	59c <sp_exptmod_ex+0x59c>
  1c:	2c00      	cmp	r4, #0
  1e:	f000 82bd 	beq.w	59c <sp_exptmod_ex+0x59c>
  22:	6c3b      	ldr	r3, [r7, #64]	@ 0x40
  24:	2b00      	cmp	r3, #0
  26:	f000 82b9 	beq.w	59c <sp_exptmod_ex+0x59c>
  2a:	2a00      	cmp	r2, #0
  2c:	f2c0 82b6 	blt.w	59c <sp_exptmod_ex+0x59c>
  30:	6823      	ldr	r3, [r4, #0]
  32:	005a      	lsls	r2, r3, #1
  34:	2ac0      	cmp	r2, #192	@ 0xc0
  36:	f200 82b1 	bhi.w	59c <sp_exptmod_ex+0x59c>
  3a:	2b00      	cmp	r3, #0
  3c:	f000 82ae 	beq.w	59c <sp_exptmod_ex+0x59c>
  40:	2b01      	cmp	r3, #1
  42:	d103      	bne.n	4c <sp_exptmod_ex+0x4c>
  44:	68a3      	ldr	r3, [r4, #8]
  46:	2b01      	cmp	r3, #1
  48:	f000 82a0 	beq.w	58c <sp_exptmod_ex+0x58c>
  4c:	68fb      	ldr	r3, [r7, #12]
  4e:	681b      	ldr	r3, [r3, #0]
  50:	2b00      	cmp	r3, #0
  52:	f000 82a1 	beq.w	598 <sp_exptmod_ex+0x598>
  56:	4621      	mov	r1, r4
  58:	4628      	mov	r0, r5
  5a:	f7ff fffe 	bl	0 <sp_exptmod_ex>
  5e:	3001      	adds	r0, #1
  60:	f000 8243 	beq.w	4ea <sp_exptmod_ex+0x4ea>
  64:	68fb      	ldr	r3, [r7, #12]
  66:	6c3a      	ldr	r2, [r7, #64]	@ 0x40
  68:	4293      	cmp	r3, r2
  6a:	f000 8297 	beq.w	59c <sp_exptmod_ex+0x59c>
  6e:	4294      	cmp	r4, r2
  70:	f000 8294 	beq.w	59c <sp_exptmod_ex+0x59c>
  74:	4621      	mov	r1, r4
  76:	4628      	mov	r0, r5
  78:	f7ff fffe 	bl	0 <sp_exptmod_ex>
  7c:	4602      	mov	r2, r0
  7e:	2800      	cmp	r0, #0
  80:	f000 8232 	beq.w	4e8 <sp_exptmod_ex+0x4e8>
  84:	4610      	mov	r0, r2
  86:	371c      	adds	r7, #28
  88:	46bd      	mov	sp, r7
  8a:	e8bd 8ff0 	ldmia.w	sp!, {r4, r5, r6, r7, r8, r9, sl, fp, pc}
  8e:	f8c5 8008 	str.w	r8, [r5, #8]
  92:	f849 8003 	str.w	r8, [r9, r3]
  96:	68fa      	ldr	r2, [r7, #12]
  98:	f10a 0301 	add.w	r3, sl, #1
  9c:	4628      	mov	r0, r5
  9e:	f852 6023 	ldr.w	r6, [r2, r3, lsl #2]
  a2:	462a      	mov	r2, r5
  a4:	0f31      	lsrs	r1, r6, #28
  a6:	f7ff fffe 	bl	0 <sp_exptmod_ex>
  aa:	2800      	cmp	r0, #0
  ac:	f040 826a 	bne.w	584 <sp_exptmod_ex+0x584>
  b0:	f1b8 0f01 	cmp.w	r8, #1
  b4:	d124      	bne.n	100 <sp_exptmod_ex+0x100>
  b6:	462a      	mov	r2, r5
  b8:	4621      	mov	r1, r4
  ba:	4628      	mov	r0, r5
  bc:	f7ff fffe 	bl	0 <sp_exptmod_ex>
  c0:	f1aa 0a02 	sub.w	sl, sl, #2
  c4:	0136      	lsls	r6, r6, #4
  c6:	f04f 0b1c 	mov.w	fp, #28
  ca:	2800      	cmp	r0, #0
  cc:	f040 825a 	bne.w	584 <sp_exptmod_ex+0x584>
  d0:	f1ba 0f00 	cmp.w	sl, #0
  d4:	da1d      	bge.n	112 <sp_exptmod_ex+0x112>
  d6:	f1bb 0f03 	cmp.w	fp, #3
  da:	dc3f      	bgt.n	15c <sp_exptmod_ex+0x15c>
  dc:	f1b8 0f01 	cmp.w	r8, #1
  e0:	d163      	bne.n	1aa <sp_exptmod_ex+0x1aa>
  e2:	6c39      	ldr	r1, [r7, #64]	@ 0x40
  e4:	4628      	mov	r0, r5
  e6:	f7ff fffe 	bl	0 <sp_exptmod_ex>
  ea:	2200      	movs	r2, #0
  ec:	e24b      	b.n	586 <sp_exptmod_ex+0x586>
  ee:	464a      	mov	r2, r9
  f0:	2110      	movs	r1, #16
  f2:	4620      	mov	r0, r4
  f4:	f7ff fffe 	bl	0 <sp_exptmod_ex>
  f8:	2800      	cmp	r0, #0
  fa:	f040 8243 	bne.w	584 <sp_exptmod_ex+0x584>
  fe:	e7ca      	b.n	96 <sp_exptmod_ex+0x96>
 100:	462a      	mov	r2, r5
 102:	4649      	mov	r1, r9
 104:	4628      	mov	r0, r5
 106:	f7ff fffe 	bl	0 <sp_add>
 10a:	2800      	cmp	r0, #0
 10c:	f040 823a 	bne.w	584 <sp_exptmod_ex+0x584>
 110:	e7d1      	b.n	b6 <sp_exptmod_ex+0xb6>
 112:	f1bb 0f00 	cmp.w	fp, #0
 116:	d121      	bne.n	15c <sp_exptmod_ex+0x15c>
 118:	f10a 0302 	add.w	r3, sl, #2
 11c:	68fa      	ldr	r2, [r7, #12]
 11e:	f852 6023 	ldr.w	r6, [r2, r3, lsl #2]
 122:	0f33      	lsrs	r3, r6, #28
 124:	60bb      	str	r3, [r7, #8]
 126:	0136      	lsls	r6, r6, #4
 128:	f10a 3aff 	add.w	sl, sl, #4294967295	@ 0xffffffff
 12c:	f04f 0b1c 	mov.w	fp, #28
 130:	2304      	movs	r3, #4
 132:	607b      	str	r3, [r7, #4]
 134:	4629      	mov	r1, r5
 136:	4628      	mov	r0, r5
 138:	f7ff fffe 	bl	0 <sp_exptmod_ex>
 13c:	b938      	cbnz	r0, 14e <sp_exptmod_ex+0x14e>
 13e:	f1b8 0f01 	cmp.w	r8, #1
 142:	d011      	beq.n	168 <sp_exptmod_ex+0x168>
 144:	697a      	ldr	r2, [r7, #20]
 146:	4621      	mov	r1, r4
 148:	4628      	mov	r0, r5
 14a:	f7ff fffe 	bl	0 <sp_exptmod_ex>
 14e:	687b      	ldr	r3, [r7, #4]
 150:	3b01      	subs	r3, #1
 152:	607b      	str	r3, [r7, #4]
 154:	d00e      	beq.n	174 <sp_exptmod_ex+0x174>
 156:	2800      	cmp	r0, #0
 158:	d0ec      	beq.n	134 <sp_exptmod_ex+0x134>
 15a:	e213      	b.n	584 <sp_exptmod_ex+0x584>
 15c:	0f33      	lsrs	r3, r6, #28
 15e:	60bb      	str	r3, [r7, #8]
 160:	0136      	lsls	r6, r6, #4
 162:	f1ab 0b04 	sub.w	fp, fp, #4
 166:	e7e3      	b.n	130 <sp_exptmod_ex+0x130>
 168:	462a      	mov	r2, r5
 16a:	4621      	mov	r1, r4
 16c:	4628      	mov	r0, r5
 16e:	f7ff fffe 	bl	0 <sp_exptmod_ex>
 172:	e7ec      	b.n	14e <sp_exptmod_ex+0x14e>
 174:	2800      	cmp	r0, #0
 176:	f040 8205 	bne.w	584 <sp_exptmod_ex+0x584>
 17a:	68b9      	ldr	r1, [r7, #8]
 17c:	462a      	mov	r2, r5
 17e:	4628      	mov	r0, r5
 180:	f7ff fffe 	bl	0 <sp_exptmod_ex>
 184:	2800      	cmp	r0, #0
 186:	d1a0      	bne.n	ca <sp_exptmod_ex+0xca>
 188:	f1b8 0f01 	cmp.w	r8, #1
 18c:	d105      	bne.n	19a <sp_exptmod_ex+0x19a>
 18e:	462a      	mov	r2, r5
 190:	4621      	mov	r1, r4
 192:	4628      	mov	r0, r5
 194:	f7ff fffe 	bl	0 <sp_exptmod_ex>
 198:	e797      	b.n	ca <sp_exptmod_ex+0xca>
 19a:	462a      	mov	r2, r5
 19c:	4649      	mov	r1, r9
 19e:	4628      	mov	r0, r5
 1a0:	f7ff fffe 	bl	0 <sp_add>
 1a4:	2800      	cmp	r0, #0
 1a6:	d0f2      	beq.n	18e <sp_exptmod_ex+0x18e>
 1a8:	e78f      	b.n	ca <sp_exptmod_ex+0xca>
 1aa:	697a      	ldr	r2, [r7, #20]
 1ac:	4621      	mov	r1, r4
 1ae:	4628      	mov	r0, r5
 1b0:	f7ff fffe 	bl	0 <sp_exptmod_ex>
 1b4:	4602      	mov	r2, r0
 1b6:	2800      	cmp	r0, #0
 1b8:	f040 81e5 	bne.w	586 <sp_exptmod_ex+0x586>
 1bc:	e791      	b.n	e2 <sp_exptmod_ex+0xe2>
 1be:	ea4f 1a4a 	mov.w	sl, sl, lsl #5
 1c2:	f8c7 d008 	str.w	sp, [r7, #8]
 1c6:	2324      	movs	r3, #36	@ 0x24
 1c8:	e0ef      	b.n	3aa <sp_exptmod_ex+0x3aa>
 1ca:	f1b8 0f01 	cmp.w	r8, #1
 1ce:	ea4f 1a4a 	mov.w	sl, sl, lsl #5
 1d2:	f240 80e1 	bls.w	398 <sp_exptmod_ex+0x398>
 1d6:	68a3      	ldr	r3, [r4, #8]
 1d8:	07db      	lsls	r3, r3, #31
 1da:	f140 80dd 	bpl.w	398 <sp_exptmod_ex+0x398>
 1de:	2a01      	cmp	r2, #1
 1e0:	bf1a      	itte	ne
 1e2:	ea4f 1348 	movne.w	r3, r8, lsl #5
 1e6:	3330      	addne	r3, #48	@ 0x30
 1e8:	2330      	moveq	r3, #48	@ 0x30
 1ea:	f8c7 d004 	str.w	sp, [r7, #4]
 1ee:	2ac1      	cmp	r2, #193	@ 0xc1
 1f0:	ebad 0d03 	sub.w	sp, sp, r3
 1f4:	ae02      	add	r6, sp, #8
 1f6:	f200 80cc 	bhi.w	392 <sp_exptmod_ex+0x392>
 1fa:	2a01      	cmp	r2, #1
 1fc:	ea4f 08c8 	mov.w	r8, r8, lsl #3
 200:	f108 030c 	add.w	r3, r8, #12
 204:	bf98      	it	ls
 206:	230c      	movls	r3, #12
 208:	eb06 0843 	add.w	r8, r6, r3, lsl #1
 20c:	eb06 0b03 	add.w	fp, r6, r3
 210:	2100      	movs	r1, #0
 212:	eb08 0903 	add.w	r9, r8, r3
 216:	9102      	str	r1, [sp, #8]
 218:	4628      	mov	r0, r5
 21a:	e9c6 2101 	strd	r2, r1, [r6, #4]
 21e:	50f1      	str	r1, [r6, r3]
 220:	e9cb 2101 	strd	r2, r1, [fp, #4]
 224:	f84b 1003 	str.w	r1, [fp, r3]
 228:	e9c8 2101 	strd	r2, r1, [r8, #4]
 22c:	f848 1003 	str.w	r1, [r8, r3]
 230:	e9c9 2101 	strd	r2, r1, [r9, #4]
 234:	4621      	mov	r1, r4
 236:	f7ff fffe 	bl	0 <sp_exptmod_ex>
 23a:	3001      	adds	r0, #1
 23c:	d00e      	beq.n	25c <sp_exptmod_ex+0x25c>
 23e:	4632      	mov	r2, r6
 240:	4621      	mov	r1, r4
 242:	4628      	mov	r0, r5
 244:	f7ff fffe 	bl	0 <sp_exptmod_ex>
 248:	4602      	mov	r2, r0
 24a:	b920      	cbnz	r0, 256 <sp_exptmod_ex+0x256>
 24c:	6833      	ldr	r3, [r6, #0]
 24e:	b94b      	cbnz	r3, 264 <sp_exptmod_ex+0x264>
 250:	6c3b      	ldr	r3, [r7, #64]	@ 0x40
 252:	6098      	str	r0, [r3, #8]
 254:	6018      	str	r0, [r3, #0]
 256:	f8d7 d004 	ldr.w	sp, [r7, #4]
 25a:	e713      	b.n	84 <sp_exptmod_ex+0x84>
 25c:	4631      	mov	r1, r6
 25e:	4628      	mov	r0, r5
 260:	f7ff fffe 	bl	0 <sp_exptmod_ex>
 264:	68a0      	ldr	r0, [r4, #8]
 266:	f107 0114 	add.w	r1, r7, #20
 26a:	f7ff fffe 	bl	0 <sp_exptmod_ex>
 26e:	4621      	mov	r1, r4
 270:	4658      	mov	r0, fp
 272:	f7ff fffe 	bl	0 <sp_exptmod_ex>
 276:	4602      	mov	r2, r0
 278:	b9d0      	cbnz	r0, 2b0 <sp_exptmod_ex+0x2b0>
 27a:	4632      	mov	r2, r6
 27c:	4659      	mov	r1, fp
 27e:	4630      	mov	r0, r6
 280:	f7ff fffe 	bl	0 <sp_exptmod_ex>
 284:	4602      	mov	r2, r0
 286:	b998      	cbnz	r0, 2b0 <sp_exptmod_ex+0x2b0>
 288:	6833      	ldr	r3, [r6, #0]
 28a:	3301      	adds	r3, #1
 28c:	9300      	str	r3, [sp, #0]
 28e:	4621      	mov	r1, r4
 290:	4633      	mov	r3, r6
 292:	4630      	mov	r0, r6
 294:	f7ff fffe 	bl	0 <sp_exptmod_ex>
 298:	4602      	mov	r2, r0
 29a:	b948      	cbnz	r0, 2b0 <sp_exptmod_ex+0x2b0>
 29c:	60b8      	str	r0, [r7, #8]
 29e:	4659      	mov	r1, fp
 2a0:	4630      	mov	r0, r6
 2a2:	f7ff fffe 	bl	0 <sp_exptmod_ex>
 2a6:	4641      	mov	r1, r8
 2a8:	4630      	mov	r0, r6
 2aa:	f7ff fffe 	bl	0 <sp_exptmod_ex>
 2ae:	68ba      	ldr	r2, [r7, #8]
 2b0:	f10a 33ff 	add.w	r3, sl, #4294967295	@ 0xffffffff
 2b4:	60bb      	str	r3, [r7, #8]
 2b6:	f04f 0a00 	mov.w	sl, #0
 2ba:	2a00      	cmp	r2, #0
 2bc:	d1cb      	bne.n	256 <sp_exptmod_ex+0x256>
 2be:	68bb      	ldr	r3, [r7, #8]
 2c0:	3301      	adds	r3, #1
 2c2:	d10e      	bne.n	2e2 <sp_exptmod_ex+0x2e2>
 2c4:	697a      	ldr	r2, [r7, #20]
 2c6:	4621      	mov	r1, r4
 2c8:	4658      	mov	r0, fp
 2ca:	f7ff fffe 	bl	0 <sp_exptmod_ex>
 2ce:	4602      	mov	r2, r0
 2d0:	2800      	cmp	r0, #0
 2d2:	d1c0      	bne.n	256 <sp_exptmod_ex+0x256>
 2d4:	60f8      	str	r0, [r7, #12]
 2d6:	6c39      	ldr	r1, [r7, #64]	@ 0x40
 2d8:	4658      	mov	r0, fp
 2da:	f7ff fffe 	bl	0 <sp_exptmod_ex>
 2de:	68fa      	ldr	r2, [r7, #12]
 2e0:	e7b9      	b.n	256 <sp_exptmod_ex+0x256>
 2e2:	4ab0      	ldr	r2, [pc, #704]	@ (5a4 <sp_exptmod_ex+0x5a4>)
 2e4:	f08a 0301 	eor.w	r3, sl, #1
 2e8:	4649      	mov	r1, r9
 2ea:	f852 5023 	ldr.w	r5, [r2, r3, lsl #2]
 2ee:	f852 302a 	ldr.w	r3, [r2, sl, lsl #2]
 2f2:	4035      	ands	r5, r6
 2f4:	ea0b 0303 	and.w	r3, fp, r3
 2f8:	441d      	add	r5, r3
 2fa:	4628      	mov	r0, r5
 2fc:	f7ff fffe 	bl	0 <sp_exptmod_ex>
 300:	4649      	mov	r1, r9
 302:	4648      	mov	r0, r9
 304:	f7ff fffe 	bl	0 <sp_exptmod_ex>
 308:	4602      	mov	r2, r0
 30a:	b928      	cbnz	r0, 318 <sp_exptmod_ex+0x318>
 30c:	697a      	ldr	r2, [r7, #20]
 30e:	4621      	mov	r1, r4
 310:	4648      	mov	r0, r9
 312:	f7ff fffe 	bl	0 <sp_exptmod_ex>
 316:	4602      	mov	r2, r0
 318:	4629      	mov	r1, r5
 31a:	4648      	mov	r0, r9
 31c:	603a      	str	r2, [r7, #0]
 31e:	f7ff fffe 	bl	0 <sp_exptmod_ex>
 322:	683a      	ldr	r2, [r7, #0]
 324:	bb8a      	cbnz	r2, 38a <sp_exptmod_ex+0x38a>
 326:	68bb      	ldr	r3, [r7, #8]
 328:	68f9      	ldr	r1, [r7, #12]
 32a:	68ba      	ldr	r2, [r7, #8]
 32c:	489d      	ldr	r0, [pc, #628]	@ (5a4 <sp_exptmod_ex+0x5a4>)
 32e:	115b      	asrs	r3, r3, #5
 330:	3302      	adds	r3, #2
 332:	f002 021f 	and.w	r2, r2, #31
 336:	f851 3023 	ldr.w	r3, [r1, r3, lsl #2]
 33a:	40d3      	lsrs	r3, r2
 33c:	f003 0301 	and.w	r3, r3, #1
 340:	ea0a 0103 	and.w	r1, sl, r3
 344:	ea4a 0a03 	orr.w	sl, sl, r3
 348:	f081 0301 	eor.w	r3, r1, #1
 34c:	f850 2023 	ldr.w	r2, [r0, r3, lsl #2]
 350:	f850 3021 	ldr.w	r3, [r0, r1, lsl #2]
 354:	4032      	ands	r2, r6
 356:	ea0b 0303 	and.w	r3, fp, r3
 35a:	18d5      	adds	r5, r2, r3
 35c:	4649      	mov	r1, r9
 35e:	4628      	mov	r0, r5
 360:	f7ff fffe 	bl	0 <sp_exptmod_ex>
 364:	464a      	mov	r2, r9
 366:	4641      	mov	r1, r8
 368:	4648      	mov	r0, r9
 36a:	f7ff fffe 	bl	0 <sp_exptmod_ex>
 36e:	4602      	mov	r2, r0
 370:	b928      	cbnz	r0, 37e <sp_exptmod_ex+0x37e>
 372:	697a      	ldr	r2, [r7, #20]
 374:	4621      	mov	r1, r4
 376:	4648      	mov	r0, r9
 378:	f7ff fffe 	bl	0 <sp_exptmod_ex>
 37c:	4602      	mov	r2, r0
 37e:	4629      	mov	r1, r5
 380:	4648      	mov	r0, r9
 382:	603a      	str	r2, [r7, #0]
 384:	f7ff fffe 	bl	0 <sp_exptmod_ex>
 388:	683a      	ldr	r2, [r7, #0]
 38a:	68bb      	ldr	r3, [r7, #8]
 38c:	3b01      	subs	r3, #1
 38e:	60bb      	str	r3, [r7, #8]
 390:	e793      	b.n	2ba <sp_exptmod_ex+0x2ba>
 392:	f06f 0202 	mvn.w	r2, #2
 396:	e75e      	b.n	256 <sp_exptmod_ex+0x256>
 398:	2a01      	cmp	r2, #1
 39a:	f8c7 d008 	str.w	sp, [r7, #8]
 39e:	f43f af12 	beq.w	1c6 <sp_exptmod_ex+0x1c6>
 3a2:	2318      	movs	r3, #24
 3a4:	fb03 f308 	mul.w	r3, r3, r8
 3a8:	3324      	adds	r3, #36	@ 0x24
 3aa:	3307      	adds	r3, #7
 3ac:	f023 0307 	bic.w	r3, r3, #7
 3b0:	ebad 0d03 	sub.w	sp, sp, r3
 3b4:	2ac1      	cmp	r2, #193	@ 0xc1
 3b6:	ae02      	add	r6, sp, #8
 3b8:	f200 8090 	bhi.w	4dc <sp_exptmod_ex+0x4dc>
 3bc:	2a01      	cmp	r2, #1
 3be:	bf1a      	itte	ne
 3c0:	ea4f 08c8 	movne.w	r8, r8, lsl #3
 3c4:	f108 030c 	addne.w	r3, r8, #12
 3c8:	230c      	moveq	r3, #12
 3ca:	eb06 0903 	add.w	r9, r6, r3
 3ce:	2100      	movs	r1, #0
 3d0:	eb06 0843 	add.w	r8, r6, r3, lsl #1
 3d4:	e9c6 2101 	strd	r2, r1, [r6, #4]
 3d8:	6031      	str	r1, [r6, #0]
 3da:	4628      	mov	r0, r5
 3dc:	50f1      	str	r1, [r6, r3]
 3de:	e9c9 2101 	strd	r2, r1, [r9, #4]
 3e2:	f849 1003 	str.w	r1, [r9, r3]
 3e6:	e9c8 2101 	strd	r2, r1, [r8, #4]
 3ea:	4621      	mov	r1, r4
 3ec:	f7ff fffe 	bl	0 <sp_exptmod_ex>
 3f0:	3001      	adds	r0, #1
 3f2:	d00f      	beq.n	414 <sp_exptmod_ex+0x414>
 3f4:	4632      	mov	r2, r6
 3f6:	4621      	mov	r1, r4
 3f8:	4628      	mov	r0, r5
 3fa:	f7ff fffe 	bl	0 <sp_exptmod_ex>
 3fe:	4602      	mov	r2, r0
 400:	b928      	cbnz	r0, 40e <sp_exptmod_ex+0x40e>
 402:	6833      	ldr	r3, [r6, #0]
 404:	b953      	cbnz	r3, 41c <sp_exptmod_ex+0x41c>
 406:	6c3a      	ldr	r2, [r7, #64]	@ 0x40
 408:	6093      	str	r3, [r2, #8]
 40a:	6013      	str	r3, [r2, #0]
 40c:	2200      	movs	r2, #0
 40e:	f8d7 d008 	ldr.w	sp, [r7, #8]
 412:	e637      	b.n	84 <sp_exptmod_ex+0x84>
 414:	4631      	mov	r1, r6
 416:	4628      	mov	r0, r5
 418:	f7ff fffe 	bl	0 <sp_exptmod_ex>
 41c:	4649      	mov	r1, r9
 41e:	4630      	mov	r0, r6
 420:	f7ff fffe 	bl	0 <sp_exptmod_ex>
 424:	f10a 3bff 	add.w	fp, sl, #4294967295	@ 0xffffffff
 428:	f1ba 0f00 	cmp.w	sl, #0
 42c:	d104      	bne.n	438 <sp_exptmod_ex+0x438>
 42e:	6c39      	ldr	r1, [r7, #64]	@ 0x40
 430:	4648      	mov	r0, r9
 432:	f7ff fffe 	bl	0 <sp_exptmod_ex>
 436:	e7e9      	b.n	40c <sp_exptmod_ex+0x40c>
 438:	f04f 0a00 	mov.w	sl, #0
 43c:	4a59      	ldr	r2, [pc, #356]	@ (5a4 <sp_exptmod_ex+0x5a4>)
 43e:	f08a 0301 	eor.w	r3, sl, #1
 442:	4641      	mov	r1, r8
 444:	f852 3023 	ldr.w	r3, [r2, r3, lsl #2]
 448:	f852 202a 	ldr.w	r2, [r2, sl, lsl #2]
 44c:	4033      	ands	r3, r6
 44e:	ea09 0202 	and.w	r2, r9, r2
 452:	4413      	add	r3, r2
 454:	4618      	mov	r0, r3
 456:	603b      	str	r3, [r7, #0]
 458:	f7ff fffe 	bl	0 <sp_exptmod_ex>
 45c:	4642      	mov	r2, r8
 45e:	4621      	mov	r1, r4
 460:	4640      	mov	r0, r8
 462:	f7ff fffe 	bl	0 <sp_exptmod_ex>
 466:	683b      	ldr	r3, [r7, #0]
 468:	6078      	str	r0, [r7, #4]
 46a:	4619      	mov	r1, r3
 46c:	4640      	mov	r0, r8
 46e:	f7ff fffe 	bl	0 <sp_exptmod_ex>
 472:	687a      	ldr	r2, [r7, #4]
 474:	bb52      	cbnz	r2, 4cc <sp_exptmod_ex+0x4cc>
 476:	ea4f 136b 	mov.w	r3, fp, asr #5
 47a:	68f9      	ldr	r1, [r7, #12]
 47c:	4849      	ldr	r0, [pc, #292]	@ (5a4 <sp_exptmod_ex+0x5a4>)
 47e:	3302      	adds	r3, #2
 480:	f00b 021f 	and.w	r2, fp, #31
 484:	f851 3023 	ldr.w	r3, [r1, r3, lsl #2]
 488:	40d3      	lsrs	r3, r2
 48a:	f003 0301 	and.w	r3, r3, #1
 48e:	ea03 010a 	and.w	r1, r3, sl
 492:	ea4a 0a03 	orr.w	sl, sl, r3
 496:	f081 0301 	eor.w	r3, r1, #1
 49a:	f850 2023 	ldr.w	r2, [r0, r3, lsl #2]
 49e:	f850 3021 	ldr.w	r3, [r0, r1, lsl #2]
 4a2:	4032      	ands	r2, r6
 4a4:	ea09 0303 	and.w	r3, r9, r3
 4a8:	18d3      	adds	r3, r2, r3
 4aa:	4618      	mov	r0, r3
 4ac:	4641      	mov	r1, r8
 4ae:	607b      	str	r3, [r7, #4]
 4b0:	f7ff fffe 	bl	0 <sp_exptmod_ex>
 4b4:	4622      	mov	r2, r4
 4b6:	4643      	mov	r3, r8
 4b8:	4629      	mov	r1, r5
 4ba:	4640      	mov	r0, r8
 4bc:	f7ff fffe 	bl	0 <sp_exptmod_ex>
 4c0:	6879      	ldr	r1, [r7, #4]
 4c2:	6038      	str	r0, [r7, #0]
 4c4:	4640      	mov	r0, r8
 4c6:	f7ff fffe 	bl	0 <sp_exptmod_ex>
 4ca:	683a      	ldr	r2, [r7, #0]
 4cc:	f10b 3bff 	add.w	fp, fp, #4294967295	@ 0xffffffff
 4d0:	2a00      	cmp	r2, #0
 4d2:	d19c      	bne.n	40e <sp_exptmod_ex+0x40e>
 4d4:	f1bb 3fff 	cmp.w	fp, #4294967295	@ 0xffffffff
 4d8:	d1b0      	bne.n	43c <sp_exptmod_ex+0x43c>
 4da:	e7a8      	b.n	42e <sp_exptmod_ex+0x42e>
 4dc:	f06f 0202 	mvn.w	r2, #2
 4e0:	e795      	b.n	40e <sp_exptmod_ex+0x40e>
 4e2:	f06f 0002 	mvn.w	r0, #2
 4e6:	e04d      	b.n	584 <sp_exptmod_ex+0x584>
 4e8:	6c3d      	ldr	r5, [r7, #64]	@ 0x40
 4ea:	682b      	ldr	r3, [r5, #0]
 4ec:	2b00      	cmp	r3, #0
 4ee:	d04e      	beq.n	58e <sp_exptmod_ex+0x58e>
 4f0:	6c39      	ldr	r1, [r7, #64]	@ 0x40
 4f2:	f8d4 8000 	ldr.w	r8, [r4]
 4f6:	6849      	ldr	r1, [r1, #4]
 4f8:	ebb1 0f48 	cmp.w	r1, r8, lsl #1
 4fc:	ea4f 0248 	mov.w	r2, r8, lsl #1
 500:	d94c      	bls.n	59c <sp_exptmod_ex+0x59c>
 502:	2b01      	cmp	r3, #1
 504:	f102 0201 	add.w	r2, r2, #1
 508:	f47f ae5f 	bne.w	1ca <sp_exptmod_ex+0x1ca>
 50c:	68ab      	ldr	r3, [r5, #8]
 50e:	2b02      	cmp	r3, #2
 510:	f47f ae5b 	bne.w	1ca <sp_exptmod_ex+0x1ca>
 514:	f1b8 0f00 	cmp.w	r8, #0
 518:	f43f ae51 	beq.w	1be <sp_exptmod_ex+0x1be>
 51c:	68a0      	ldr	r0, [r4, #8]
 51e:	07c1      	lsls	r1, r0, #31
 520:	f57f ae53 	bpl.w	1ca <sp_exptmod_ex+0x1ca>
 524:	2300      	movs	r3, #0
 526:	2a01      	cmp	r2, #1
 528:	617b      	str	r3, [r7, #20]
 52a:	bf1a      	itte	ne
 52c:	ea4f 1308 	movne.w	r3, r8, lsl #4
 530:	3318      	addne	r3, #24
 532:	2318      	moveq	r3, #24
 534:	f8c7 d000 	str.w	sp, [r7]
 538:	2ac1      	cmp	r2, #193	@ 0xc1
 53a:	ebad 0d03 	sub.w	sp, sp, r3
 53e:	f10d 0908 	add.w	r9, sp, #8
 542:	d8ce      	bhi.n	4e2 <sp_exptmod_ex+0x4e2>
 544:	2a01      	cmp	r2, #1
 546:	bf1a      	itte	ne
 548:	ea4f 03c8 	movne.w	r3, r8, lsl #3
 54c:	330c      	addne	r3, #12
 54e:	230c      	moveq	r3, #12
 550:	2100      	movs	r1, #0
 552:	eb09 0503 	add.w	r5, r9, r3
 556:	f1b8 0f01 	cmp.w	r8, #1
 55a:	e9c9 2101 	strd	r2, r1, [r9, #4]
 55e:	f8c9 1000 	str.w	r1, [r9]
 562:	f849 1003 	str.w	r1, [r9, r3]
 566:	e9c5 2101 	strd	r2, r1, [r5, #4]
 56a:	f43f ad90 	beq.w	8e <sp_exptmod_ex+0x8e>
 56e:	f107 0114 	add.w	r1, r7, #20
 572:	f7ff fffe 	bl	0 <sp_exptmod_ex>
 576:	4621      	mov	r1, r4
 578:	4628      	mov	r0, r5
 57a:	f7ff fffe 	bl	0 <sp_exptmod_ex>
 57e:	2800      	cmp	r0, #0
 580:	f43f adb5 	beq.w	ee <sp_exptmod_ex+0xee>
 584:	4602      	mov	r2, r0
 586:	f8d7 d000 	ldr.w	sp, [r7]
 58a:	e57b      	b.n	84 <sp_exptmod_ex+0x84>
 58c:	2300      	movs	r3, #0
 58e:	6c3a      	ldr	r2, [r7, #64]	@ 0x40
 590:	6093      	str	r3, [r2, #8]
 592:	6013      	str	r3, [r2, #0]
 594:	2200      	movs	r2, #0
 596:	e575      	b.n	84 <sp_exptmod_ex+0x84>
 598:	2301      	movs	r3, #1
 59a:	e7f8      	b.n	58e <sp_exptmod_ex+0x58e>
 59c:	f06f 0202 	mvn.w	r2, #2
 5a0:	e570      	b.n	84 <sp_exptmod_ex+0x84>
 5a2:	bf00      	nop
 5a4:	00000000 	.word	0x00000000

Disassembly of section .text.sp_exptmod:

00000000 <sp_exptmod>:
   0:	b513      	push	{r0, r1, r4, lr}
   2:	b148      	cbz	r0, 18 <sp_exptmod+0x18>
   4:	b141      	cbz	r1, 18 <sp_exptmod+0x18>
   6:	b13a      	cbz	r2, 18 <sp_exptmod+0x18>
   8:	b133      	cbz	r3, 18 <sp_exptmod+0x18>
   a:	9300      	str	r3, [sp, #0]
   c:	4613      	mov	r3, r2
   e:	680a      	ldr	r2, [r1, #0]
  10:	f7ff fffe 	bl	0 <sp_exptmod>
  14:	b002      	add	sp, #8
  16:	bd10      	pop	{r4, pc}
  18:	f06f 0002 	mvn.w	r0, #2
  1c:	e7fa      	b.n	14 <sp_exptmod+0x14>

Disassembly of section .text.sp_prime_miller_rabin:

00000000 <sp_prime_miller_rabin>:
   0:	e92d 47f0 	stmdb	sp!, {r4, r5, r6, r7, r8, r9, sl, lr}
   4:	460d      	mov	r5, r1
   6:	f04f 0800 	mov.w	r8, #0
   a:	2101      	movs	r1, #1
   c:	4682      	mov	sl, r0
   e:	f8c2 8000 	str.w	r8, [r2]
  12:	4628      	mov	r0, r5
  14:	461e      	mov	r6, r3
  16:	f7ff fffe 	bl	0 <sp_prime_miller_rabin>
  1a:	4288      	cmp	r0, r1
  1c:	9c08      	ldr	r4, [sp, #32]
  1e:	4617      	mov	r7, r2
  20:	4681      	mov	r9, r0
  22:	d16f      	bne.n	104 <sp_prime_miller_rabin+0x104>
  24:	4631      	mov	r1, r6
  26:	4650      	mov	r0, sl
  28:	f7ff fffe 	bl	0 <sp_prime_miller_rabin>
  2c:	68b3      	ldr	r3, [r6, #8]
  2e:	6832      	ldr	r2, [r6, #0]
  30:	3b01      	subs	r3, #1
  32:	60b3      	str	r3, [r6, #8]
  34:	b9ea      	cbnz	r2, 72 <sp_prime_miller_rabin+0x72>
  36:	4690      	mov	r8, r2
  38:	4622      	mov	r2, r4
  3a:	4641      	mov	r1, r8
  3c:	4630      	mov	r0, r6
  3e:	f7ff fffe 	bl	0 <sp_prime_miller_rabin>
  42:	462b      	mov	r3, r5
  44:	4652      	mov	r2, sl
  46:	4621      	mov	r1, r4
  48:	4628      	mov	r0, r5
  4a:	f7ff fffe 	bl	0 <sp_prime_miller_rabin>
  4e:	2800      	cmp	r0, #0
  50:	d15b      	bne.n	10a <sp_prime_miller_rabin+0x10a>
  52:	2101      	movs	r1, #1
  54:	6039      	str	r1, [r7, #0]
  56:	4628      	mov	r0, r5
  58:	f7ff fffe 	bl	0 <sp_prime_miller_rabin>
  5c:	4604      	mov	r4, r0
  5e:	b128      	cbz	r0, 6c <sp_prime_miller_rabin+0x6c>
  60:	4631      	mov	r1, r6
  62:	4628      	mov	r0, r5
  64:	f7ff fffe 	bl	0 <sp_prime_miller_rabin>
  68:	4604      	mov	r4, r0
  6a:	bba0      	cbnz	r0, d6 <sp_prime_miller_rabin+0xd6>
  6c:	4620      	mov	r0, r4
  6e:	e8bd 87f0 	ldmia.w	sp!, {r4, r5, r6, r7, r8, r9, sl, pc}
  72:	1d31      	adds	r1, r6, #4
  74:	4643      	mov	r3, r8
  76:	f851 0f04 	ldr.w	r0, [r1, #4]!
  7a:	ea4f 1843 	mov.w	r8, r3, lsl #5
  7e:	b920      	cbnz	r0, 8a <sp_prime_miller_rabin+0x8a>
  80:	3301      	adds	r3, #1
  82:	429a      	cmp	r2, r3
  84:	d1f7      	bne.n	76 <sp_prime_miller_rabin+0x76>
  86:	f108 0820 	add.w	r8, r8, #32
  8a:	3302      	adds	r3, #2
  8c:	4820      	ldr	r0, [pc, #128]	@ (110 <sp_prime_miller_rabin+0x110>)
  8e:	f856 1023 	ldr.w	r1, [r6, r3, lsl #2]
  92:	2300      	movs	r3, #0
  94:	fa21 f203 	lsr.w	r2, r1, r3
  98:	f002 020f 	and.w	r2, r2, #15
  9c:	f850 2022 	ldr.w	r2, [r0, r2, lsl #2]
  a0:	2a04      	cmp	r2, #4
  a2:	d003      	beq.n	ac <sp_prime_miller_rabin+0xac>
  a4:	4443      	add	r3, r8
  a6:	eb02 0803 	add.w	r8, r2, r3
  aa:	e7c5      	b.n	38 <sp_prime_miller_rabin+0x38>
  ac:	3304      	adds	r3, #4
  ae:	2b20      	cmp	r3, #32
  b0:	d1f0      	bne.n	94 <sp_prime_miller_rabin+0x94>
  b2:	e7c1      	b.n	38 <sp_prime_miller_rabin+0x38>
  b4:	462a      	mov	r2, r5
  b6:	4651      	mov	r1, sl
  b8:	4628      	mov	r0, r5
  ba:	f7ff fffe 	bl	0 <sp_prime_miller_rabin>
  be:	4604      	mov	r4, r0
  c0:	b990      	cbnz	r0, e8 <sp_prime_miller_rabin+0xe8>
  c2:	2101      	movs	r1, #1
  c4:	4628      	mov	r0, r5
  c6:	f7ff fffe 	bl	0 <sp_prime_miller_rabin>
  ca:	4604      	mov	r4, r0
  cc:	b908      	cbnz	r0, d2 <sp_prime_miller_rabin+0xd2>
  ce:	6038      	str	r0, [r7, #0]
  d0:	e7cc      	b.n	6c <sp_prime_miller_rabin+0x6c>
  d2:	f109 0901 	add.w	r9, r9, #1
  d6:	45c1      	cmp	r9, r8
  d8:	da12      	bge.n	100 <sp_prime_miller_rabin+0x100>
  da:	4631      	mov	r1, r6
  dc:	4628      	mov	r0, r5
  de:	f7ff fffe 	bl	0 <sp_prime_miller_rabin>
  e2:	4604      	mov	r4, r0
  e4:	2800      	cmp	r0, #0
  e6:	d1e5      	bne.n	b4 <sp_prime_miller_rabin+0xb4>
  e8:	683b      	ldr	r3, [r7, #0]
  ea:	2b01      	cmp	r3, #1
  ec:	d1be      	bne.n	6c <sp_prime_miller_rabin+0x6c>
  ee:	4631      	mov	r1, r6
  f0:	4628      	mov	r0, r5
  f2:	f7ff fffe 	bl	0 <sp_prime_miller_rabin>
  f6:	2800      	cmp	r0, #0
  f8:	d0b8      	beq.n	6c <sp_prime_miller_rabin+0x6c>
  fa:	2300      	movs	r3, #0
  fc:	603b      	str	r3, [r7, #0]
  fe:	e7b5      	b.n	6c <sp_prime_miller_rabin+0x6c>
 100:	2400      	movs	r4, #0
 102:	e7f1      	b.n	e8 <sp_prime_miller_rabin+0xe8>
 104:	f06f 0402 	mvn.w	r4, #2
 108:	e7b0      	b.n	6c <sp_prime_miller_rabin+0x6c>
 10a:	4604      	mov	r4, r0
 10c:	e7ae      	b.n	6c <sp_prime_miller_rabin+0x6c>
 10e:	bf00      	nop
 110:	00000000 	.word	0x00000000

Disassembly of section .text.sp_exptmod_nct:

00000000 <sp_exptmod_nct>:
   0:	e92d 4ff0 	stmdb	sp!, {r4, r5, r6, r7, r8, r9, sl, fp, lr}
   4:	b0ad      	sub	sp, #180	@ 0xb4
   6:	af02      	add	r7, sp, #8
   8:	4693      	mov	fp, r2
   a:	6139      	str	r1, [r7, #16]
   c:	60fb      	str	r3, [r7, #12]
   e:	6078      	str	r0, [r7, #4]
  10:	2800      	cmp	r0, #0
  12:	f000 821b 	beq.w	44c <sp_exptmod_nct+0x44c>
  16:	2900      	cmp	r1, #0
  18:	f000 8218 	beq.w	44c <sp_exptmod_nct+0x44c>
  1c:	2a00      	cmp	r2, #0
  1e:	f000 8215 	beq.w	44c <sp_exptmod_nct+0x44c>
  22:	68fb      	ldr	r3, [r7, #12]
  24:	2b00      	cmp	r3, #0
  26:	f000 8211 	beq.w	44c <sp_exptmod_nct+0x44c>
  2a:	f8d2 8000 	ldr.w	r8, [r2]
  2e:	f1b8 0f00 	cmp.w	r8, #0
  32:	f000 820b 	beq.w	44c <sp_exptmod_nct+0x44c>
  36:	f1b8 0f01 	cmp.w	r8, #1
  3a:	d111      	bne.n	60 <sp_exptmod_nct+0x60>
  3c:	6893      	ldr	r3, [r2, #8]
  3e:	2b01      	cmp	r3, #1
  40:	d10e      	bne.n	60 <sp_exptmod_nct+0x60>
  42:	2200      	movs	r2, #0
  44:	4613      	mov	r3, r2
  46:	68f9      	ldr	r1, [r7, #12]
  48:	608a      	str	r2, [r1, #8]
  4a:	600b      	str	r3, [r1, #0]
  4c:	2200      	movs	r2, #0
  4e:	4610      	mov	r0, r2
  50:	37ac      	adds	r7, #172	@ 0xac
  52:	46bd      	mov	sp, r7
  54:	e8bd 8ff0 	ldmia.w	sp!, {r4, r5, r6, r7, r8, r9, sl, fp, pc}
  58:	2201      	movs	r2, #1
  5a:	e7f3      	b.n	44 <sp_exptmod_nct+0x44>
  5c:	461a      	mov	r2, r3
  5e:	e7f2      	b.n	46 <sp_exptmod_nct+0x46>
  60:	693b      	ldr	r3, [r7, #16]
  62:	681b      	ldr	r3, [r3, #0]
  64:	2b00      	cmp	r3, #0
  66:	d0f7      	beq.n	58 <sp_exptmod_nct+0x58>
  68:	687b      	ldr	r3, [r7, #4]
  6a:	681b      	ldr	r3, [r3, #0]
  6c:	2b00      	cmp	r3, #0
  6e:	d0f5      	beq.n	5c <sp_exptmod_nct+0x5c>
  70:	68fa      	ldr	r2, [r7, #12]
  72:	6852      	ldr	r2, [r2, #4]
  74:	ebb2 0f48 	cmp.w	r2, r8, lsl #1
  78:	ea4f 0348 	mov.w	r3, r8, lsl #1
  7c:	f240 81e6 	bls.w	44c <sp_exptmod_nct+0x44c>
  80:	f8c7 d000 	str.w	sp, [r7]
  84:	f103 0a01 	add.w	sl, r3, #1
  88:	2b00      	cmp	r3, #0
  8a:	d074      	beq.n	176 <sp_exptmod_nct+0x176>
  8c:	f44f 7388 	mov.w	r3, #272	@ 0x110
  90:	fb03 f308 	mul.w	r3, r3, r8
  94:	f503 73cc 	add.w	r3, r3, #408	@ 0x198
  98:	ebad 0d03 	sub.w	sp, sp, r3
  9c:	2288      	movs	r2, #136	@ 0x88
  9e:	2100      	movs	r1, #0
  a0:	f107 0020 	add.w	r0, r7, #32
  a4:	f7ff fffe 	bl	0 <memset>
  a8:	6938      	ldr	r0, [r7, #16]
  aa:	f7ff fffe 	bl	0 <sp_exptmod_nct>
  ae:	f5b0 7fe1 	cmp.w	r0, #450	@ 0x1c2
  b2:	ad02      	add	r5, sp, #8
  b4:	6178      	str	r0, [r7, #20]
  b6:	dc61      	bgt.n	17c <sp_exptmod_nct+0x17c>
  b8:	2815      	cmp	r0, #21
  ba:	dd61      	ble.n	180 <sp_exptmod_nct+0x180>
  bc:	2824      	cmp	r0, #36	@ 0x24
  be:	dd61      	ble.n	184 <sp_exptmod_nct+0x184>
  c0:	288c      	cmp	r0, #140	@ 0x8c
  c2:	bfcc      	ite	gt
  c4:	2605      	movgt	r6, #5
  c6:	2604      	movle	r6, #4
  c8:	f1ba 0fc1 	cmp.w	sl, #193	@ 0xc1
  cc:	f200 81c3 	bhi.w	456 <sp_exptmod_nct+0x456>
  d0:	2301      	movs	r3, #1
  d2:	1e74      	subs	r4, r6, #1
  d4:	f107 0120 	add.w	r1, r7, #32
  d8:	fa03 f404 	lsl.w	r4, r3, r4
  dc:	ea4f 08c8 	mov.w	r8, r8, lsl #3
  e0:	459a      	cmp	sl, r3
  e2:	f108 080c 	add.w	r8, r8, #12
  e6:	623d      	str	r5, [r7, #32]
  e8:	f8c5 a004 	str.w	sl, [r5, #4]
  ec:	f104 0202 	add.w	r2, r4, #2
  f0:	bf08      	it	eq
  f2:	f04f 080c 	moveq.w	r8, #12
  f6:	60b9      	str	r1, [r7, #8]
  f8:	4608      	mov	r0, r1
  fa:	6801      	ldr	r1, [r0, #0]
  fc:	3301      	adds	r3, #1
  fe:	4441      	add	r1, r8
 100:	4293      	cmp	r3, r2
 102:	f840 1f04 	str.w	r1, [r0, #4]!
 106:	f8c1 a004 	str.w	sl, [r1, #4]
 10a:	dbf6      	blt.n	fa <sp_exptmod_nct+0xfa>
 10c:	f107 03a8 	add.w	r3, r7, #168	@ 0xa8
 110:	eb03 0384 	add.w	r3, r3, r4, lsl #2
 114:	2200      	movs	r2, #0
 116:	f853 8c88 	ldr.w	r8, [r3, #-136]
 11a:	68b8      	ldr	r0, [r7, #8]
 11c:	f107 03a8 	add.w	r3, r7, #168	@ 0xa8
 120:	eb03 0384 	add.w	r3, r3, r4, lsl #2
 124:	f853 9c84 	ldr.w	r9, [r3, #-132]
 128:	4613      	mov	r3, r2
 12a:	f850 1b04 	ldr.w	r1, [r0], #4
 12e:	3201      	adds	r2, #1
 130:	4294      	cmp	r4, r2
 132:	e9c1 a301 	strd	sl, r3, [r1, #4]
 136:	600b      	str	r3, [r1, #0]
 138:	d1f7      	bne.n	12a <sp_exptmod_nct+0x12a>
 13a:	e9c8 a301 	strd	sl, r3, [r8, #4]
 13e:	f8c8 3000 	str.w	r3, [r8]
 142:	6878      	ldr	r0, [r7, #4]
 144:	f8c9 3000 	str.w	r3, [r9]
 148:	e9c9 a301 	strd	sl, r3, [r9, #4]
 14c:	4659      	mov	r1, fp
 14e:	f7ff fffe 	bl	0 <sp_exptmod_nct>
 152:	3001      	adds	r0, #1
 154:	d018      	beq.n	188 <sp_exptmod_nct+0x188>
 156:	464a      	mov	r2, r9
 158:	6878      	ldr	r0, [r7, #4]
 15a:	4659      	mov	r1, fp
 15c:	f7ff fffe 	bl	0 <sp_exptmod_nct>
 160:	4602      	mov	r2, r0
 162:	b928      	cbnz	r0, 170 <sp_exptmod_nct+0x170>
 164:	f8d9 3000 	ldr.w	r3, [r9]
 168:	b993      	cbnz	r3, 190 <sp_exptmod_nct+0x190>
 16a:	68fb      	ldr	r3, [r7, #12]
 16c:	6098      	str	r0, [r3, #8]
 16e:	6018      	str	r0, [r3, #0]
 170:	f8d7 d000 	ldr.w	sp, [r7]
 174:	e76b      	b.n	4e <sp_exptmod_nct+0x4e>
 176:	f44f 73cc 	mov.w	r3, #408	@ 0x198
 17a:	e78d      	b.n	98 <sp_exptmod_nct+0x98>
 17c:	2606      	movs	r6, #6
 17e:	e7a3      	b.n	c8 <sp_exptmod_nct+0xc8>
 180:	2601      	movs	r6, #1
 182:	e7a1      	b.n	c8 <sp_exptmod_nct+0xc8>
 184:	2603      	movs	r6, #3
 186:	e79f      	b.n	c8 <sp_exptmod_nct+0xc8>
 188:	6878      	ldr	r0, [r7, #4]
 18a:	4649      	mov	r1, r9
 18c:	f7ff fffe 	bl	0 <sp_exptmod_nct>
 190:	f8db 0008 	ldr.w	r0, [fp, #8]
 194:	f107 011c 	add.w	r1, r7, #28
 198:	f7ff fffe 	bl	0 <sp_exptmod_nct>
 19c:	4659      	mov	r1, fp
 19e:	4628      	mov	r0, r5
 1a0:	f7ff fffe 	bl	0 <sp_exptmod_nct>
 1a4:	4602      	mov	r2, r0
 1a6:	b9b8      	cbnz	r0, 1d8 <sp_exptmod_nct+0x1d8>
 1a8:	464a      	mov	r2, r9
 1aa:	4629      	mov	r1, r5
 1ac:	4648      	mov	r0, r9
 1ae:	f7ff fffe 	bl	0 <sp_exptmod_nct>
 1b2:	4602      	mov	r2, r0
 1b4:	b980      	cbnz	r0, 1d8 <sp_exptmod_nct+0x1d8>
 1b6:	f8d9 3000 	ldr.w	r3, [r9]
 1ba:	3301      	adds	r3, #1
 1bc:	9300      	str	r3, [sp, #0]
 1be:	4659      	mov	r1, fp
 1c0:	464b      	mov	r3, r9
 1c2:	4648      	mov	r0, r9
 1c4:	f7ff fffe 	bl	0 <sp_exptmod_nct>
 1c8:	4602      	mov	r2, r0
 1ca:	b928      	cbnz	r0, 1d8 <sp_exptmod_nct+0x1d8>
 1cc:	6078      	str	r0, [r7, #4]
 1ce:	4629      	mov	r1, r5
 1d0:	4648      	mov	r0, r9
 1d2:	f7ff fffe 	bl	0 <sp_exptmod_nct>
 1d6:	687a      	ldr	r2, [r7, #4]
 1d8:	f04f 0a01 	mov.w	sl, #1
 1dc:	4556      	cmp	r6, sl
 1de:	d117      	bne.n	210 <sp_exptmod_nct+0x210>
 1e0:	2501      	movs	r5, #1
 1e2:	42ac      	cmp	r4, r5
 1e4:	d025      	beq.n	232 <sp_exptmod_nct+0x232>
 1e6:	2a00      	cmp	r2, #0
 1e8:	d1c2      	bne.n	170 <sp_exptmod_nct+0x170>
 1ea:	68bb      	ldr	r3, [r7, #8]
 1ec:	6818      	ldr	r0, [r3, #0]
 1ee:	f853 af04 	ldr.w	sl, [r3, #4]!
 1f2:	60bb      	str	r3, [r7, #8]
 1f4:	4652      	mov	r2, sl
 1f6:	4649      	mov	r1, r9
 1f8:	f7ff fffe 	bl	0 <sp_exptmod_nct>
 1fc:	4602      	mov	r2, r0
 1fe:	b928      	cbnz	r0, 20c <sp_exptmod_nct+0x20c>
 200:	69fa      	ldr	r2, [r7, #28]
 202:	4659      	mov	r1, fp
 204:	4650      	mov	r0, sl
 206:	f7ff fffe 	bl	0 <sp_exptmod_nct>
 20a:	4602      	mov	r2, r0
 20c:	3501      	adds	r5, #1
 20e:	e7e8      	b.n	1e2 <sp_exptmod_nct+0x1e2>
 210:	2a00      	cmp	r2, #0
 212:	d1e5      	bne.n	1e0 <sp_exptmod_nct+0x1e0>
 214:	4629      	mov	r1, r5
 216:	4628      	mov	r0, r5
 218:	f7ff fffe 	bl	0 <sp_exptmod_nct>
 21c:	4602      	mov	r2, r0
 21e:	b928      	cbnz	r0, 22c <sp_exptmod_nct+0x22c>
 220:	69fa      	ldr	r2, [r7, #28]
 222:	4659      	mov	r1, fp
 224:	4628      	mov	r0, r5
 226:	f7ff fffe 	bl	0 <sp_exptmod_nct>
 22a:	4602      	mov	r2, r0
 22c:	f10a 0a01 	add.w	sl, sl, #1
 230:	e7d4      	b.n	1dc <sp_exptmod_nct+0x1dc>
 232:	2a00      	cmp	r2, #0
 234:	d19c      	bne.n	170 <sp_exptmod_nct+0x170>
 236:	1e63      	subs	r3, r4, #1
 238:	60bb      	str	r3, [r7, #8]
 23a:	697b      	ldr	r3, [r7, #20]
 23c:	6939      	ldr	r1, [r7, #16]
 23e:	3b01      	subs	r3, #1
 240:	115b      	asrs	r3, r3, #5
 242:	eb01 0c83 	add.w	ip, r1, r3, lsl #2
 246:	6979      	ldr	r1, [r7, #20]
 248:	f8dc 5008 	ldr.w	r5, [ip, #8]
 24c:	f011 041f 	ands.w	r4, r1, #31
 250:	f103 3aff 	add.w	sl, r3, #4294967295	@ 0xffffffff
 254:	d07e      	beq.n	354 <sp_exptmod_nct+0x354>
 256:	4249      	negs	r1, r1
 258:	f001 011f 	and.w	r1, r1, #31
 25c:	bf58      	it	pl
 25e:	424c      	negpl	r4, r1
 260:	f1c4 0120 	rsb	r1, r4, #32
 264:	408d      	lsls	r5, r1
 266:	6979      	ldr	r1, [r7, #20]
 268:	42b1      	cmp	r1, r6
 26a:	db79      	blt.n	360 <sp_exptmod_nct+0x360>
 26c:	68b8      	ldr	r0, [r7, #8]
 26e:	f1c6 0120 	rsb	r1, r6, #32
 272:	fa25 f101 	lsr.w	r1, r5, r1
 276:	42a6      	cmp	r6, r4
 278:	ea01 0100 	and.w	r1, r1, r0
 27c:	dd6c      	ble.n	358 <sp_exptmod_nct+0x358>
 27e:	f8dc 5004 	ldr.w	r5, [ip, #4]
 282:	1b30      	subs	r0, r6, r4
 284:	f1c0 0420 	rsb	r4, r0, #32
 288:	f1a3 0a02 	sub.w	sl, r3, #2
 28c:	fa25 f304 	lsr.w	r3, r5, r4
 290:	430b      	orrs	r3, r1
 292:	4085      	lsls	r5, r0
 294:	617a      	str	r2, [r7, #20]
 296:	f107 02a8 	add.w	r2, r7, #168	@ 0xa8
 29a:	eb02 0383 	add.w	r3, r2, r3, lsl #2
 29e:	4641      	mov	r1, r8
 2a0:	f853 0c88 	ldr.w	r0, [r3, #-136]
 2a4:	f7ff fffe 	bl	0 <sp_exptmod_nct>
 2a8:	697a      	ldr	r2, [r7, #20]
 2aa:	f1c6 0320 	rsb	r3, r6, #32
 2ae:	617b      	str	r3, [r7, #20]
 2b0:	2a00      	cmp	r2, #0
 2b2:	f47f af5d 	bne.w	170 <sp_exptmod_nct+0x170>
 2b6:	f1ba 0f00 	cmp.w	sl, #0
 2ba:	da01      	bge.n	2c0 <sp_exptmod_nct+0x2c0>
 2bc:	42a6      	cmp	r6, r4
 2be:	dc18      	bgt.n	2f2 <sp_exptmod_nct+0x2f2>
 2c0:	2300      	movs	r3, #0
 2c2:	b93c      	cbnz	r4, 2d4 <sp_exptmod_nct+0x2d4>
 2c4:	f10a 0202 	add.w	r2, sl, #2
 2c8:	6939      	ldr	r1, [r7, #16]
 2ca:	f851 5022 	ldr.w	r5, [r1, r2, lsl #2]
 2ce:	f10a 3aff 	add.w	sl, sl, #4294967295	@ 0xffffffff
 2d2:	2420      	movs	r4, #32
 2d4:	2d00      	cmp	r5, #0
 2d6:	db49      	blt.n	36c <sp_exptmod_nct+0x36c>
 2d8:	f1ba 0f00 	cmp.w	sl, #0
 2dc:	f103 0301 	add.w	r3, r3, #1
 2e0:	ea4f 0545 	mov.w	r5, r5, lsl #1
 2e4:	f104 34ff 	add.w	r4, r4, #4294967295	@ 0xffffffff
 2e8:	daeb      	bge.n	2c2 <sp_exptmod_nct+0x2c2>
 2ea:	42a6      	cmp	r6, r4
 2ec:	dde9      	ble.n	2c2 <sp_exptmod_nct+0x2c2>
 2ee:	2b00      	cmp	r3, #0
 2f0:	d142      	bne.n	378 <sp_exptmod_nct+0x378>
 2f2:	2c00      	cmp	r4, #0
 2f4:	dd1e      	ble.n	334 <sp_exptmod_nct+0x334>
 2f6:	693b      	ldr	r3, [r7, #16]
 2f8:	689d      	ldr	r5, [r3, #8]
 2fa:	3c02      	subs	r4, #2
 2fc:	4641      	mov	r1, r8
 2fe:	4640      	mov	r0, r8
 300:	f7ff fffe 	bl	0 <sp_exptmod_nct>
 304:	4602      	mov	r2, r0
 306:	2800      	cmp	r0, #0
 308:	f47f af32 	bne.w	170 <sp_exptmod_nct+0x170>
 30c:	69fe      	ldr	r6, [r7, #28]
 30e:	4659      	mov	r1, fp
 310:	4632      	mov	r2, r6
 312:	4640      	mov	r0, r8
 314:	f7ff fffe 	bl	0 <sp_exptmod_nct>
 318:	4602      	mov	r2, r0
 31a:	2800      	cmp	r0, #0
 31c:	f47f af28 	bne.w	170 <sp_exptmod_nct+0x170>
 320:	1c63      	adds	r3, r4, #1
 322:	fa25 f303 	lsr.w	r3, r5, r3
 326:	07db      	lsls	r3, r3, #31
 328:	d47c      	bmi.n	424 <sp_exptmod_nct+0x424>
 32a:	4623      	mov	r3, r4
 32c:	3301      	adds	r3, #1
 32e:	f104 34ff 	add.w	r4, r4, #4294967295	@ 0xffffffff
 332:	d1e3      	bne.n	2fc <sp_exptmod_nct+0x2fc>
 334:	69fa      	ldr	r2, [r7, #28]
 336:	4659      	mov	r1, fp
 338:	4640      	mov	r0, r8
 33a:	f7ff fffe 	bl	0 <sp_exptmod_nct>
 33e:	4602      	mov	r2, r0
 340:	2800      	cmp	r0, #0
 342:	f47f af15 	bne.w	170 <sp_exptmod_nct+0x170>
 346:	6178      	str	r0, [r7, #20]
 348:	68f9      	ldr	r1, [r7, #12]
 34a:	4640      	mov	r0, r8
 34c:	f7ff fffe 	bl	0 <sp_exptmod_nct>
 350:	697a      	ldr	r2, [r7, #20]
 352:	e70d      	b.n	170 <sp_exptmod_nct+0x170>
 354:	2420      	movs	r4, #32
 356:	e783      	b.n	260 <sp_exptmod_nct+0x260>
 358:	460b      	mov	r3, r1
 35a:	40b5      	lsls	r5, r6
 35c:	1ba4      	subs	r4, r4, r6
 35e:	e799      	b.n	294 <sp_exptmod_nct+0x294>
 360:	4659      	mov	r1, fp
 362:	4640      	mov	r0, r8
 364:	f7ff fffe 	bl	0 <sp_exptmod_nct>
 368:	4602      	mov	r2, r0
 36a:	e79e      	b.n	2aa <sp_exptmod_nct+0x2aa>
 36c:	f1ba 0f00 	cmp.w	sl, #0
 370:	da01      	bge.n	376 <sp_exptmod_nct+0x376>
 372:	42a6      	cmp	r6, r4
 374:	dcbb      	bgt.n	2ee <sp_exptmod_nct+0x2ee>
 376:	4433      	add	r3, r6
 378:	4641      	mov	r1, r8
 37a:	4640      	mov	r0, r8
 37c:	607b      	str	r3, [r7, #4]
 37e:	f7ff fffe 	bl	0 <sp_exptmod_nct>
 382:	4602      	mov	r2, r0
 384:	2800      	cmp	r0, #0
 386:	d164      	bne.n	452 <sp_exptmod_nct+0x452>
 388:	69fa      	ldr	r2, [r7, #28]
 38a:	4659      	mov	r1, fp
 38c:	4640      	mov	r0, r8
 38e:	f7ff fffe 	bl	0 <sp_exptmod_nct>
 392:	687b      	ldr	r3, [r7, #4]
 394:	4602      	mov	r2, r0
 396:	3b01      	subs	r3, #1
 398:	2800      	cmp	r0, #0
 39a:	d15a      	bne.n	452 <sp_exptmod_nct+0x452>
 39c:	2b00      	cmp	r3, #0
 39e:	d1eb      	bne.n	378 <sp_exptmod_nct+0x378>
 3a0:	f1ba 0f00 	cmp.w	sl, #0
 3a4:	da07      	bge.n	3b6 <sp_exptmod_nct+0x3b6>
 3a6:	42a6      	cmp	r6, r4
 3a8:	dca3      	bgt.n	2f2 <sp_exptmod_nct+0x2f2>
 3aa:	697b      	ldr	r3, [r7, #20]
 3ac:	fa25 f203 	lsr.w	r2, r5, r3
 3b0:	40b5      	lsls	r5, r6
 3b2:	1ba3      	subs	r3, r4, r6
 3b4:	e00b      	b.n	3ce <sp_exptmod_nct+0x3ce>
 3b6:	697b      	ldr	r3, [r7, #20]
 3b8:	bb14      	cbnz	r4, 400 <sp_exptmod_nct+0x400>
 3ba:	f10a 0202 	add.w	r2, sl, #2
 3be:	6939      	ldr	r1, [r7, #16]
 3c0:	f851 5022 	ldr.w	r5, [r1, r2, lsl #2]
 3c4:	fa25 f203 	lsr.w	r2, r5, r3
 3c8:	40b5      	lsls	r5, r6
 3ca:	f10a 3aff 	add.w	sl, sl, #4294967295	@ 0xffffffff
 3ce:	607b      	str	r3, [r7, #4]
 3d0:	68bb      	ldr	r3, [r7, #8]
 3d2:	401a      	ands	r2, r3
 3d4:	f107 03a8 	add.w	r3, r7, #168	@ 0xa8
 3d8:	eb03 0182 	add.w	r1, r3, r2, lsl #2
 3dc:	4640      	mov	r0, r8
 3de:	4642      	mov	r2, r8
 3e0:	f851 1c88 	ldr.w	r1, [r1, #-136]
 3e4:	f7ff fffe 	bl	0 <sp_exptmod_nct>
 3e8:	687b      	ldr	r3, [r7, #4]
 3ea:	4602      	mov	r2, r0
 3ec:	b930      	cbnz	r0, 3fc <sp_exptmod_nct+0x3fc>
 3ee:	69fa      	ldr	r2, [r7, #28]
 3f0:	4659      	mov	r1, fp
 3f2:	4640      	mov	r0, r8
 3f4:	f7ff fffe 	bl	0 <sp_exptmod_nct>
 3f8:	687b      	ldr	r3, [r7, #4]
 3fa:	4602      	mov	r2, r0
 3fc:	461c      	mov	r4, r3
 3fe:	e757      	b.n	2b0 <sp_exptmod_nct+0x2b0>
 400:	697b      	ldr	r3, [r7, #20]
 402:	42a6      	cmp	r6, r4
 404:	fa25 f103 	lsr.w	r1, r5, r3
 408:	ddcf      	ble.n	3aa <sp_exptmod_nct+0x3aa>
 40a:	693a      	ldr	r2, [r7, #16]
 40c:	f10a 0302 	add.w	r3, sl, #2
 410:	1b34      	subs	r4, r6, r4
 412:	f852 5023 	ldr.w	r5, [r2, r3, lsl #2]
 416:	f1c4 0320 	rsb	r3, r4, #32
 41a:	fa25 f203 	lsr.w	r2, r5, r3
 41e:	430a      	orrs	r2, r1
 420:	40a5      	lsls	r5, r4
 422:	e7d2      	b.n	3ca <sp_exptmod_nct+0x3ca>
 424:	4642      	mov	r2, r8
 426:	4649      	mov	r1, r9
 428:	4640      	mov	r0, r8
 42a:	f7ff fffe 	bl	0 <sp_exptmod_nct>
 42e:	4602      	mov	r2, r0
 430:	2800      	cmp	r0, #0
 432:	f47f ae9d 	bne.w	170 <sp_exptmod_nct+0x170>
 436:	4632      	mov	r2, r6
 438:	4659      	mov	r1, fp
 43a:	4640      	mov	r0, r8
 43c:	f7ff fffe 	bl	0 <sp_exptmod_nct>
 440:	4623      	mov	r3, r4
 442:	4602      	mov	r2, r0
 444:	2800      	cmp	r0, #0
 446:	f43f af71 	beq.w	32c <sp_exptmod_nct+0x32c>
 44a:	e691      	b.n	170 <sp_exptmod_nct+0x170>
 44c:	f06f 0202 	mvn.w	r2, #2
 450:	e5fd      	b.n	4e <sp_exptmod_nct+0x4e>
 452:	4623      	mov	r3, r4
 454:	e7d2      	b.n	3fc <sp_exptmod_nct+0x3fc>
 456:	f06f 0202 	mvn.w	r2, #2
 45a:	e689      	b.n	170 <sp_exptmod_nct+0x170>

Disassembly of section .text.sp_unsigned_bin_size:

00000000 <sp_unsigned_bin_size>:
   0:	b508      	push	{r3, lr}
   2:	b130      	cbz	r0, 12 <sp_unsigned_bin_size+0x12>
   4:	f7ff fffe 	bl	0 <sp_unsigned_bin_size>
   8:	1dc3      	adds	r3, r0, #7
   a:	bf48      	it	mi
   c:	f100 030e 	addmi.w	r3, r0, #14
  10:	10d8      	asrs	r0, r3, #3
  12:	bd08      	pop	{r3, pc}

Disassembly of section .text.sp_read_unsigned_bin:

00000000 <sp_read_unsigned_bin>:
   0:	b5f0      	push	{r4, r5, r6, r7, lr}
   2:	b108      	cbz	r0, 8 <sp_read_unsigned_bin+0x8>
   4:	b919      	cbnz	r1, e <sp_read_unsigned_bin+0xe>
   6:	b132      	cbz	r2, 16 <sp_read_unsigned_bin+0x16>
   8:	f06f 0002 	mvn.w	r0, #2
   c:	e02d      	b.n	6a <sp_read_unsigned_bin+0x6a>
   e:	6843      	ldr	r3, [r0, #4]
  10:	ebb2 0f83 	cmp.w	r2, r3, lsl #2
  14:	d8f8      	bhi.n	8 <sp_read_unsigned_bin+0x8>
  16:	1cd5      	adds	r5, r2, #3
  18:	4684      	mov	ip, r0
  1a:	08ad      	lsrs	r5, r5, #2
  1c:	1e57      	subs	r7, r2, #1
  1e:	f84c 5b04 	str.w	r5, [ip], #4
  22:	463c      	mov	r4, r7
  24:	188e      	adds	r6, r1, r2
  26:	2c02      	cmp	r4, #2
  28:	dc20      	bgt.n	6c <sp_read_unsigned_bin+0x6c>
  2a:	2c00      	cmp	r4, #0
  2c:	db13      	blt.n	56 <sp_read_unsigned_bin+0x56>
  2e:	3501      	adds	r5, #1
  30:	2600      	movs	r6, #0
  32:	2c01      	cmp	r4, #1
  34:	f840 6025 	str.w	r6, [r0, r5, lsl #2]
  38:	f100 0308 	add.w	r3, r0, #8
  3c:	d005      	beq.n	4a <sp_read_unsigned_bin+0x4a>
  3e:	2c02      	cmp	r4, #2
  40:	d107      	bne.n	52 <sp_read_unsigned_bin+0x52>
  42:	189c      	adds	r4, r3, r2
  44:	788d      	ldrb	r5, [r1, #2]
  46:	f804 5c03 	strb.w	r5, [r4, #-3]
  4a:	441a      	add	r2, r3
  4c:	784c      	ldrb	r4, [r1, #1]
  4e:	f802 4c02 	strb.w	r4, [r2, #-2]
  52:	780a      	ldrb	r2, [r1, #0]
  54:	55da      	strb	r2, [r3, r7]
  56:	4605      	mov	r5, r0
  58:	f04f 34ff 	mov.w	r4, #4294967295	@ 0xffffffff
  5c:	f855 2b08 	ldr.w	r2, [r5], #8
  60:	1e51      	subs	r1, r2, #1
  62:	2900      	cmp	r1, #0
  64:	da15      	bge.n	92 <sp_read_unsigned_bin+0x92>
  66:	6002      	str	r2, [r0, #0]
  68:	2000      	movs	r0, #0
  6a:	bdf0      	pop	{r4, r5, r6, r7, pc}
  6c:	f816 3c03 	ldrb.w	r3, [r6, #-3]
  70:	f816 ec02 	ldrb.w	lr, [r6, #-2]
  74:	041b      	lsls	r3, r3, #16
  76:	ea43 230e 	orr.w	r3, r3, lr, lsl #8
  7a:	f816 ec01 	ldrb.w	lr, [r6, #-1]
  7e:	ea43 030e 	orr.w	r3, r3, lr
  82:	f816 ed04 	ldrb.w	lr, [r6, #-4]!
  86:	ea43 630e 	orr.w	r3, r3, lr, lsl #24
  8a:	f84c 3f04 	str.w	r3, [ip, #4]!
  8e:	3c04      	subs	r4, #4
  90:	e7c9      	b.n	26 <sp_read_unsigned_bin+0x26>
  92:	f855 3021 	ldr.w	r3, [r5, r1, lsl #2]
  96:	fab3 f383 	clz	r3, r3
  9a:	095b      	lsrs	r3, r3, #5
  9c:	ea03 0604 	and.w	r6, r3, r4
  a0:	2b00      	cmp	r3, #0
  a2:	eba2 0206 	sub.w	r2, r2, r6
  a6:	bf08      	it	eq
  a8:	2400      	moveq	r4, #0
  aa:	3901      	subs	r1, #1
  ac:	e7d9      	b.n	62 <sp_read_unsigned_bin+0x62>

Disassembly of section .text.sp_to_unsigned_bin_len:

00000000 <sp_to_unsigned_bin_len>:
   0:	b5f0      	push	{r4, r5, r6, r7, lr}
   2:	4606      	mov	r6, r0
   4:	b3b0      	cbz	r0, 74 <sp_to_unsigned_bin_len+0x74>
   6:	b3a9      	cbz	r1, 74 <sp_to_unsigned_bin_len+0x74>
   8:	2a00      	cmp	r2, #0
   a:	db33      	blt.n	74 <sp_to_unsigned_bin_len+0x74>
   c:	6800      	ldr	r0, [r0, #0]
   e:	3a01      	subs	r2, #1
  10:	b138      	cbz	r0, 22 <sp_to_unsigned_bin_len+0x22>
  12:	2500      	movs	r5, #0
  14:	1d37      	adds	r7, r6, #4
  16:	4628      	mov	r0, r5
  18:	1c53      	adds	r3, r2, #1
  1a:	d002      	beq.n	22 <sp_to_unsigned_bin_len+0x22>
  1c:	6833      	ldr	r3, [r6, #0]
  1e:	42ab      	cmp	r3, r5
  20:	d803      	bhi.n	2a <sp_to_unsigned_bin_len+0x2a>
  22:	3201      	adds	r2, #1
  24:	440a      	add	r2, r1
  26:	2300      	movs	r3, #0
  28:	e021      	b.n	6e <sp_to_unsigned_bin_len+0x6e>
  2a:	f857 4f04 	ldr.w	r4, [r7, #4]!
  2e:	548c      	strb	r4, [r1, r2]
  30:	1e53      	subs	r3, r2, #1
  32:	0a24      	lsrs	r4, r4, #8
  34:	b9a2      	cbnz	r2, 60 <sp_to_unsigned_bin_len+0x60>
  36:	6833      	ldr	r3, [r6, #0]
  38:	3b01      	subs	r3, #1
  3a:	42ab      	cmp	r3, r5
  3c:	f04f 32ff 	mov.w	r2, #4294967295	@ 0xffffffff
  40:	d810      	bhi.n	64 <sp_to_unsigned_bin_len+0x64>
  42:	2c00      	cmp	r4, #0
  44:	bf18      	it	ne
  46:	f06f 0002 	mvnne.w	r0, #2
  4a:	3501      	adds	r5, #1
  4c:	e7e4      	b.n	18 <sp_to_unsigned_bin_len+0x18>
  4e:	54cc      	strb	r4, [r1, r3]
  50:	3b01      	subs	r3, #1
  52:	ea4f 2414 	mov.w	r4, r4, lsr #8
  56:	d3ee      	bcc.n	36 <sp_to_unsigned_bin_len+0x36>
  58:	4293      	cmp	r3, r2
  5a:	d1f8      	bne.n	4e <sp_to_unsigned_bin_len+0x4e>
  5c:	461a      	mov	r2, r3
  5e:	e7f4      	b.n	4a <sp_to_unsigned_bin_len+0x4a>
  60:	3a04      	subs	r2, #4
  62:	e7f9      	b.n	58 <sp_to_unsigned_bin_len+0x58>
  64:	f06f 0002 	mvn.w	r0, #2
  68:	e7ef      	b.n	4a <sp_to_unsigned_bin_len+0x4a>
  6a:	f802 3d01 	strb.w	r3, [r2, #-1]!
  6e:	428a      	cmp	r2, r1
  70:	d1fb      	bne.n	6a <sp_to_unsigned_bin_len+0x6a>
  72:	bdf0      	pop	{r4, r5, r6, r7, pc}
  74:	f06f 0002 	mvn.w	r0, #2
  78:	e7fb      	b.n	72 <sp_to_unsigned_bin_len+0x72>

Disassembly of section .text.sp_to_unsigned_bin:

00000000 <sp_to_unsigned_bin>:
   0:	b538      	push	{r3, r4, r5, lr}
   2:	4604      	mov	r4, r0
   4:	460d      	mov	r5, r1
   6:	f7ff fffe 	bl	0 <sp_to_unsigned_bin>
   a:	4629      	mov	r1, r5
   c:	4602      	mov	r2, r0
   e:	4620      	mov	r0, r4
  10:	e8bd 4038 	ldmia.w	sp!, {r3, r4, r5, lr}
  14:	f7ff bffe 	b.w	0 <sp_to_unsigned_bin>

Disassembly of section .text.sp_to_unsigned_bin_len_ct:

00000000 <sp_to_unsigned_bin_len_ct>:
   0:	b5f0      	push	{r4, r5, r6, r7, lr}
   2:	b320      	cbz	r0, 4e <sp_to_unsigned_bin_len_ct+0x4e>
   4:	b319      	cbz	r1, 4e <sp_to_unsigned_bin_len_ct+0x4e>
   6:	2a00      	cmp	r2, #0
   8:	db21      	blt.n	4e <sp_to_unsigned_bin_len_ct+0x4e>
   a:	3a01      	subs	r2, #1
   c:	f04f 34ff 	mov.w	r4, #4294967295	@ 0xffffffff
  10:	2300      	movs	r3, #0
  12:	1c55      	adds	r5, r2, #1
  14:	d101      	bne.n	1a <sp_to_unsigned_bin_len_ct+0x1a>
  16:	2000      	movs	r0, #0
  18:	bdf0      	pop	{r4, r5, r6, r7, pc}
  1a:	1c9d      	adds	r5, r3, #2
  1c:	188e      	adds	r6, r1, r2
  1e:	f850 5025 	ldr.w	r5, [r0, r5, lsl #2]
  22:	1f17      	subs	r7, r2, #4
  24:	3a01      	subs	r2, #1
  26:	ea05 0c04 	and.w	ip, r5, r4
  2a:	f1b2 3fff 	cmp.w	r2, #4294967295	@ 0xffffffff
  2e:	f806 c901 	strb.w	ip, [r6], #-1
  32:	ea4f 2515 	mov.w	r5, r5, lsr #8
  36:	d001      	beq.n	3c <sp_to_unsigned_bin_len_ct+0x3c>
  38:	42ba      	cmp	r2, r7
  3a:	d1f3      	bne.n	24 <sp_to_unsigned_bin_len_ct+0x24>
  3c:	6805      	ldr	r5, [r0, #0]
  3e:	3d01      	subs	r5, #1
  40:	429d      	cmp	r5, r3
  42:	bf98      	it	ls
  44:	2400      	movls	r4, #0
  46:	f004 0501 	and.w	r5, r4, #1
  4a:	442b      	add	r3, r5
  4c:	e7e1      	b.n	12 <sp_to_unsigned_bin_len_ct+0x12>
  4e:	f06f 0002 	mvn.w	r0, #2
  52:	e7e1      	b.n	18 <sp_to_unsigned_bin_len_ct+0x18>

Disassembly of section .text.sp_prime_is_prime:

00000000 <sp_prime_is_prime>:
   0:	e92d 4ff0 	stmdb	sp!, {r4, r5, r6, r7, r8, r9, sl, fp, lr}
   4:	b087      	sub	sp, #28
   6:	af02      	add	r7, sp, #8
   8:	2300      	movs	r3, #0
   a:	4688      	mov	r8, r1
   c:	4614      	mov	r4, r2
   e:	60fb      	str	r3, [r7, #12]
  10:	4605      	mov	r5, r0
  12:	b138      	cbz	r0, 24 <sp_prime_is_prime+0x24>
  14:	b95a      	cbnz	r2, 2e <sp_prime_is_prime+0x2e>
  16:	f06f 0302 	mvn.w	r3, #2
  1a:	4618      	mov	r0, r3
  1c:	3714      	adds	r7, #20
  1e:	46bd      	mov	sp, r7
  20:	e8bd 8ff0 	ldmia.w	sp!, {r4, r5, r6, r7, r8, r9, sl, fp, pc}
  24:	2a00      	cmp	r2, #0
  26:	d0f6      	beq.n	16 <sp_prime_is_prime+0x16>
  28:	2300      	movs	r3, #0
  2a:	6023      	str	r3, [r4, #0]
  2c:	e7f3      	b.n	16 <sp_prime_is_prime+0x16>
  2e:	6802      	ldr	r2, [r0, #0]
  30:	0051      	lsls	r1, r2, #1
  32:	29c0      	cmp	r1, #192	@ 0xc0
  34:	d8ef      	bhi.n	16 <sp_prime_is_prime+0x16>
  36:	f108 31ff 	add.w	r1, r8, #4294967295	@ 0xffffffff
  3a:	29ff      	cmp	r1, #255	@ 0xff
  3c:	d8f4      	bhi.n	28 <sp_prime_is_prime+0x28>
  3e:	2a01      	cmp	r2, #1
  40:	d109      	bne.n	56 <sp_prime_is_prime+0x56>
  42:	6882      	ldr	r2, [r0, #8]
  44:	2a01      	cmp	r2, #1
  46:	d102      	bne.n	4e <sp_prime_is_prime+0x4e>
  48:	6023      	str	r3, [r4, #0]
  4a:	2300      	movs	r3, #0
  4c:	e7e5      	b.n	1a <sp_prime_is_prime+0x1a>
  4e:	f240 6153 	movw	r1, #1619	@ 0x653
  52:	428a      	cmp	r2, r1
  54:	d92f      	bls.n	b6 <sp_prime_is_prime+0xb6>
  56:	4622      	mov	r2, r4
  58:	f107 010c 	add.w	r1, r7, #12
  5c:	4628      	mov	r0, r5
  5e:	f7ff fffe 	bl	0 <sp_prime_is_prime>
  62:	4603      	mov	r3, r0
  64:	2800      	cmp	r0, #0
  66:	d1d8      	bne.n	1a <sp_prime_is_prime+0x1a>
  68:	68fb      	ldr	r3, [r7, #12]
  6a:	2b00      	cmp	r3, #0
  6c:	d1ed      	bne.n	4a <sp_prime_is_prime+0x4a>
  6e:	682b      	ldr	r3, [r5, #0]
  70:	f8c7 d004 	str.w	sp, [r7, #4]
  74:	1c58      	adds	r0, r3, #1
  76:	2801      	cmp	r0, #1
  78:	ea4f 0c43 	mov.w	ip, r3, lsl #1
  7c:	bf88      	it	hi
  7e:	1cda      	addhi	r2, r3, #3
  80:	f10c 0101 	add.w	r1, ip, #1
  84:	bf8c      	ite	hi
  86:	00d2      	lslhi	r2, r2, #3
  88:	2218      	movls	r2, #24
  8a:	2901      	cmp	r1, #1
  8c:	ebad 0d02 	sub.w	sp, sp, r2
  90:	bf86      	itte	hi
  92:	00da      	lslhi	r2, r3, #3
  94:	320c      	addhi	r2, #12
  96:	220c      	movls	r2, #12
  98:	3207      	adds	r2, #7
  9a:	f022 0207 	bic.w	r2, r2, #7
  9e:	ae02      	add	r6, sp, #8
  a0:	28c1      	cmp	r0, #193	@ 0xc1
  a2:	ebad 0d02 	sub.w	sp, sp, r2
  a6:	f10d 0b08 	add.w	fp, sp, #8
  aa:	d916      	bls.n	da <sp_prime_is_prime+0xda>
  ac:	f06f 0302 	mvn.w	r3, #2
  b0:	f8d7 d004 	ldr.w	sp, [r7, #4]
  b4:	e7b1      	b.n	1a <sp_prime_is_prime+0x1a>
  b6:	4e27      	ldr	r6, [pc, #156]	@ (154 <sp_prime_is_prime+0x154>)
  b8:	6023      	str	r3, [r4, #0]
  ba:	461a      	mov	r2, r3
  bc:	f836 1b02 	ldrh.w	r1, [r6], #2
  c0:	4628      	mov	r0, r5
  c2:	f7ff fffe 	bl	0 <sp_prime_is_prime>
  c6:	b908      	cbnz	r0, cc <sp_prime_is_prime+0xcc>
  c8:	2301      	movs	r3, #1
  ca:	e7bd      	b.n	48 <sp_prime_is_prime+0x48>
  cc:	3201      	adds	r2, #1
  ce:	f5b2 7f80 	cmp.w	r2, #256	@ 0x100
  d2:	d1f3      	bne.n	bc <sp_prime_is_prime+0xbc>
  d4:	2300      	movs	r3, #0
  d6:	60fb      	str	r3, [r7, #12]
  d8:	e7bd      	b.n	56 <sp_prime_is_prime+0x56>
  da:	2801      	cmp	r0, #1
  dc:	bf86      	itte	hi
  de:	3303      	addhi	r3, #3
  e0:	009b      	lslhi	r3, r3, #2
  e2:	230c      	movls	r3, #12
  e4:	eb06 0903 	add.w	r9, r6, r3
  e8:	29c1      	cmp	r1, #193	@ 0xc1
  ea:	6070      	str	r0, [r6, #4]
  ec:	f8c9 0004 	str.w	r0, [r9, #4]
  f0:	d8dc      	bhi.n	ac <sp_prime_is_prime+0xac>
  f2:	2200      	movs	r2, #0
  f4:	e9c6 0201 	strd	r0, r2, [r6, #4]
  f8:	6032      	str	r2, [r6, #0]
  fa:	f8df a058 	ldr.w	sl, [pc, #88]	@ 154 <sp_prime_is_prime+0x154>
  fe:	50f2      	str	r2, [r6, r3]
 100:	e9c9 0201 	strd	r0, r2, [r9, #4]
 104:	f8cb 1004 	str.w	r1, [fp, #4]
 108:	eb0a 0848 	add.w	r8, sl, r8, lsl #1
 10c:	f83a 3b02 	ldrh.w	r3, [sl], #2
 110:	f8cb 3008 	str.w	r3, [fp, #8]
 114:	3b00      	subs	r3, #0
 116:	bf18      	it	ne
 118:	2301      	movne	r3, #1
 11a:	f8cb 3000 	str.w	r3, [fp]
 11e:	4622      	mov	r2, r4
 120:	4633      	mov	r3, r6
 122:	f8cd 9000 	str.w	r9, [sp]
 126:	4659      	mov	r1, fp
 128:	4628      	mov	r0, r5
 12a:	f7ff fffe 	bl	0 <sp_prime_is_prime>
 12e:	4603      	mov	r3, r0
 130:	b918      	cbnz	r0, 13a <sp_prime_is_prime+0x13a>
 132:	6822      	ldr	r2, [r4, #0]
 134:	b10a      	cbz	r2, 13a <sp_prime_is_prime+0x13a>
 136:	45d0      	cmp	r8, sl
 138:	d1e8      	bne.n	10c <sp_prime_is_prime+0x10c>
 13a:	4630      	mov	r0, r6
 13c:	603b      	str	r3, [r7, #0]
 13e:	f7ff fffe 	bl	0 <sp_prime_is_prime>
 142:	4648      	mov	r0, r9
 144:	f7ff fffe 	bl	0 <sp_prime_is_prime>
 148:	4658      	mov	r0, fp
 14a:	f7ff fffe 	bl	0 <sp_prime_is_prime>
 14e:	683b      	ldr	r3, [r7, #0]
 150:	e7ae      	b.n	b0 <sp_prime_is_prime+0xb0>
 152:	bf00      	nop
 154:	00000000 	.word	0x00000000

Disassembly of section .text.sp_prime_is_prime_ex:

00000000 <sp_prime_is_prime_ex>:
   0:	e92d 4ff0 	stmdb	sp!, {r4, r5, r6, r7, r8, r9, sl, fp, lr}
   4:	b08b      	sub	sp, #44	@ 0x2c
   6:	af02      	add	r7, sp, #8
   8:	460e      	mov	r6, r1
   a:	60fb      	str	r3, [r7, #12]
   c:	2101      	movs	r1, #1
   e:	2300      	movs	r3, #0
  10:	e9c7 1306 	strd	r1, r3, [r7, #24]
  14:	617a      	str	r2, [r7, #20]
  16:	4605      	mov	r5, r0
  18:	2800      	cmp	r0, #0
  1a:	f000 80d0 	beq.w	1be <sp_prime_is_prime_ex+0x1be>
  1e:	2a00      	cmp	r2, #0
  20:	f000 80d9 	beq.w	1d6 <sp_prime_is_prime_ex+0x1d6>
  24:	68fa      	ldr	r2, [r7, #12]
  26:	2a00      	cmp	r2, #0
  28:	f000 80d2 	beq.w	1d0 <sp_prime_is_prime_ex+0x1d0>
  2c:	f8d0 a000 	ldr.w	sl, [r0]
  30:	ea4f 044a 	mov.w	r4, sl, lsl #1
  34:	2cc0      	cmp	r4, #192	@ 0xc0
  36:	f200 80cb 	bhi.w	1d0 <sp_prime_is_prime_ex+0x1d0>
  3a:	1e72      	subs	r2, r6, #1
  3c:	2aff      	cmp	r2, #255	@ 0xff
  3e:	f200 80c7 	bhi.w	1d0 <sp_prime_is_prime_ex+0x1d0>
  42:	f1ba 0f01 	cmp.w	sl, #1
  46:	d10d      	bne.n	64 <sp_prime_is_prime_ex+0x64>
  48:	6882      	ldr	r2, [r0, #8]
  4a:	2a01      	cmp	r2, #1
  4c:	f040 80c6 	bne.w	1dc <sp_prime_is_prime_ex+0x1dc>
  50:	61bb      	str	r3, [r7, #24]
  52:	2000      	movs	r0, #0
  54:	e0a6      	b.n	1a4 <sp_prime_is_prime_ex+0x1a4>
  56:	3201      	adds	r2, #1
  58:	f5b2 7f80 	cmp.w	r2, #256	@ 0x100
  5c:	f040 80c7 	bne.w	1ee <sp_prime_is_prime_ex+0x1ee>
  60:	2300      	movs	r3, #0
  62:	61fb      	str	r3, [r7, #28]
  64:	f107 0218 	add.w	r2, r7, #24
  68:	f107 011c 	add.w	r1, r7, #28
  6c:	4628      	mov	r0, r5
  6e:	f7ff fffe 	bl	0 <sp_prime_is_prime_ex>
  72:	2800      	cmp	r0, #0
  74:	f040 8096 	bne.w	1a4 <sp_prime_is_prime_ex+0x1a4>
  78:	69fb      	ldr	r3, [r7, #28]
  7a:	2b00      	cmp	r3, #0
  7c:	d1e9      	bne.n	52 <sp_prime_is_prime_ex+0x52>
  7e:	4628      	mov	r0, r5
  80:	f8c7 d008 	str.w	sp, [r7, #8]
  84:	f7ff fffe 	bl	0 <sp_prime_is_prime_ex>
  88:	f10a 0101 	add.w	r1, sl, #1
  8c:	1dc3      	adds	r3, r0, #7
  8e:	08db      	lsrs	r3, r3, #3
  90:	2901      	cmp	r1, #1
  92:	607b      	str	r3, [r7, #4]
  94:	bf86      	itte	hi
  96:	f10a 0303 	addhi.w	r3, sl, #3
  9a:	00db      	lslhi	r3, r3, #3
  9c:	2318      	movls	r3, #24
  9e:	ebad 0d03 	sub.w	sp, sp, r3
  a2:	4683      	mov	fp, r0
  a4:	f10d 0908 	add.w	r9, sp, #8
  a8:	1c60      	adds	r0, r4, #1
  aa:	2c00      	cmp	r4, #0
  ac:	d07e      	beq.n	1ac <sp_prime_is_prime_ex+0x1ac>
  ae:	ea4f 130a 	mov.w	r3, sl, lsl #4
  b2:	3318      	adds	r3, #24
  b4:	ebad 0d03 	sub.w	sp, sp, r3
  b8:	29c1      	cmp	r1, #193	@ 0xc1
  ba:	ac02      	add	r4, sp, #8
  bc:	d87c      	bhi.n	1b8 <sp_prime_is_prime_ex+0x1b8>
  be:	2901      	cmp	r1, #1
  c0:	bf86      	itte	hi
  c2:	f10a 0803 	addhi.w	r8, sl, #3
  c6:	ea4f 0888 	movhi.w	r8, r8, lsl #2
  ca:	f04f 080c 	movls.w	r8, #12
  ce:	2801      	cmp	r0, #1
  d0:	bf1a      	itte	ne
  d2:	ea4f 0aca 	movne.w	sl, sl, lsl #3
  d6:	f10a 020c 	addne.w	r2, sl, #12
  da:	220c      	moveq	r2, #12
  dc:	44c8      	add	r8, r9
  de:	2300      	movs	r3, #0
  e0:	eb04 0a02 	add.w	sl, r4, r2
  e4:	e9c9 1301 	strd	r1, r3, [r9, #4]
  e8:	e9c4 0301 	strd	r0, r3, [r4, #4]
  ec:	6023      	str	r3, [r4, #0]
  ee:	e9c8 1301 	strd	r1, r3, [r8, #4]
  f2:	50a3      	str	r3, [r4, r2]
  f4:	f8c8 3000 	str.w	r3, [r8]
  f8:	e9ca 0301 	strd	r0, r3, [sl, #4]
  fc:	464a      	mov	r2, r9
  fe:	2102      	movs	r1, #2
 100:	4628      	mov	r0, r5
 102:	f7ff fffe 	bl	0 <sp_prime_is_prime_ex>
 106:	f00b 031f 	and.w	r3, fp, #31
 10a:	613b      	str	r3, [r7, #16]
 10c:	693a      	ldr	r2, [r7, #16]
 10e:	f04f 33ff 	mov.w	r3, #4294967295	@ 0xffffffff
 112:	4093      	lsls	r3, r2
 114:	43db      	mvns	r3, r3
 116:	603b      	str	r3, [r7, #0]
 118:	f104 0b08 	add.w	fp, r4, #8
 11c:	687a      	ldr	r2, [r7, #4]
 11e:	68f8      	ldr	r0, [r7, #12]
 120:	4659      	mov	r1, fp
 122:	f7ff fffe 	bl	0 <wc_RNG_GenerateBlock>
 126:	2800      	cmp	r0, #0
 128:	d142      	bne.n	1b0 <sp_prime_is_prime_ex+0x1b0>
 12a:	693a      	ldr	r2, [r7, #16]
 12c:	682b      	ldr	r3, [r5, #0]
 12e:	6023      	str	r3, [r4, #0]
 130:	b17a      	cbz	r2, 152 <sp_prime_is_prime_ex+0x152>
 132:	eb04 0183 	add.w	r1, r4, r3, lsl #2
 136:	6838      	ldr	r0, [r7, #0]
 138:	684a      	ldr	r2, [r1, #4]
 13a:	4002      	ands	r2, r0
 13c:	604a      	str	r2, [r1, #4]
 13e:	b143      	cbz	r3, 152 <sp_prime_is_prime_ex+0x152>
 140:	3b01      	subs	r3, #1
 142:	2b00      	cmp	r3, #0
 144:	db03      	blt.n	14e <sp_prime_is_prime_ex+0x14e>
 146:	f85b 2023 	ldr.w	r2, [fp, r3, lsl #2]
 14a:	2a00      	cmp	r2, #0
 14c:	d0f8      	beq.n	140 <sp_prime_is_prime_ex+0x140>
 14e:	3301      	adds	r3, #1
 150:	6023      	str	r3, [r4, #0]
 152:	2102      	movs	r1, #2
 154:	4620      	mov	r0, r4
 156:	f7ff fffe 	bl	0 <sp_prime_is_prime_ex>
 15a:	2801      	cmp	r0, #1
 15c:	d1de      	bne.n	11c <sp_prime_is_prime_ex+0x11c>
 15e:	4649      	mov	r1, r9
 160:	4620      	mov	r0, r4
 162:	f7ff fffe 	bl	0 <sp_prime_is_prime_ex>
 166:	3001      	adds	r0, #1
 168:	d1d8      	bne.n	11c <sp_prime_is_prime_ex+0x11c>
 16a:	f8cd a000 	str.w	sl, [sp]
 16e:	4643      	mov	r3, r8
 170:	f107 0218 	add.w	r2, r7, #24
 174:	4621      	mov	r1, r4
 176:	4628      	mov	r0, r5
 178:	f7ff fffe 	bl	0 <sp_prime_is_prime_ex>
 17c:	b9c0      	cbnz	r0, 1b0 <sp_prime_is_prime_ex+0x1b0>
 17e:	69bb      	ldr	r3, [r7, #24]
 180:	b1c3      	cbz	r3, 1b4 <sp_prime_is_prime_ex+0x1b4>
 182:	3e01      	subs	r6, #1
 184:	d1ca      	bne.n	11c <sp_prime_is_prime_ex+0x11c>
 186:	4640      	mov	r0, r8
 188:	f7ff fffe 	bl	0 <sp_prime_is_prime_ex>
 18c:	4650      	mov	r0, sl
 18e:	f7ff fffe 	bl	0 <sp_prime_is_prime_ex>
 192:	4620      	mov	r0, r4
 194:	f7ff fffe 	bl	0 <sp_prime_is_prime_ex>
 198:	4648      	mov	r0, r9
 19a:	f7ff fffe 	bl	0 <sp_prime_is_prime_ex>
 19e:	4630      	mov	r0, r6
 1a0:	f8d7 d008 	ldr.w	sp, [r7, #8]
 1a4:	e9d7 2305 	ldrd	r2, r3, [r7, #20]
 1a8:	6013      	str	r3, [r2, #0]
 1aa:	e00d      	b.n	1c8 <sp_prime_is_prime_ex+0x1c8>
 1ac:	2318      	movs	r3, #24
 1ae:	e781      	b.n	b4 <sp_prime_is_prime_ex+0xb4>
 1b0:	4606      	mov	r6, r0
 1b2:	e7e8      	b.n	186 <sp_prime_is_prime_ex+0x186>
 1b4:	461e      	mov	r6, r3
 1b6:	e7e6      	b.n	186 <sp_prime_is_prime_ex+0x186>
 1b8:	f06f 0002 	mvn.w	r0, #2
 1bc:	e7f0      	b.n	1a0 <sp_prime_is_prime_ex+0x1a0>
 1be:	697b      	ldr	r3, [r7, #20]
 1c0:	f06f 0002 	mvn.w	r0, #2
 1c4:	2b00      	cmp	r3, #0
 1c6:	d1ed      	bne.n	1a4 <sp_prime_is_prime_ex+0x1a4>
 1c8:	3724      	adds	r7, #36	@ 0x24
 1ca:	46bd      	mov	sp, r7
 1cc:	e8bd 8ff0 	ldmia.w	sp!, {r4, r5, r6, r7, r8, r9, sl, fp, pc}
 1d0:	f06f 0002 	mvn.w	r0, #2
 1d4:	e7e6      	b.n	1a4 <sp_prime_is_prime_ex+0x1a4>
 1d6:	f06f 0002 	mvn.w	r0, #2
 1da:	e7f5      	b.n	1c8 <sp_prime_is_prime_ex+0x1c8>
 1dc:	f240 6153 	movw	r1, #1619	@ 0x653
 1e0:	428a      	cmp	r2, r1
 1e2:	f63f af3f 	bhi.w	64 <sp_prime_is_prime_ex+0x64>
 1e6:	f8df 801c 	ldr.w	r8, [pc, #28]	@ 204 <sp_prime_is_prime_ex+0x204>
 1ea:	61bb      	str	r3, [r7, #24]
 1ec:	461a      	mov	r2, r3
 1ee:	f838 1b02 	ldrh.w	r1, [r8], #2
 1f2:	4628      	mov	r0, r5
 1f4:	f7ff fffe 	bl	0 <sp_prime_is_prime_ex>
 1f8:	2800      	cmp	r0, #0
 1fa:	f47f af2c 	bne.w	56 <sp_prime_is_prime_ex+0x56>
 1fe:	2301      	movs	r3, #1
 200:	e726      	b.n	50 <sp_prime_is_prime_ex+0x50>
 202:	bf00      	nop
 204:	00000000 	.word	0x00000000

Disassembly of section .text.CheckRunTimeSettings:

00000000 <CheckRunTimeSettings>:
   0:	2002      	movs	r0, #2
   2:	4770      	bx	lr

Disassembly of section .text.CheckRunTimeFastMath:

00000000 <CheckRunTimeFastMath>:
   0:	2020      	movs	r0, #32
   2:	4770      	bx	lr

sp_x86_64.o:     file format elf32-littlearm


tfm.o:     file format elf32-littlearm


wc_dsp.o:     file format elf32-littlearm


wc_encrypt.o:     file format elf32-littlearm


Disassembly of section .text.wc_AesCbcDecryptWithKey:

00000000 <wc_AesCbcDecryptWithKey>:
   0:	e92d 43f0 	stmdb	sp!, {r4, r5, r6, r7, r8, r9, lr}
   4:	b0d1      	sub	sp, #324	@ 0x144
   6:	460e      	mov	r6, r1
   8:	f8dd 9164 	ldr.w	r9, [sp, #356]	@ 0x164
   c:	4690      	mov	r8, r2
   e:	461f      	mov	r7, r3
  10:	4605      	mov	r5, r0
  12:	b320      	cbz	r0, 5e <wc_AesCbcDecryptWithKey+0x5e>
  14:	b319      	cbz	r1, 5e <wc_AesCbcDecryptWithKey+0x5e>
  16:	b313      	cbz	r3, 5e <wc_AesCbcDecryptWithKey+0x5e>
  18:	f1b9 0f00 	cmp.w	r9, #0
  1c:	d01f      	beq.n	5e <wc_AesCbcDecryptWithKey+0x5e>
  1e:	f06f 0201 	mvn.w	r2, #1
  22:	2100      	movs	r1, #0
  24:	a802      	add	r0, sp, #8
  26:	f7ff fffe 	bl	0 <wc_AesInit>
  2a:	4604      	mov	r4, r0
  2c:	b998      	cbnz	r0, 56 <wc_AesCbcDecryptWithKey+0x56>
  2e:	2301      	movs	r3, #1
  30:	9300      	str	r3, [sp, #0]
  32:	9a58      	ldr	r2, [sp, #352]	@ 0x160
  34:	464b      	mov	r3, r9
  36:	4639      	mov	r1, r7
  38:	a802      	add	r0, sp, #8
  3a:	f7ff fffe 	bl	0 <wc_AesSetKey>
  3e:	4604      	mov	r4, r0
  40:	b930      	cbnz	r0, 50 <wc_AesCbcDecryptWithKey+0x50>
  42:	4643      	mov	r3, r8
  44:	4632      	mov	r2, r6
  46:	4629      	mov	r1, r5
  48:	a802      	add	r0, sp, #8
  4a:	f7ff fffe 	bl	0 <wc_AesCbcDecrypt>
  4e:	4604      	mov	r4, r0
  50:	a802      	add	r0, sp, #8
  52:	f7ff fffe 	bl	0 <wc_AesFree>
  56:	4620      	mov	r0, r4
  58:	b051      	add	sp, #324	@ 0x144
  5a:	e8bd 83f0 	ldmia.w	sp!, {r4, r5, r6, r7, r8, r9, pc}
  5e:	f06f 04ac 	mvn.w	r4, #172	@ 0xac
  62:	e7f8      	b.n	56 <wc_AesCbcDecryptWithKey+0x56>

Disassembly of section .text.wc_AesCbcEncryptWithKey:

00000000 <wc_AesCbcEncryptWithKey>:
   0:	e92d 41f0 	stmdb	sp!, {r4, r5, r6, r7, r8, lr}
   4:	b0d0      	sub	sp, #320	@ 0x140
   6:	4605      	mov	r5, r0
   8:	460e      	mov	r6, r1
   a:	4617      	mov	r7, r2
   c:	2100      	movs	r1, #0
   e:	f06f 0201 	mvn.w	r2, #1
  12:	a802      	add	r0, sp, #8
  14:	4698      	mov	r8, r3
  16:	f7ff fffe 	bl	0 <wc_AesInit>
  1a:	4604      	mov	r4, r0
  1c:	b990      	cbnz	r0, 44 <wc_AesCbcEncryptWithKey+0x44>
  1e:	9000      	str	r0, [sp, #0]
  20:	e9dd 2356 	ldrd	r2, r3, [sp, #344]	@ 0x158
  24:	4641      	mov	r1, r8
  26:	a802      	add	r0, sp, #8
  28:	f7ff fffe 	bl	0 <wc_AesSetKey>
  2c:	4604      	mov	r4, r0
  2e:	b930      	cbnz	r0, 3e <wc_AesCbcEncryptWithKey+0x3e>
  30:	463b      	mov	r3, r7
  32:	4632      	mov	r2, r6
  34:	4629      	mov	r1, r5
  36:	a802      	add	r0, sp, #8
  38:	f7ff fffe 	bl	0 <wc_AesCbcEncrypt>
  3c:	4604      	mov	r4, r0
  3e:	a802      	add	r0, sp, #8
  40:	f7ff fffe 	bl	0 <wc_AesFree>
  44:	4620      	mov	r0, r4
  46:	b050      	add	sp, #320	@ 0x140
  48:	e8bd 81f0 	ldmia.w	sp!, {r4, r5, r6, r7, r8, pc}

wc_pkcs11.o:     file format elf32-littlearm


wc_port.o:     file format elf32-littlearm


Disassembly of section .text.wolfCrypt_Init:

00000000 <wolfCrypt_Init>:
   0:	4b03      	ldr	r3, [pc, #12]	@ (10 <wolfCrypt_Init+0x10>)
   2:	681a      	ldr	r2, [r3, #0]
   4:	681a      	ldr	r2, [r3, #0]
   6:	3201      	adds	r2, #1
   8:	601a      	str	r2, [r3, #0]
   a:	2000      	movs	r0, #0
   c:	4770      	bx	lr
   e:	bf00      	nop
  10:	00000000 	.word	0x00000000

Disassembly of section .text.wolfCrypt_Cleanup:

00000000 <wolfCrypt_Cleanup>:
   0:	4b05      	ldr	r3, [pc, #20]	@ (18 <wolfCrypt_Cleanup+0x18>)
   2:	681a      	ldr	r2, [r3, #0]
   4:	3a01      	subs	r2, #1
   6:	601a      	str	r2, [r3, #0]
   8:	681a      	ldr	r2, [r3, #0]
   a:	2a00      	cmp	r2, #0
   c:	bfbc      	itt	lt
   e:	2200      	movlt	r2, #0
  10:	601a      	strlt	r2, [r3, #0]
  12:	681b      	ldr	r3, [r3, #0]
  14:	2000      	movs	r0, #0
  16:	4770      	bx	lr
  18:	00000000 	.word	0x00000000

Disassembly of section .text.wc_InitAndAllocMutex:

00000000 <wc_InitAndAllocMutex>:
   0:	b508      	push	{r3, lr}
   2:	4b04      	ldr	r3, [pc, #16]	@ (14 <wc_InitAndAllocMutex+0x14>)
   4:	4904      	ldr	r1, [pc, #16]	@ (18 <wc_InitAndAllocMutex+0x18>)
   6:	681b      	ldr	r3, [r3, #0]
   8:	68d8      	ldr	r0, [r3, #12]
   a:	f7ff fffe 	bl	0 <fprintf>
   e:	2000      	movs	r0, #0
  10:	bd08      	pop	{r3, pc}
  12:	bf00      	nop
	...

Disassembly of section .text.wc_strtok:

00000000 <wc_strtok>:
   0:	b5f0      	push	{r4, r5, r6, r7, lr}
   2:	b910      	cbnz	r0, a <wc_strtok+0xa>
   4:	b342      	cbz	r2, 58 <wc_strtok+0x58>
   6:	6810      	ldr	r0, [r2, #0]
   8:	b330      	cbz	r0, 58 <wc_strtok+0x58>
   a:	7803      	ldrb	r3, [r0, #0]
   c:	b1db      	cbz	r3, 46 <wc_strtok+0x46>
   e:	4603      	mov	r3, r0
  10:	781c      	ldrb	r4, [r3, #0]
  12:	4618      	mov	r0, r3
  14:	461d      	mov	r5, r3
  16:	3301      	adds	r3, #1
  18:	b1bc      	cbz	r4, 4a <wc_strtok+0x4a>
  1a:	1e4e      	subs	r6, r1, #1
  1c:	46b4      	mov	ip, r6
  1e:	e001      	b.n	24 <wc_strtok+0x24>
  20:	42a7      	cmp	r7, r4
  22:	d0f5      	beq.n	10 <wc_strtok+0x10>
  24:	f816 7f01 	ldrb.w	r7, [r6, #1]!
  28:	2f00      	cmp	r7, #0
  2a:	d1f9      	bne.n	20 <wc_strtok+0x20>
  2c:	462b      	mov	r3, r5
  2e:	f815 4b01 	ldrb.w	r4, [r5], #1
  32:	b17c      	cbz	r4, 54 <wc_strtok+0x54>
  34:	4661      	mov	r1, ip
  36:	e001      	b.n	3c <wc_strtok+0x3c>
  38:	42a6      	cmp	r6, r4
  3a:	d008      	beq.n	4e <wc_strtok+0x4e>
  3c:	f811 6f01 	ldrb.w	r6, [r1, #1]!
  40:	2e00      	cmp	r6, #0
  42:	d1f9      	bne.n	38 <wc_strtok+0x38>
  44:	e7f2      	b.n	2c <wc_strtok+0x2c>
  46:	4618      	mov	r0, r3
  48:	e006      	b.n	58 <wc_strtok+0x58>
  4a:	4620      	mov	r0, r4
  4c:	e004      	b.n	58 <wc_strtok+0x58>
  4e:	2100      	movs	r1, #0
  50:	f803 1b01 	strb.w	r1, [r3], #1
  54:	b102      	cbz	r2, 58 <wc_strtok+0x58>
  56:	6013      	str	r3, [r2, #0]
  58:	bdf0      	pop	{r4, r5, r6, r7, pc}

Disassembly of section .text.wc_strsep:

00000000 <wc_strsep>:
   0:	b5f0      	push	{r4, r5, r6, r7, lr}
   2:	4602      	mov	r2, r0
   4:	b190      	cbz	r0, 2c <wc_strsep+0x2c>
   6:	6800      	ldr	r0, [r0, #0]
   8:	b180      	cbz	r0, 2c <wc_strsep+0x2c>
   a:	4604      	mov	r4, r0
   c:	4627      	mov	r7, r4
   e:	f814 3b01 	ldrb.w	r3, [r4], #1
  12:	b153      	cbz	r3, 2a <wc_strsep+0x2a>
  14:	1e4d      	subs	r5, r1, #1
  16:	f815 6f01 	ldrb.w	r6, [r5, #1]!
  1a:	2e00      	cmp	r6, #0
  1c:	d0f6      	beq.n	c <wc_strsep+0xc>
  1e:	429e      	cmp	r6, r3
  20:	d1f9      	bne.n	16 <wc_strsep+0x16>
  22:	463b      	mov	r3, r7
  24:	2100      	movs	r1, #0
  26:	f803 1b01 	strb.w	r1, [r3], #1
  2a:	6013      	str	r3, [r2, #0]
  2c:	bdf0      	pop	{r4, r5, r6, r7, pc}

Disassembly of section .text.wc_strlcpy:

00000000 <wc_strlcpy>:
   0:	b510      	push	{r4, lr}
   2:	4604      	mov	r4, r0
   4:	4610      	mov	r0, r2
   6:	b132      	cbz	r2, 16 <wc_strlcpy+0x16>
   8:	2300      	movs	r3, #0
   a:	3a01      	subs	r2, #1
   c:	4293      	cmp	r3, r2
   e:	d303      	bcc.n	18 <wc_strlcpy+0x18>
  10:	2200      	movs	r2, #0
  12:	7022      	strb	r2, [r4, #0]
  14:	4618      	mov	r0, r3
  16:	bd10      	pop	{r4, pc}
  18:	5cc8      	ldrb	r0, [r1, r3]
  1a:	2800      	cmp	r0, #0
  1c:	d0f8      	beq.n	10 <wc_strlcpy+0x10>
  1e:	f804 0b01 	strb.w	r0, [r4], #1
  22:	3301      	adds	r3, #1
  24:	e7f2      	b.n	c <wc_strlcpy+0xc>

Disassembly of section .text.wc_strlcat:

00000000 <wc_strlcat>:
   0:	b5f8      	push	{r3, r4, r5, r6, r7, lr}
   2:	4607      	mov	r7, r0
   4:	460e      	mov	r6, r1
   6:	4614      	mov	r4, r2
   8:	b142      	cbz	r2, 1c <wc_strlcat+0x1c>
   a:	f7ff fffe 	bl	0 <strlen>
   e:	4284      	cmp	r4, r0
  10:	4605      	mov	r5, r0
  12:	d205      	bcs.n	20 <wc_strlcat+0x20>
  14:	4630      	mov	r0, r6
  16:	f7ff fffe 	bl	0 <strlen>
  1a:	1944      	adds	r4, r0, r5
  1c:	4620      	mov	r0, r4
  1e:	bdf8      	pop	{r3, r4, r5, r6, r7, pc}
  20:	1a22      	subs	r2, r4, r0
  22:	4631      	mov	r1, r6
  24:	1838      	adds	r0, r7, r0
  26:	f7ff fffe 	bl	0 <wc_strlcat>
  2a:	e7f6      	b.n	1a <wc_strlcat+0x1a>

Disassembly of section .text.wc_InitMutex:

00000000 <wc_InitMutex>:
   0:	2000      	movs	r0, #0
   2:	4770      	bx	lr

Disassembly of section .text.wc_FreeMutex:

00000000 <wc_FreeMutex>:
   0:	2000      	movs	r0, #0
   2:	4770      	bx	lr

Disassembly of section .text.wc_LockMutex:

00000000 <wc_LockMutex>:
   0:	2000      	movs	r0, #0
   2:	4770      	bx	lr

Disassembly of section .text.wc_UnLockMutex:

00000000 <wc_UnLockMutex>:
   0:	2000      	movs	r0, #0
   2:	4770      	bx	lr

Disassembly of section .text.wc_InitRwLock:

00000000 <wc_InitRwLock>:
   0:	2000      	movs	r0, #0
   2:	4770      	bx	lr

Disassembly of section .text.wc_FreeRwLock:

00000000 <wc_FreeRwLock>:
   0:	2000      	movs	r0, #0
   2:	4770      	bx	lr

Disassembly of section .text.wc_LockRwLock_Wr:

00000000 <wc_LockRwLock_Wr>:
   0:	2000      	movs	r0, #0
   2:	4770      	bx	lr

Disassembly of section .text.wc_LockRwLock_Rd:

00000000 <wc_LockRwLock_Rd>:
   0:	2000      	movs	r0, #0
   2:	4770      	bx	lr

Disassembly of section .text.wc_UnLockRwLock:

00000000 <wc_UnLockRwLock>:
   0:	2000      	movs	r0, #0
   2:	4770      	bx	lr

Disassembly of section .text.gmtime_r:

00000000 <gmtime_r>:
   0:	6802      	ldr	r2, [r0, #0]
   2:	4845      	ldr	r0, [pc, #276]	@ (118 <gmtime_r+0x118>)
   4:	fbb2 f3f0 	udiv	r3, r2, r0
   8:	fb00 2213 	mls	r2, r0, r3, r2
   c:	203c      	movs	r0, #60	@ 0x3c
   e:	b5f0      	push	{r4, r5, r6, r7, lr}
  10:	fbb2 f4f0 	udiv	r4, r2, r0
  14:	f44f 6561 	mov.w	r5, #3600	@ 0xe10
  18:	fb00 2414 	mls	r4, r0, r4, r2
  1c:	600c      	str	r4, [r1, #0]
  1e:	fbb2 f4f5 	udiv	r4, r2, r5
  22:	fb05 2214 	mls	r2, r5, r4, r2
  26:	fbb2 f2f0 	udiv	r2, r2, r0
  2a:	1d18      	adds	r0, r3, #4
  2c:	e9c1 2401 	strd	r2, r4, [r1, #4]
  30:	2207      	movs	r2, #7
  32:	fbb0 f2f2 	udiv	r2, r0, r2
  36:	ebc2 02c2 	rsb	r2, r2, r2, lsl #3
  3a:	1a80      	subs	r0, r0, r2
  3c:	6188      	str	r0, [r1, #24]
  3e:	f240 72b2 	movw	r2, #1970	@ 0x7b2
  42:	f240 1c6d 	movw	ip, #365	@ 0x16d
  46:	2764      	movs	r7, #100	@ 0x64
  48:	f44f 70c8 	mov.w	r0, #400	@ 0x190
  4c:	f012 0603 	ands.w	r6, r2, #3
  50:	d125      	bne.n	9e <gmtime_r+0x9e>
  52:	fbb2 f4f7 	udiv	r4, r2, r7
  56:	fb07 2414 	mls	r4, r7, r4, r2
  5a:	2c00      	cmp	r4, #0
  5c:	d14b      	bne.n	f6 <gmtime_r+0xf6>
  5e:	fb92 f5f0 	sdiv	r5, r2, r0
  62:	fb00 2515 	mls	r5, r0, r5, r2
  66:	2d00      	cmp	r5, #0
  68:	d045      	beq.n	f6 <gmtime_r+0xf6>
  6a:	f5b3 7fb6 	cmp.w	r3, #364	@ 0x16c
  6e:	d847      	bhi.n	100 <gmtime_r+0x100>
  70:	e018      	b.n	a4 <gmtime_r+0xa4>
  72:	f44f 74b7 	mov.w	r4, #366	@ 0x16e
  76:	e04c      	b.n	112 <gmtime_r+0x112>
  78:	f240 146d 	movw	r4, #365	@ 0x16d
  7c:	e049      	b.n	112 <gmtime_r+0x112>
  7e:	b956      	cbnz	r6, 96 <gmtime_r+0x96>
  80:	2d00      	cmp	r5, #0
  82:	bf0c      	ite	eq
  84:	4614      	moveq	r4, r2
  86:	2401      	movne	r4, #1
  88:	fb0c 0404 	mla	r4, ip, r4, r0
  8c:	3001      	adds	r0, #1
  8e:	f857 4024 	ldr.w	r4, [r7, r4, lsl #2]
  92:	1b1b      	subs	r3, r3, r4
  94:	e01c      	b.n	d0 <gmtime_r+0xd0>
  96:	2400      	movs	r4, #0
  98:	e7f6      	b.n	88 <gmtime_r+0x88>
  9a:	2400      	movs	r4, #0
  9c:	e01e      	b.n	dc <gmtime_r+0xdc>
  9e:	f5b3 7fb6 	cmp.w	r3, #364	@ 0x16c
  a2:	d8e9      	bhi.n	78 <gmtime_r+0x78>
  a4:	f2a2 706c 	subw	r0, r2, #1900	@ 0x76c
  a8:	f44f 74c8 	mov.w	r4, #400	@ 0x190
  ac:	6148      	str	r0, [r1, #20]
  ae:	2064      	movs	r0, #100	@ 0x64
  b0:	fbb2 f5f0 	udiv	r5, r2, r0
  b4:	fb00 2515 	mls	r5, r0, r5, r2
  b8:	fb92 f0f4 	sdiv	r0, r2, r4
  bc:	fb04 2210 	mls	r2, r4, r0, r2
  c0:	fab2 f282 	clz	r2, r2
  c4:	4f15      	ldr	r7, [pc, #84]	@ (11c <gmtime_r+0x11c>)
  c6:	61cb      	str	r3, [r1, #28]
  c8:	0952      	lsrs	r2, r2, #5
  ca:	2000      	movs	r0, #0
  cc:	f04f 0c0c 	mov.w	ip, #12
  d0:	2e00      	cmp	r6, #0
  d2:	d1e2      	bne.n	9a <gmtime_r+0x9a>
  d4:	2d00      	cmp	r5, #0
  d6:	bf0c      	ite	eq
  d8:	4614      	moveq	r4, r2
  da:	2401      	movne	r4, #1
  dc:	fb0c 0404 	mla	r4, ip, r4, r0
  e0:	f857 4024 	ldr.w	r4, [r7, r4, lsl #2]
  e4:	429c      	cmp	r4, r3
  e6:	d9ca      	bls.n	7e <gmtime_r+0x7e>
  e8:	3301      	adds	r3, #1
  ea:	60cb      	str	r3, [r1, #12]
  ec:	2300      	movs	r3, #0
  ee:	6108      	str	r0, [r1, #16]
  f0:	620b      	str	r3, [r1, #32]
  f2:	4608      	mov	r0, r1
  f4:	bdf0      	pop	{r4, r5, r6, r7, pc}
  f6:	f5b3 7fb7 	cmp.w	r3, #366	@ 0x16e
  fa:	d3d3      	bcc.n	a4 <gmtime_r+0xa4>
  fc:	2c00      	cmp	r4, #0
  fe:	d1b8      	bne.n	72 <gmtime_r+0x72>
 100:	fb92 f4f0 	sdiv	r4, r2, r0
 104:	fb00 2414 	mls	r4, r0, r4, r2
 108:	2c00      	cmp	r4, #0
 10a:	bf0c      	ite	eq
 10c:	f44f 74b7 	moveq.w	r4, #366	@ 0x16e
 110:	4664      	movne	r4, ip
 112:	1b1b      	subs	r3, r3, r4
 114:	3201      	adds	r2, #1
 116:	e799      	b.n	4c <gmtime_r+0x4c>
 118:	00015180 	.word	0x00015180
 11c:	00000000 	.word	0x00000000

Disassembly of section .text.gmtime:

00000000 <gmtime>:
   0:	4901      	ldr	r1, [pc, #4]	@ (8 <gmtime+0x8>)
   2:	f7ff bffe 	b.w	0 <gmtime>
   6:	bf00      	nop
   8:	00000000 	.word	0x00000000

Disassembly of section .text.mystrnstr:

00000000 <mystrnstr>:
   0:	e92d 41f0 	stmdb	sp!, {r4, r5, r6, r7, r8, lr}
   4:	4604      	mov	r4, r0
   6:	4608      	mov	r0, r1
   8:	460f      	mov	r7, r1
   a:	4616      	mov	r6, r2
   c:	f7ff fffe 	bl	0 <strlen>
  10:	4605      	mov	r5, r0
  12:	b1b0      	cbz	r0, 42 <mystrnstr+0x42>
  14:	46a0      	mov	r8, r4
  16:	4426      	add	r6, r4
  18:	4644      	mov	r4, r8
  1a:	1b33      	subs	r3, r6, r4
  1c:	429d      	cmp	r5, r3
  1e:	d804      	bhi.n	2a <mystrnstr+0x2a>
  20:	f898 3000 	ldrb.w	r3, [r8]
  24:	f108 0801 	add.w	r8, r8, #1
  28:	b90b      	cbnz	r3, 2e <mystrnstr+0x2e>
  2a:	2400      	movs	r4, #0
  2c:	e009      	b.n	42 <mystrnstr+0x42>
  2e:	783a      	ldrb	r2, [r7, #0]
  30:	429a      	cmp	r2, r3
  32:	d1f1      	bne.n	18 <mystrnstr+0x18>
  34:	462a      	mov	r2, r5
  36:	4639      	mov	r1, r7
  38:	4620      	mov	r0, r4
  3a:	f7ff fffe 	bl	0 <memcmp>
  3e:	2800      	cmp	r0, #0
  40:	d1ea      	bne.n	18 <mystrnstr+0x18>
  42:	4620      	mov	r0, r4
  44:	e8bd 81f0 	ldmia.w	sp!, {r4, r5, r6, r7, r8, pc}

wolfevent.o:     file format elf32-littlearm


wolfmath.o:     file format elf32-littlearm


Disassembly of section .text.mp_reverse:

00000000 <mp_reverse>:
   0:	b530      	push	{r4, r5, lr}
   2:	b130      	cbz	r0, 12 <mp_reverse+0x12>
   4:	1e42      	subs	r2, r0, #1
   6:	2300      	movs	r3, #0
   8:	4408      	add	r0, r1
   a:	3901      	subs	r1, #1
   c:	1acc      	subs	r4, r1, r3
   e:	42a3      	cmp	r3, r4
  10:	db00      	blt.n	14 <mp_reverse+0x14>
  12:	bd30      	pop	{r4, r5, pc}
  14:	f812 4f01 	ldrb.w	r4, [r2, #1]!
  18:	f810 5d01 	ldrb.w	r5, [r0, #-1]!
  1c:	7015      	strb	r5, [r2, #0]
  1e:	3301      	adds	r3, #1
  20:	7004      	strb	r4, [r0, #0]
  22:	e7f3      	b.n	c <mp_reverse+0xc>

Disassembly of section .text.get_digit_count:

00000000 <get_digit_count>:
   0:	b100      	cbz	r0, 4 <get_digit_count+0x4>
   2:	6800      	ldr	r0, [r0, #0]
   4:	4770      	bx	lr

Disassembly of section .text.get_digit:

00000000 <get_digit>:
   0:	b148      	cbz	r0, 16 <get_digit+0x16>
   2:	2900      	cmp	r1, #0
   4:	db06      	blt.n	14 <get_digit+0x14>
   6:	6803      	ldr	r3, [r0, #0]
   8:	428b      	cmp	r3, r1
   a:	d903      	bls.n	14 <get_digit+0x14>
   c:	3102      	adds	r1, #2
   e:	f850 0021 	ldr.w	r0, [r0, r1, lsl #2]
  12:	4770      	bx	lr
  14:	2000      	movs	r0, #0
  16:	4770      	bx	lr

Disassembly of section .text.get_rand_digit:

00000000 <get_rand_digit>:
   0:	2204      	movs	r2, #4
   2:	f7ff bffe 	b.w	0 <wc_RNG_GenerateBlock>

Disassembly of section .text.mp_rand:

00000000 <mp_rand>:
   0:	b570      	push	{r4, r5, r6, lr}
   2:	4616      	mov	r6, r2
   4:	4605      	mov	r5, r0
   6:	460b      	mov	r3, r1
   8:	008a      	lsls	r2, r1, #2
   a:	b1e6      	cbz	r6, 46 <mp_rand+0x46>
   c:	b1f0      	cbz	r0, 4c <mp_rand+0x4c>
   e:	2900      	cmp	r1, #0
  10:	dd1c      	ble.n	4c <mp_rand+0x4c>
  12:	6841      	ldr	r1, [r0, #4]
  14:	4299      	cmp	r1, r3
  16:	d319      	bcc.n	4c <mp_rand+0x4c>
  18:	4601      	mov	r1, r0
  1a:	4630      	mov	r0, r6
  1c:	f841 3b08 	str.w	r3, [r1], #8
  20:	f7ff fffe 	bl	0 <wc_RNG_GenerateBlock>
  24:	4604      	mov	r4, r0
  26:	b138      	cbz	r0, 38 <mp_rand+0x38>
  28:	4620      	mov	r0, r4
  2a:	bd70      	pop	{r4, r5, r6, pc}
  2c:	eb05 0181 	add.w	r1, r5, r1, lsl #2
  30:	4630      	mov	r0, r6
  32:	f7ff fffe 	bl	0 <mp_rand>
  36:	b960      	cbnz	r0, 52 <mp_rand+0x52>
  38:	6829      	ldr	r1, [r5, #0]
  3a:	3101      	adds	r1, #1
  3c:	f855 3021 	ldr.w	r3, [r5, r1, lsl #2]
  40:	2b00      	cmp	r3, #0
  42:	d0f3      	beq.n	2c <mp_rand+0x2c>
  44:	e7f0      	b.n	28 <mp_rand+0x28>
  46:	f06f 04eb 	mvn.w	r4, #235	@ 0xeb
  4a:	e7ed      	b.n	28 <mp_rand+0x28>
  4c:	f06f 04ac 	mvn.w	r4, #172	@ 0xac
  50:	e7ea      	b.n	28 <mp_rand+0x28>
  52:	4604      	mov	r4, r0
  54:	e7e8      	b.n	28 <mp_rand+0x28>

arc4.o:     file format elf32-littlearm


blake2b.o:     file format elf32-littlearm


camellia.o:     file format elf32-littlearm


dsa.o:     file format elf32-littlearm


md2.o:     file format elf32-littlearm


md4.o:     file format elf32-littlearm


ripemd.o:     file format elf32-littlearm

